
stm32f401cdu6_Audio.elf:     file format elf32-littlearm

Sections:
Idx Name          Size      VMA       LMA       File off  Algn
  0 .isr_vector   00000194  08000000  08000000  00010000  2**0
                  CONTENTS, ALLOC, LOAD, READONLY, DATA
  1 .text         0000c6c0  080001a0  080001a0  000101a0  2**4
                  CONTENTS, ALLOC, LOAD, READONLY, CODE
  2 .rodata       00038de4  0800c860  0800c860  0001c860  2**3
                  CONTENTS, ALLOC, LOAD, READONLY, DATA
  3 .ARM.extab    00000000  08045644  08045644  0006031c  2**0
                  CONTENTS
  4 .ARM          00000008  08045644  08045644  00055644  2**2
                  CONTENTS, ALLOC, LOAD, READONLY, DATA
  5 .preinit_array 00000000  0804564c  0804564c  0006031c  2**0
                  CONTENTS, ALLOC, LOAD, DATA
  6 .init_array   00000004  0804564c  0804564c  0005564c  2**2
                  CONTENTS, ALLOC, LOAD, DATA
  7 .fini_array   00000004  08045650  08045650  00055650  2**2
                  CONTENTS, ALLOC, LOAD, DATA
  8 .data         0000031c  20000000  08045654  00060000  2**2
                  CONTENTS, ALLOC, LOAD, DATA
  9 .bss          000131c4  2000031c  08045970  0006031c  2**2
                  ALLOC
 10 ._user_heap_stack 00000600  200134e0  08045970  000634e0  2**0
                  ALLOC
 11 .ARM.attributes 00000030  00000000  00000000  0006031c  2**0
                  CONTENTS, READONLY
 12 .comment      00000053  00000000  00000000  0006034c  2**0
                  CONTENTS, READONLY
 13 .debug_frame  00001550  00000000  00000000  000603a0  2**2
                  CONTENTS, READONLY, DEBUGGING, OCTETS

Disassembly of section .text:

080001a0 <__do_global_dtors_aux>:
 80001a0:	b510      	push	{r4, lr}
 80001a2:	4c05      	ldr	r4, [pc, #20]	; (80001b8 <__do_global_dtors_aux+0x18>)
 80001a4:	7823      	ldrb	r3, [r4, #0]
 80001a6:	b933      	cbnz	r3, 80001b6 <__do_global_dtors_aux+0x16>
 80001a8:	4b04      	ldr	r3, [pc, #16]	; (80001bc <__do_global_dtors_aux+0x1c>)
 80001aa:	b113      	cbz	r3, 80001b2 <__do_global_dtors_aux+0x12>
 80001ac:	4804      	ldr	r0, [pc, #16]	; (80001c0 <__do_global_dtors_aux+0x20>)
 80001ae:	f3af 8000 	nop.w
 80001b2:	2301      	movs	r3, #1
 80001b4:	7023      	strb	r3, [r4, #0]
 80001b6:	bd10      	pop	{r4, pc}
 80001b8:	2000031c 	.word	0x2000031c
 80001bc:	00000000 	.word	0x00000000
 80001c0:	0800c848 	.word	0x0800c848

080001c4 <frame_dummy>:
 80001c4:	b508      	push	{r3, lr}
 80001c6:	4b03      	ldr	r3, [pc, #12]	; (80001d4 <frame_dummy+0x10>)
 80001c8:	b11b      	cbz	r3, 80001d2 <frame_dummy+0xe>
 80001ca:	4903      	ldr	r1, [pc, #12]	; (80001d8 <frame_dummy+0x14>)
 80001cc:	4803      	ldr	r0, [pc, #12]	; (80001dc <frame_dummy+0x18>)
 80001ce:	f3af 8000 	nop.w
 80001d2:	bd08      	pop	{r3, pc}
 80001d4:	00000000 	.word	0x00000000
 80001d8:	20000320 	.word	0x20000320
 80001dc:	0800c848 	.word	0x0800c848

080001e0 <strlen>:
 80001e0:	4603      	mov	r3, r0
 80001e2:	f813 2b01 	ldrb.w	r2, [r3], #1
 80001e6:	2a00      	cmp	r2, #0
 80001e8:	d1fb      	bne.n	80001e2 <strlen+0x2>
 80001ea:	1a18      	subs	r0, r3, r0
 80001ec:	3801      	subs	r0, #1
 80001ee:	4770      	bx	lr

080001f0 <memchr>:
 80001f0:	f001 01ff 	and.w	r1, r1, #255	; 0xff
 80001f4:	2a10      	cmp	r2, #16
 80001f6:	db2b      	blt.n	8000250 <memchr+0x60>
 80001f8:	f010 0f07 	tst.w	r0, #7
 80001fc:	d008      	beq.n	8000210 <memchr+0x20>
 80001fe:	f810 3b01 	ldrb.w	r3, [r0], #1
 8000202:	3a01      	subs	r2, #1
 8000204:	428b      	cmp	r3, r1
 8000206:	d02d      	beq.n	8000264 <memchr+0x74>
 8000208:	f010 0f07 	tst.w	r0, #7
 800020c:	b342      	cbz	r2, 8000260 <memchr+0x70>
 800020e:	d1f6      	bne.n	80001fe <memchr+0xe>
 8000210:	b4f0      	push	{r4, r5, r6, r7}
 8000212:	ea41 2101 	orr.w	r1, r1, r1, lsl #8
 8000216:	ea41 4101 	orr.w	r1, r1, r1, lsl #16
 800021a:	f022 0407 	bic.w	r4, r2, #7
 800021e:	f07f 0700 	mvns.w	r7, #0
 8000222:	2300      	movs	r3, #0
 8000224:	e8f0 5602 	ldrd	r5, r6, [r0], #8
 8000228:	3c08      	subs	r4, #8
 800022a:	ea85 0501 	eor.w	r5, r5, r1
 800022e:	ea86 0601 	eor.w	r6, r6, r1
 8000232:	fa85 f547 	uadd8	r5, r5, r7
 8000236:	faa3 f587 	sel	r5, r3, r7
 800023a:	fa86 f647 	uadd8	r6, r6, r7
 800023e:	faa5 f687 	sel	r6, r5, r7
 8000242:	b98e      	cbnz	r6, 8000268 <memchr+0x78>
 8000244:	d1ee      	bne.n	8000224 <memchr+0x34>
 8000246:	bcf0      	pop	{r4, r5, r6, r7}
 8000248:	f001 01ff 	and.w	r1, r1, #255	; 0xff
 800024c:	f002 0207 	and.w	r2, r2, #7
 8000250:	b132      	cbz	r2, 8000260 <memchr+0x70>
 8000252:	f810 3b01 	ldrb.w	r3, [r0], #1
 8000256:	3a01      	subs	r2, #1
 8000258:	ea83 0301 	eor.w	r3, r3, r1
 800025c:	b113      	cbz	r3, 8000264 <memchr+0x74>
 800025e:	d1f8      	bne.n	8000252 <memchr+0x62>
 8000260:	2000      	movs	r0, #0
 8000262:	4770      	bx	lr
 8000264:	3801      	subs	r0, #1
 8000266:	4770      	bx	lr
 8000268:	2d00      	cmp	r5, #0
 800026a:	bf06      	itte	eq
 800026c:	4635      	moveq	r5, r6
 800026e:	3803      	subeq	r0, #3
 8000270:	3807      	subne	r0, #7
 8000272:	f015 0f01 	tst.w	r5, #1
 8000276:	d107      	bne.n	8000288 <memchr+0x98>
 8000278:	3001      	adds	r0, #1
 800027a:	f415 7f80 	tst.w	r5, #256	; 0x100
 800027e:	bf02      	ittt	eq
 8000280:	3001      	addeq	r0, #1
 8000282:	f415 3fc0 	tsteq.w	r5, #98304	; 0x18000
 8000286:	3001      	addeq	r0, #1
 8000288:	bcf0      	pop	{r4, r5, r6, r7}
 800028a:	3801      	subs	r0, #1
 800028c:	4770      	bx	lr
 800028e:	bf00      	nop

08000290 <__aeabi_drsub>:
 8000290:	f081 4100 	eor.w	r1, r1, #2147483648	; 0x80000000
 8000294:	e002      	b.n	800029c <__adddf3>
 8000296:	bf00      	nop

08000298 <__aeabi_dsub>:
 8000298:	f083 4300 	eor.w	r3, r3, #2147483648	; 0x80000000

0800029c <__adddf3>:
 800029c:	b530      	push	{r4, r5, lr}
 800029e:	ea4f 0441 	mov.w	r4, r1, lsl #1
 80002a2:	ea4f 0543 	mov.w	r5, r3, lsl #1
 80002a6:	ea94 0f05 	teq	r4, r5
 80002aa:	bf08      	it	eq
 80002ac:	ea90 0f02 	teqeq	r0, r2
 80002b0:	bf1f      	itttt	ne
 80002b2:	ea54 0c00 	orrsne.w	ip, r4, r0
 80002b6:	ea55 0c02 	orrsne.w	ip, r5, r2
 80002ba:	ea7f 5c64 	mvnsne.w	ip, r4, asr #21
 80002be:	ea7f 5c65 	mvnsne.w	ip, r5, asr #21
 80002c2:	f000 80e2 	beq.w	800048a <__adddf3+0x1ee>
 80002c6:	ea4f 5454 	mov.w	r4, r4, lsr #21
 80002ca:	ebd4 5555 	rsbs	r5, r4, r5, lsr #21
 80002ce:	bfb8      	it	lt
 80002d0:	426d      	neglt	r5, r5
 80002d2:	dd0c      	ble.n	80002ee <__adddf3+0x52>
 80002d4:	442c      	add	r4, r5
 80002d6:	ea80 0202 	eor.w	r2, r0, r2
 80002da:	ea81 0303 	eor.w	r3, r1, r3
 80002de:	ea82 0000 	eor.w	r0, r2, r0
 80002e2:	ea83 0101 	eor.w	r1, r3, r1
 80002e6:	ea80 0202 	eor.w	r2, r0, r2
 80002ea:	ea81 0303 	eor.w	r3, r1, r3
 80002ee:	2d36      	cmp	r5, #54	; 0x36
 80002f0:	bf88      	it	hi
 80002f2:	bd30      	pophi	{r4, r5, pc}
 80002f4:	f011 4f00 	tst.w	r1, #2147483648	; 0x80000000
 80002f8:	ea4f 3101 	mov.w	r1, r1, lsl #12
 80002fc:	f44f 1c80 	mov.w	ip, #1048576	; 0x100000
 8000300:	ea4c 3111 	orr.w	r1, ip, r1, lsr #12
 8000304:	d002      	beq.n	800030c <__adddf3+0x70>
 8000306:	4240      	negs	r0, r0
 8000308:	eb61 0141 	sbc.w	r1, r1, r1, lsl #1
 800030c:	f013 4f00 	tst.w	r3, #2147483648	; 0x80000000
 8000310:	ea4f 3303 	mov.w	r3, r3, lsl #12
 8000314:	ea4c 3313 	orr.w	r3, ip, r3, lsr #12
 8000318:	d002      	beq.n	8000320 <__adddf3+0x84>
 800031a:	4252      	negs	r2, r2
 800031c:	eb63 0343 	sbc.w	r3, r3, r3, lsl #1
 8000320:	ea94 0f05 	teq	r4, r5
 8000324:	f000 80a7 	beq.w	8000476 <__adddf3+0x1da>
 8000328:	f1a4 0401 	sub.w	r4, r4, #1
 800032c:	f1d5 0e20 	rsbs	lr, r5, #32
 8000330:	db0d      	blt.n	800034e <__adddf3+0xb2>
 8000332:	fa02 fc0e 	lsl.w	ip, r2, lr
 8000336:	fa22 f205 	lsr.w	r2, r2, r5
 800033a:	1880      	adds	r0, r0, r2
 800033c:	f141 0100 	adc.w	r1, r1, #0
 8000340:	fa03 f20e 	lsl.w	r2, r3, lr
 8000344:	1880      	adds	r0, r0, r2
 8000346:	fa43 f305 	asr.w	r3, r3, r5
 800034a:	4159      	adcs	r1, r3
 800034c:	e00e      	b.n	800036c <__adddf3+0xd0>
 800034e:	f1a5 0520 	sub.w	r5, r5, #32
 8000352:	f10e 0e20 	add.w	lr, lr, #32
 8000356:	2a01      	cmp	r2, #1
 8000358:	fa03 fc0e 	lsl.w	ip, r3, lr
 800035c:	bf28      	it	cs
 800035e:	f04c 0c02 	orrcs.w	ip, ip, #2
 8000362:	fa43 f305 	asr.w	r3, r3, r5
 8000366:	18c0      	adds	r0, r0, r3
 8000368:	eb51 71e3 	adcs.w	r1, r1, r3, asr #31
 800036c:	f001 4500 	and.w	r5, r1, #2147483648	; 0x80000000
 8000370:	d507      	bpl.n	8000382 <__adddf3+0xe6>
 8000372:	f04f 0e00 	mov.w	lr, #0
 8000376:	f1dc 0c00 	rsbs	ip, ip, #0
 800037a:	eb7e 0000 	sbcs.w	r0, lr, r0
 800037e:	eb6e 0101 	sbc.w	r1, lr, r1
 8000382:	f5b1 1f80 	cmp.w	r1, #1048576	; 0x100000
 8000386:	d31b      	bcc.n	80003c0 <__adddf3+0x124>
 8000388:	f5b1 1f00 	cmp.w	r1, #2097152	; 0x200000
 800038c:	d30c      	bcc.n	80003a8 <__adddf3+0x10c>
 800038e:	0849      	lsrs	r1, r1, #1
 8000390:	ea5f 0030 	movs.w	r0, r0, rrx
 8000394:	ea4f 0c3c 	mov.w	ip, ip, rrx
 8000398:	f104 0401 	add.w	r4, r4, #1
 800039c:	ea4f 5244 	mov.w	r2, r4, lsl #21
 80003a0:	f512 0f80 	cmn.w	r2, #4194304	; 0x400000
 80003a4:	f080 809a 	bcs.w	80004dc <__adddf3+0x240>
 80003a8:	f1bc 4f00 	cmp.w	ip, #2147483648	; 0x80000000
 80003ac:	bf08      	it	eq
 80003ae:	ea5f 0c50 	movseq.w	ip, r0, lsr #1
 80003b2:	f150 0000 	adcs.w	r0, r0, #0
 80003b6:	eb41 5104 	adc.w	r1, r1, r4, lsl #20
 80003ba:	ea41 0105 	orr.w	r1, r1, r5
 80003be:	bd30      	pop	{r4, r5, pc}
 80003c0:	ea5f 0c4c 	movs.w	ip, ip, lsl #1
 80003c4:	4140      	adcs	r0, r0
 80003c6:	eb41 0101 	adc.w	r1, r1, r1
 80003ca:	3c01      	subs	r4, #1
 80003cc:	bf28      	it	cs
 80003ce:	f5b1 1f80 	cmpcs.w	r1, #1048576	; 0x100000
 80003d2:	d2e9      	bcs.n	80003a8 <__adddf3+0x10c>
 80003d4:	f091 0f00 	teq	r1, #0
 80003d8:	bf04      	itt	eq
 80003da:	4601      	moveq	r1, r0
 80003dc:	2000      	moveq	r0, #0
 80003de:	fab1 f381 	clz	r3, r1
 80003e2:	bf08      	it	eq
 80003e4:	3320      	addeq	r3, #32
 80003e6:	f1a3 030b 	sub.w	r3, r3, #11
 80003ea:	f1b3 0220 	subs.w	r2, r3, #32
 80003ee:	da0c      	bge.n	800040a <__adddf3+0x16e>
 80003f0:	320c      	adds	r2, #12
 80003f2:	dd08      	ble.n	8000406 <__adddf3+0x16a>
 80003f4:	f102 0c14 	add.w	ip, r2, #20
 80003f8:	f1c2 020c 	rsb	r2, r2, #12
 80003fc:	fa01 f00c 	lsl.w	r0, r1, ip
 8000400:	fa21 f102 	lsr.w	r1, r1, r2
 8000404:	e00c      	b.n	8000420 <__adddf3+0x184>
 8000406:	f102 0214 	add.w	r2, r2, #20
 800040a:	bfd8      	it	le
 800040c:	f1c2 0c20 	rsble	ip, r2, #32
 8000410:	fa01 f102 	lsl.w	r1, r1, r2
 8000414:	fa20 fc0c 	lsr.w	ip, r0, ip
 8000418:	bfdc      	itt	le
 800041a:	ea41 010c 	orrle.w	r1, r1, ip
 800041e:	4090      	lslle	r0, r2
 8000420:	1ae4      	subs	r4, r4, r3
 8000422:	bfa2      	ittt	ge
 8000424:	eb01 5104 	addge.w	r1, r1, r4, lsl #20
 8000428:	4329      	orrge	r1, r5
 800042a:	bd30      	popge	{r4, r5, pc}
 800042c:	ea6f 0404 	mvn.w	r4, r4
 8000430:	3c1f      	subs	r4, #31
 8000432:	da1c      	bge.n	800046e <__adddf3+0x1d2>
 8000434:	340c      	adds	r4, #12
 8000436:	dc0e      	bgt.n	8000456 <__adddf3+0x1ba>
 8000438:	f104 0414 	add.w	r4, r4, #20
 800043c:	f1c4 0220 	rsb	r2, r4, #32
 8000440:	fa20 f004 	lsr.w	r0, r0, r4
 8000444:	fa01 f302 	lsl.w	r3, r1, r2
 8000448:	ea40 0003 	orr.w	r0, r0, r3
 800044c:	fa21 f304 	lsr.w	r3, r1, r4
 8000450:	ea45 0103 	orr.w	r1, r5, r3
 8000454:	bd30      	pop	{r4, r5, pc}
 8000456:	f1c4 040c 	rsb	r4, r4, #12
 800045a:	f1c4 0220 	rsb	r2, r4, #32
 800045e:	fa20 f002 	lsr.w	r0, r0, r2
 8000462:	fa01 f304 	lsl.w	r3, r1, r4
 8000466:	ea40 0003 	orr.w	r0, r0, r3
 800046a:	4629      	mov	r1, r5
 800046c:	bd30      	pop	{r4, r5, pc}
 800046e:	fa21 f004 	lsr.w	r0, r1, r4
 8000472:	4629      	mov	r1, r5
 8000474:	bd30      	pop	{r4, r5, pc}
 8000476:	f094 0f00 	teq	r4, #0
 800047a:	f483 1380 	eor.w	r3, r3, #1048576	; 0x100000
 800047e:	bf06      	itte	eq
 8000480:	f481 1180 	eoreq.w	r1, r1, #1048576	; 0x100000
 8000484:	3401      	addeq	r4, #1
 8000486:	3d01      	subne	r5, #1
 8000488:	e74e      	b.n	8000328 <__adddf3+0x8c>
 800048a:	ea7f 5c64 	mvns.w	ip, r4, asr #21
 800048e:	bf18      	it	ne
 8000490:	ea7f 5c65 	mvnsne.w	ip, r5, asr #21
 8000494:	d029      	beq.n	80004ea <__adddf3+0x24e>
 8000496:	ea94 0f05 	teq	r4, r5
 800049a:	bf08      	it	eq
 800049c:	ea90 0f02 	teqeq	r0, r2
 80004a0:	d005      	beq.n	80004ae <__adddf3+0x212>
 80004a2:	ea54 0c00 	orrs.w	ip, r4, r0
 80004a6:	bf04      	itt	eq
 80004a8:	4619      	moveq	r1, r3
 80004aa:	4610      	moveq	r0, r2
 80004ac:	bd30      	pop	{r4, r5, pc}
 80004ae:	ea91 0f03 	teq	r1, r3
 80004b2:	bf1e      	ittt	ne
 80004b4:	2100      	movne	r1, #0
 80004b6:	2000      	movne	r0, #0
 80004b8:	bd30      	popne	{r4, r5, pc}
 80004ba:	ea5f 5c54 	movs.w	ip, r4, lsr #21
 80004be:	d105      	bne.n	80004cc <__adddf3+0x230>
 80004c0:	0040      	lsls	r0, r0, #1
 80004c2:	4149      	adcs	r1, r1
 80004c4:	bf28      	it	cs
 80004c6:	f041 4100 	orrcs.w	r1, r1, #2147483648	; 0x80000000
 80004ca:	bd30      	pop	{r4, r5, pc}
 80004cc:	f514 0480 	adds.w	r4, r4, #4194304	; 0x400000
 80004d0:	bf3c      	itt	cc
 80004d2:	f501 1180 	addcc.w	r1, r1, #1048576	; 0x100000
 80004d6:	bd30      	popcc	{r4, r5, pc}
 80004d8:	f001 4500 	and.w	r5, r1, #2147483648	; 0x80000000
 80004dc:	f045 41fe 	orr.w	r1, r5, #2130706432	; 0x7f000000
 80004e0:	f441 0170 	orr.w	r1, r1, #15728640	; 0xf00000
 80004e4:	f04f 0000 	mov.w	r0, #0
 80004e8:	bd30      	pop	{r4, r5, pc}
 80004ea:	ea7f 5c64 	mvns.w	ip, r4, asr #21
 80004ee:	bf1a      	itte	ne
 80004f0:	4619      	movne	r1, r3
 80004f2:	4610      	movne	r0, r2
 80004f4:	ea7f 5c65 	mvnseq.w	ip, r5, asr #21
 80004f8:	bf1c      	itt	ne
 80004fa:	460b      	movne	r3, r1
 80004fc:	4602      	movne	r2, r0
 80004fe:	ea50 3401 	orrs.w	r4, r0, r1, lsl #12
 8000502:	bf06      	itte	eq
 8000504:	ea52 3503 	orrseq.w	r5, r2, r3, lsl #12
 8000508:	ea91 0f03 	teqeq	r1, r3
 800050c:	f441 2100 	orrne.w	r1, r1, #524288	; 0x80000
 8000510:	bd30      	pop	{r4, r5, pc}
 8000512:	bf00      	nop

08000514 <__aeabi_ui2d>:
 8000514:	f090 0f00 	teq	r0, #0
 8000518:	bf04      	itt	eq
 800051a:	2100      	moveq	r1, #0
 800051c:	4770      	bxeq	lr
 800051e:	b530      	push	{r4, r5, lr}
 8000520:	f44f 6480 	mov.w	r4, #1024	; 0x400
 8000524:	f104 0432 	add.w	r4, r4, #50	; 0x32
 8000528:	f04f 0500 	mov.w	r5, #0
 800052c:	f04f 0100 	mov.w	r1, #0
 8000530:	e750      	b.n	80003d4 <__adddf3+0x138>
 8000532:	bf00      	nop

08000534 <__aeabi_i2d>:
 8000534:	f090 0f00 	teq	r0, #0
 8000538:	bf04      	itt	eq
 800053a:	2100      	moveq	r1, #0
 800053c:	4770      	bxeq	lr
 800053e:	b530      	push	{r4, r5, lr}
 8000540:	f44f 6480 	mov.w	r4, #1024	; 0x400
 8000544:	f104 0432 	add.w	r4, r4, #50	; 0x32
 8000548:	f010 4500 	ands.w	r5, r0, #2147483648	; 0x80000000
 800054c:	bf48      	it	mi
 800054e:	4240      	negmi	r0, r0
 8000550:	f04f 0100 	mov.w	r1, #0
 8000554:	e73e      	b.n	80003d4 <__adddf3+0x138>
 8000556:	bf00      	nop

08000558 <__aeabi_f2d>:
 8000558:	0042      	lsls	r2, r0, #1
 800055a:	ea4f 01e2 	mov.w	r1, r2, asr #3
 800055e:	ea4f 0131 	mov.w	r1, r1, rrx
 8000562:	ea4f 7002 	mov.w	r0, r2, lsl #28
 8000566:	bf1f      	itttt	ne
 8000568:	f012 437f 	andsne.w	r3, r2, #4278190080	; 0xff000000
 800056c:	f093 4f7f 	teqne	r3, #4278190080	; 0xff000000
 8000570:	f081 5160 	eorne.w	r1, r1, #939524096	; 0x38000000
 8000574:	4770      	bxne	lr
 8000576:	f032 427f 	bics.w	r2, r2, #4278190080	; 0xff000000
 800057a:	bf08      	it	eq
 800057c:	4770      	bxeq	lr
 800057e:	f093 4f7f 	teq	r3, #4278190080	; 0xff000000
 8000582:	bf04      	itt	eq
 8000584:	f441 2100 	orreq.w	r1, r1, #524288	; 0x80000
 8000588:	4770      	bxeq	lr
 800058a:	b530      	push	{r4, r5, lr}
 800058c:	f44f 7460 	mov.w	r4, #896	; 0x380
 8000590:	f001 4500 	and.w	r5, r1, #2147483648	; 0x80000000
 8000594:	f021 4100 	bic.w	r1, r1, #2147483648	; 0x80000000
 8000598:	e71c      	b.n	80003d4 <__adddf3+0x138>
 800059a:	bf00      	nop

0800059c <__aeabi_ul2d>:
 800059c:	ea50 0201 	orrs.w	r2, r0, r1
 80005a0:	bf08      	it	eq
 80005a2:	4770      	bxeq	lr
 80005a4:	b530      	push	{r4, r5, lr}
 80005a6:	f04f 0500 	mov.w	r5, #0
 80005aa:	e00a      	b.n	80005c2 <__aeabi_l2d+0x16>

080005ac <__aeabi_l2d>:
 80005ac:	ea50 0201 	orrs.w	r2, r0, r1
 80005b0:	bf08      	it	eq
 80005b2:	4770      	bxeq	lr
 80005b4:	b530      	push	{r4, r5, lr}
 80005b6:	f011 4500 	ands.w	r5, r1, #2147483648	; 0x80000000
 80005ba:	d502      	bpl.n	80005c2 <__aeabi_l2d+0x16>
 80005bc:	4240      	negs	r0, r0
 80005be:	eb61 0141 	sbc.w	r1, r1, r1, lsl #1
 80005c2:	f44f 6480 	mov.w	r4, #1024	; 0x400
 80005c6:	f104 0432 	add.w	r4, r4, #50	; 0x32
 80005ca:	ea5f 5c91 	movs.w	ip, r1, lsr #22
 80005ce:	f43f aed8 	beq.w	8000382 <__adddf3+0xe6>
 80005d2:	f04f 0203 	mov.w	r2, #3
 80005d6:	ea5f 0cdc 	movs.w	ip, ip, lsr #3
 80005da:	bf18      	it	ne
 80005dc:	3203      	addne	r2, #3
 80005de:	ea5f 0cdc 	movs.w	ip, ip, lsr #3
 80005e2:	bf18      	it	ne
 80005e4:	3203      	addne	r2, #3
 80005e6:	eb02 02dc 	add.w	r2, r2, ip, lsr #3
 80005ea:	f1c2 0320 	rsb	r3, r2, #32
 80005ee:	fa00 fc03 	lsl.w	ip, r0, r3
 80005f2:	fa20 f002 	lsr.w	r0, r0, r2
 80005f6:	fa01 fe03 	lsl.w	lr, r1, r3
 80005fa:	ea40 000e 	orr.w	r0, r0, lr
 80005fe:	fa21 f102 	lsr.w	r1, r1, r2
 8000602:	4414      	add	r4, r2
 8000604:	e6bd      	b.n	8000382 <__adddf3+0xe6>
 8000606:	bf00      	nop

08000608 <__aeabi_dmul>:
 8000608:	b570      	push	{r4, r5, r6, lr}
 800060a:	f04f 0cff 	mov.w	ip, #255	; 0xff
 800060e:	f44c 6ce0 	orr.w	ip, ip, #1792	; 0x700
 8000612:	ea1c 5411 	ands.w	r4, ip, r1, lsr #20
 8000616:	bf1d      	ittte	ne
 8000618:	ea1c 5513 	andsne.w	r5, ip, r3, lsr #20
 800061c:	ea94 0f0c 	teqne	r4, ip
 8000620:	ea95 0f0c 	teqne	r5, ip
 8000624:	f000 f8de 	bleq	80007e4 <__aeabi_dmul+0x1dc>
 8000628:	442c      	add	r4, r5
 800062a:	ea81 0603 	eor.w	r6, r1, r3
 800062e:	ea21 514c 	bic.w	r1, r1, ip, lsl #21
 8000632:	ea23 534c 	bic.w	r3, r3, ip, lsl #21
 8000636:	ea50 3501 	orrs.w	r5, r0, r1, lsl #12
 800063a:	bf18      	it	ne
 800063c:	ea52 3503 	orrsne.w	r5, r2, r3, lsl #12
 8000640:	f441 1180 	orr.w	r1, r1, #1048576	; 0x100000
 8000644:	f443 1380 	orr.w	r3, r3, #1048576	; 0x100000
 8000648:	d038      	beq.n	80006bc <__aeabi_dmul+0xb4>
 800064a:	fba0 ce02 	umull	ip, lr, r0, r2
 800064e:	f04f 0500 	mov.w	r5, #0
 8000652:	fbe1 e502 	umlal	lr, r5, r1, r2
 8000656:	f006 4200 	and.w	r2, r6, #2147483648	; 0x80000000
 800065a:	fbe0 e503 	umlal	lr, r5, r0, r3
 800065e:	f04f 0600 	mov.w	r6, #0
 8000662:	fbe1 5603 	umlal	r5, r6, r1, r3
 8000666:	f09c 0f00 	teq	ip, #0
 800066a:	bf18      	it	ne
 800066c:	f04e 0e01 	orrne.w	lr, lr, #1
 8000670:	f1a4 04ff 	sub.w	r4, r4, #255	; 0xff
 8000674:	f5b6 7f00 	cmp.w	r6, #512	; 0x200
 8000678:	f564 7440 	sbc.w	r4, r4, #768	; 0x300
 800067c:	d204      	bcs.n	8000688 <__aeabi_dmul+0x80>
 800067e:	ea5f 0e4e 	movs.w	lr, lr, lsl #1
 8000682:	416d      	adcs	r5, r5
 8000684:	eb46 0606 	adc.w	r6, r6, r6
 8000688:	ea42 21c6 	orr.w	r1, r2, r6, lsl #11
 800068c:	ea41 5155 	orr.w	r1, r1, r5, lsr #21
 8000690:	ea4f 20c5 	mov.w	r0, r5, lsl #11
 8000694:	ea40 505e 	orr.w	r0, r0, lr, lsr #21
 8000698:	ea4f 2ece 	mov.w	lr, lr, lsl #11
 800069c:	f1b4 0cfd 	subs.w	ip, r4, #253	; 0xfd
 80006a0:	bf88      	it	hi
 80006a2:	f5bc 6fe0 	cmphi.w	ip, #1792	; 0x700
 80006a6:	d81e      	bhi.n	80006e6 <__aeabi_dmul+0xde>
 80006a8:	f1be 4f00 	cmp.w	lr, #2147483648	; 0x80000000
 80006ac:	bf08      	it	eq
 80006ae:	ea5f 0e50 	movseq.w	lr, r0, lsr #1
 80006b2:	f150 0000 	adcs.w	r0, r0, #0
 80006b6:	eb41 5104 	adc.w	r1, r1, r4, lsl #20
 80006ba:	bd70      	pop	{r4, r5, r6, pc}
 80006bc:	f006 4600 	and.w	r6, r6, #2147483648	; 0x80000000
 80006c0:	ea46 0101 	orr.w	r1, r6, r1
 80006c4:	ea40 0002 	orr.w	r0, r0, r2
 80006c8:	ea81 0103 	eor.w	r1, r1, r3
 80006cc:	ebb4 045c 	subs.w	r4, r4, ip, lsr #1
 80006d0:	bfc2      	ittt	gt
 80006d2:	ebd4 050c 	rsbsgt	r5, r4, ip
 80006d6:	ea41 5104 	orrgt.w	r1, r1, r4, lsl #20
 80006da:	bd70      	popgt	{r4, r5, r6, pc}
 80006dc:	f441 1180 	orr.w	r1, r1, #1048576	; 0x100000
 80006e0:	f04f 0e00 	mov.w	lr, #0
 80006e4:	3c01      	subs	r4, #1
 80006e6:	f300 80ab 	bgt.w	8000840 <__aeabi_dmul+0x238>
 80006ea:	f114 0f36 	cmn.w	r4, #54	; 0x36
 80006ee:	bfde      	ittt	le
 80006f0:	2000      	movle	r0, #0
 80006f2:	f001 4100 	andle.w	r1, r1, #2147483648	; 0x80000000
 80006f6:	bd70      	pople	{r4, r5, r6, pc}
 80006f8:	f1c4 0400 	rsb	r4, r4, #0
 80006fc:	3c20      	subs	r4, #32
 80006fe:	da35      	bge.n	800076c <__aeabi_dmul+0x164>
 8000700:	340c      	adds	r4, #12
 8000702:	dc1b      	bgt.n	800073c <__aeabi_dmul+0x134>
 8000704:	f104 0414 	add.w	r4, r4, #20
 8000708:	f1c4 0520 	rsb	r5, r4, #32
 800070c:	fa00 f305 	lsl.w	r3, r0, r5
 8000710:	fa20 f004 	lsr.w	r0, r0, r4
 8000714:	fa01 f205 	lsl.w	r2, r1, r5
 8000718:	ea40 0002 	orr.w	r0, r0, r2
 800071c:	f001 4200 	and.w	r2, r1, #2147483648	; 0x80000000
 8000720:	f021 4100 	bic.w	r1, r1, #2147483648	; 0x80000000
 8000724:	eb10 70d3 	adds.w	r0, r0, r3, lsr #31
 8000728:	fa21 f604 	lsr.w	r6, r1, r4
 800072c:	eb42 0106 	adc.w	r1, r2, r6
 8000730:	ea5e 0e43 	orrs.w	lr, lr, r3, lsl #1
 8000734:	bf08      	it	eq
 8000736:	ea20 70d3 	biceq.w	r0, r0, r3, lsr #31
 800073a:	bd70      	pop	{r4, r5, r6, pc}
 800073c:	f1c4 040c 	rsb	r4, r4, #12
 8000740:	f1c4 0520 	rsb	r5, r4, #32
 8000744:	fa00 f304 	lsl.w	r3, r0, r4
 8000748:	fa20 f005 	lsr.w	r0, r0, r5
 800074c:	fa01 f204 	lsl.w	r2, r1, r4
 8000750:	ea40 0002 	orr.w	r0, r0, r2
 8000754:	f001 4100 	and.w	r1, r1, #2147483648	; 0x80000000
 8000758:	eb10 70d3 	adds.w	r0, r0, r3, lsr #31
 800075c:	f141 0100 	adc.w	r1, r1, #0
 8000760:	ea5e 0e43 	orrs.w	lr, lr, r3, lsl #1
 8000764:	bf08      	it	eq
 8000766:	ea20 70d3 	biceq.w	r0, r0, r3, lsr #31
 800076a:	bd70      	pop	{r4, r5, r6, pc}
 800076c:	f1c4 0520 	rsb	r5, r4, #32
 8000770:	fa00 f205 	lsl.w	r2, r0, r5
 8000774:	ea4e 0e02 	orr.w	lr, lr, r2
 8000778:	fa20 f304 	lsr.w	r3, r0, r4
 800077c:	fa01 f205 	lsl.w	r2, r1, r5
 8000780:	ea43 0302 	orr.w	r3, r3, r2
 8000784:	fa21 f004 	lsr.w	r0, r1, r4
 8000788:	f001 4100 	and.w	r1, r1, #2147483648	; 0x80000000
 800078c:	fa21 f204 	lsr.w	r2, r1, r4
 8000790:	ea20 0002 	bic.w	r0, r0, r2
 8000794:	eb00 70d3 	add.w	r0, r0, r3, lsr #31
 8000798:	ea5e 0e43 	orrs.w	lr, lr, r3, lsl #1
 800079c:	bf08      	it	eq
 800079e:	ea20 70d3 	biceq.w	r0, r0, r3, lsr #31
 80007a2:	bd70      	pop	{r4, r5, r6, pc}
 80007a4:	f094 0f00 	teq	r4, #0
 80007a8:	d10f      	bne.n	80007ca <__aeabi_dmul+0x1c2>
 80007aa:	f001 4600 	and.w	r6, r1, #2147483648	; 0x80000000
 80007ae:	0040      	lsls	r0, r0, #1
 80007b0:	eb41 0101 	adc.w	r1, r1, r1
 80007b4:	f411 1f80 	tst.w	r1, #1048576	; 0x100000
 80007b8:	bf08      	it	eq
 80007ba:	3c01      	subeq	r4, #1
 80007bc:	d0f7      	beq.n	80007ae <__aeabi_dmul+0x1a6>
 80007be:	ea41 0106 	orr.w	r1, r1, r6
 80007c2:	f095 0f00 	teq	r5, #0
 80007c6:	bf18      	it	ne
 80007c8:	4770      	bxne	lr
 80007ca:	f003 4600 	and.w	r6, r3, #2147483648	; 0x80000000
 80007ce:	0052      	lsls	r2, r2, #1
 80007d0:	eb43 0303 	adc.w	r3, r3, r3
 80007d4:	f413 1f80 	tst.w	r3, #1048576	; 0x100000
 80007d8:	bf08      	it	eq
 80007da:	3d01      	subeq	r5, #1
 80007dc:	d0f7      	beq.n	80007ce <__aeabi_dmul+0x1c6>
 80007de:	ea43 0306 	orr.w	r3, r3, r6
 80007e2:	4770      	bx	lr
 80007e4:	ea94 0f0c 	teq	r4, ip
 80007e8:	ea0c 5513 	and.w	r5, ip, r3, lsr #20
 80007ec:	bf18      	it	ne
 80007ee:	ea95 0f0c 	teqne	r5, ip
 80007f2:	d00c      	beq.n	800080e <__aeabi_dmul+0x206>
 80007f4:	ea50 0641 	orrs.w	r6, r0, r1, lsl #1
 80007f8:	bf18      	it	ne
 80007fa:	ea52 0643 	orrsne.w	r6, r2, r3, lsl #1
 80007fe:	d1d1      	bne.n	80007a4 <__aeabi_dmul+0x19c>
 8000800:	ea81 0103 	eor.w	r1, r1, r3
 8000804:	f001 4100 	and.w	r1, r1, #2147483648	; 0x80000000
 8000808:	f04f 0000 	mov.w	r0, #0
 800080c:	bd70      	pop	{r4, r5, r6, pc}
 800080e:	ea50 0641 	orrs.w	r6, r0, r1, lsl #1
 8000812:	bf06      	itte	eq
 8000814:	4610      	moveq	r0, r2
 8000816:	4619      	moveq	r1, r3
 8000818:	ea52 0643 	orrsne.w	r6, r2, r3, lsl #1
 800081c:	d019      	beq.n	8000852 <__aeabi_dmul+0x24a>
 800081e:	ea94 0f0c 	teq	r4, ip
 8000822:	d102      	bne.n	800082a <__aeabi_dmul+0x222>
 8000824:	ea50 3601 	orrs.w	r6, r0, r1, lsl #12
 8000828:	d113      	bne.n	8000852 <__aeabi_dmul+0x24a>
 800082a:	ea95 0f0c 	teq	r5, ip
 800082e:	d105      	bne.n	800083c <__aeabi_dmul+0x234>
 8000830:	ea52 3603 	orrs.w	r6, r2, r3, lsl #12
 8000834:	bf1c      	itt	ne
 8000836:	4610      	movne	r0, r2
 8000838:	4619      	movne	r1, r3
 800083a:	d10a      	bne.n	8000852 <__aeabi_dmul+0x24a>
 800083c:	ea81 0103 	eor.w	r1, r1, r3
 8000840:	f001 4100 	and.w	r1, r1, #2147483648	; 0x80000000
 8000844:	f041 41fe 	orr.w	r1, r1, #2130706432	; 0x7f000000
 8000848:	f441 0170 	orr.w	r1, r1, #15728640	; 0xf00000
 800084c:	f04f 0000 	mov.w	r0, #0
 8000850:	bd70      	pop	{r4, r5, r6, pc}
 8000852:	f041 41fe 	orr.w	r1, r1, #2130706432	; 0x7f000000
 8000856:	f441 0178 	orr.w	r1, r1, #16252928	; 0xf80000
 800085a:	bd70      	pop	{r4, r5, r6, pc}

0800085c <__aeabi_ddiv>:
 800085c:	b570      	push	{r4, r5, r6, lr}
 800085e:	f04f 0cff 	mov.w	ip, #255	; 0xff
 8000862:	f44c 6ce0 	orr.w	ip, ip, #1792	; 0x700
 8000866:	ea1c 5411 	ands.w	r4, ip, r1, lsr #20
 800086a:	bf1d      	ittte	ne
 800086c:	ea1c 5513 	andsne.w	r5, ip, r3, lsr #20
 8000870:	ea94 0f0c 	teqne	r4, ip
 8000874:	ea95 0f0c 	teqne	r5, ip
 8000878:	f000 f8a7 	bleq	80009ca <__aeabi_ddiv+0x16e>
 800087c:	eba4 0405 	sub.w	r4, r4, r5
 8000880:	ea81 0e03 	eor.w	lr, r1, r3
 8000884:	ea52 3503 	orrs.w	r5, r2, r3, lsl #12
 8000888:	ea4f 3101 	mov.w	r1, r1, lsl #12
 800088c:	f000 8088 	beq.w	80009a0 <__aeabi_ddiv+0x144>
 8000890:	ea4f 3303 	mov.w	r3, r3, lsl #12
 8000894:	f04f 5580 	mov.w	r5, #268435456	; 0x10000000
 8000898:	ea45 1313 	orr.w	r3, r5, r3, lsr #4
 800089c:	ea43 6312 	orr.w	r3, r3, r2, lsr #24
 80008a0:	ea4f 2202 	mov.w	r2, r2, lsl #8
 80008a4:	ea45 1511 	orr.w	r5, r5, r1, lsr #4
 80008a8:	ea45 6510 	orr.w	r5, r5, r0, lsr #24
 80008ac:	ea4f 2600 	mov.w	r6, r0, lsl #8
 80008b0:	f00e 4100 	and.w	r1, lr, #2147483648	; 0x80000000
 80008b4:	429d      	cmp	r5, r3
 80008b6:	bf08      	it	eq
 80008b8:	4296      	cmpeq	r6, r2
 80008ba:	f144 04fd 	adc.w	r4, r4, #253	; 0xfd
 80008be:	f504 7440 	add.w	r4, r4, #768	; 0x300
 80008c2:	d202      	bcs.n	80008ca <__aeabi_ddiv+0x6e>
 80008c4:	085b      	lsrs	r3, r3, #1
 80008c6:	ea4f 0232 	mov.w	r2, r2, rrx
 80008ca:	1ab6      	subs	r6, r6, r2
 80008cc:	eb65 0503 	sbc.w	r5, r5, r3
 80008d0:	085b      	lsrs	r3, r3, #1
 80008d2:	ea4f 0232 	mov.w	r2, r2, rrx
 80008d6:	f44f 1080 	mov.w	r0, #1048576	; 0x100000
 80008da:	f44f 2c00 	mov.w	ip, #524288	; 0x80000
 80008de:	ebb6 0e02 	subs.w	lr, r6, r2
 80008e2:	eb75 0e03 	sbcs.w	lr, r5, r3
 80008e6:	bf22      	ittt	cs
 80008e8:	1ab6      	subcs	r6, r6, r2
 80008ea:	4675      	movcs	r5, lr
 80008ec:	ea40 000c 	orrcs.w	r0, r0, ip
 80008f0:	085b      	lsrs	r3, r3, #1
 80008f2:	ea4f 0232 	mov.w	r2, r2, rrx
 80008f6:	ebb6 0e02 	subs.w	lr, r6, r2
 80008fa:	eb75 0e03 	sbcs.w	lr, r5, r3
 80008fe:	bf22      	ittt	cs
 8000900:	1ab6      	subcs	r6, r6, r2
 8000902:	4675      	movcs	r5, lr
 8000904:	ea40 005c 	orrcs.w	r0, r0, ip, lsr #1
 8000908:	085b      	lsrs	r3, r3, #1
 800090a:	ea4f 0232 	mov.w	r2, r2, rrx
 800090e:	ebb6 0e02 	subs.w	lr, r6, r2
 8000912:	eb75 0e03 	sbcs.w	lr, r5, r3
 8000916:	bf22      	ittt	cs
 8000918:	1ab6      	subcs	r6, r6, r2
 800091a:	4675      	movcs	r5, lr
 800091c:	ea40 009c 	orrcs.w	r0, r0, ip, lsr #2
 8000920:	085b      	lsrs	r3, r3, #1
 8000922:	ea4f 0232 	mov.w	r2, r2, rrx
 8000926:	ebb6 0e02 	subs.w	lr, r6, r2
 800092a:	eb75 0e03 	sbcs.w	lr, r5, r3
 800092e:	bf22      	ittt	cs
 8000930:	1ab6      	subcs	r6, r6, r2
 8000932:	4675      	movcs	r5, lr
 8000934:	ea40 00dc 	orrcs.w	r0, r0, ip, lsr #3
 8000938:	ea55 0e06 	orrs.w	lr, r5, r6
 800093c:	d018      	beq.n	8000970 <__aeabi_ddiv+0x114>
 800093e:	ea4f 1505 	mov.w	r5, r5, lsl #4
 8000942:	ea45 7516 	orr.w	r5, r5, r6, lsr #28
 8000946:	ea4f 1606 	mov.w	r6, r6, lsl #4
 800094a:	ea4f 03c3 	mov.w	r3, r3, lsl #3
 800094e:	ea43 7352 	orr.w	r3, r3, r2, lsr #29
 8000952:	ea4f 02c2 	mov.w	r2, r2, lsl #3
 8000956:	ea5f 1c1c 	movs.w	ip, ip, lsr #4
 800095a:	d1c0      	bne.n	80008de <__aeabi_ddiv+0x82>
 800095c:	f411 1f80 	tst.w	r1, #1048576	; 0x100000
 8000960:	d10b      	bne.n	800097a <__aeabi_ddiv+0x11e>
 8000962:	ea41 0100 	orr.w	r1, r1, r0
 8000966:	f04f 0000 	mov.w	r0, #0
 800096a:	f04f 4c00 	mov.w	ip, #2147483648	; 0x80000000
 800096e:	e7b6      	b.n	80008de <__aeabi_ddiv+0x82>
 8000970:	f411 1f80 	tst.w	r1, #1048576	; 0x100000
 8000974:	bf04      	itt	eq
 8000976:	4301      	orreq	r1, r0
 8000978:	2000      	moveq	r0, #0
 800097a:	f1b4 0cfd 	subs.w	ip, r4, #253	; 0xfd
 800097e:	bf88      	it	hi
 8000980:	f5bc 6fe0 	cmphi.w	ip, #1792	; 0x700
 8000984:	f63f aeaf 	bhi.w	80006e6 <__aeabi_dmul+0xde>
 8000988:	ebb5 0c03 	subs.w	ip, r5, r3
 800098c:	bf04      	itt	eq
 800098e:	ebb6 0c02 	subseq.w	ip, r6, r2
 8000992:	ea5f 0c50 	movseq.w	ip, r0, lsr #1
 8000996:	f150 0000 	adcs.w	r0, r0, #0
 800099a:	eb41 5104 	adc.w	r1, r1, r4, lsl #20
 800099e:	bd70      	pop	{r4, r5, r6, pc}
 80009a0:	f00e 4e00 	and.w	lr, lr, #2147483648	; 0x80000000
 80009a4:	ea4e 3111 	orr.w	r1, lr, r1, lsr #12
 80009a8:	eb14 045c 	adds.w	r4, r4, ip, lsr #1
 80009ac:	bfc2      	ittt	gt
 80009ae:	ebd4 050c 	rsbsgt	r5, r4, ip
 80009b2:	ea41 5104 	orrgt.w	r1, r1, r4, lsl #20
 80009b6:	bd70      	popgt	{r4, r5, r6, pc}
 80009b8:	f441 1180 	orr.w	r1, r1, #1048576	; 0x100000
 80009bc:	f04f 0e00 	mov.w	lr, #0
 80009c0:	3c01      	subs	r4, #1
 80009c2:	e690      	b.n	80006e6 <__aeabi_dmul+0xde>
 80009c4:	ea45 0e06 	orr.w	lr, r5, r6
 80009c8:	e68d      	b.n	80006e6 <__aeabi_dmul+0xde>
 80009ca:	ea0c 5513 	and.w	r5, ip, r3, lsr #20
 80009ce:	ea94 0f0c 	teq	r4, ip
 80009d2:	bf08      	it	eq
 80009d4:	ea95 0f0c 	teqeq	r5, ip
 80009d8:	f43f af3b 	beq.w	8000852 <__aeabi_dmul+0x24a>
 80009dc:	ea94 0f0c 	teq	r4, ip
 80009e0:	d10a      	bne.n	80009f8 <__aeabi_ddiv+0x19c>
 80009e2:	ea50 3401 	orrs.w	r4, r0, r1, lsl #12
 80009e6:	f47f af34 	bne.w	8000852 <__aeabi_dmul+0x24a>
 80009ea:	ea95 0f0c 	teq	r5, ip
 80009ee:	f47f af25 	bne.w	800083c <__aeabi_dmul+0x234>
 80009f2:	4610      	mov	r0, r2
 80009f4:	4619      	mov	r1, r3
 80009f6:	e72c      	b.n	8000852 <__aeabi_dmul+0x24a>
 80009f8:	ea95 0f0c 	teq	r5, ip
 80009fc:	d106      	bne.n	8000a0c <__aeabi_ddiv+0x1b0>
 80009fe:	ea52 3503 	orrs.w	r5, r2, r3, lsl #12
 8000a02:	f43f aefd 	beq.w	8000800 <__aeabi_dmul+0x1f8>
 8000a06:	4610      	mov	r0, r2
 8000a08:	4619      	mov	r1, r3
 8000a0a:	e722      	b.n	8000852 <__aeabi_dmul+0x24a>
 8000a0c:	ea50 0641 	orrs.w	r6, r0, r1, lsl #1
 8000a10:	bf18      	it	ne
 8000a12:	ea52 0643 	orrsne.w	r6, r2, r3, lsl #1
 8000a16:	f47f aec5 	bne.w	80007a4 <__aeabi_dmul+0x19c>
 8000a1a:	ea50 0441 	orrs.w	r4, r0, r1, lsl #1
 8000a1e:	f47f af0d 	bne.w	800083c <__aeabi_dmul+0x234>
 8000a22:	ea52 0543 	orrs.w	r5, r2, r3, lsl #1
 8000a26:	f47f aeeb 	bne.w	8000800 <__aeabi_dmul+0x1f8>
 8000a2a:	e712      	b.n	8000852 <__aeabi_dmul+0x24a>

08000a2c <__gedf2>:
 8000a2c:	f04f 3cff 	mov.w	ip, #4294967295	; 0xffffffff
 8000a30:	e006      	b.n	8000a40 <__cmpdf2+0x4>
 8000a32:	bf00      	nop

08000a34 <__ledf2>:
 8000a34:	f04f 0c01 	mov.w	ip, #1
 8000a38:	e002      	b.n	8000a40 <__cmpdf2+0x4>
 8000a3a:	bf00      	nop

08000a3c <__cmpdf2>:
 8000a3c:	f04f 0c01 	mov.w	ip, #1
 8000a40:	f84d cd04 	str.w	ip, [sp, #-4]!
 8000a44:	ea4f 0c41 	mov.w	ip, r1, lsl #1
 8000a48:	ea7f 5c6c 	mvns.w	ip, ip, asr #21
 8000a4c:	ea4f 0c43 	mov.w	ip, r3, lsl #1
 8000a50:	bf18      	it	ne
 8000a52:	ea7f 5c6c 	mvnsne.w	ip, ip, asr #21
 8000a56:	d01b      	beq.n	8000a90 <__cmpdf2+0x54>
 8000a58:	b001      	add	sp, #4
 8000a5a:	ea50 0c41 	orrs.w	ip, r0, r1, lsl #1
 8000a5e:	bf0c      	ite	eq
 8000a60:	ea52 0c43 	orrseq.w	ip, r2, r3, lsl #1
 8000a64:	ea91 0f03 	teqne	r1, r3
 8000a68:	bf02      	ittt	eq
 8000a6a:	ea90 0f02 	teqeq	r0, r2
 8000a6e:	2000      	moveq	r0, #0
 8000a70:	4770      	bxeq	lr
 8000a72:	f110 0f00 	cmn.w	r0, #0
 8000a76:	ea91 0f03 	teq	r1, r3
 8000a7a:	bf58      	it	pl
 8000a7c:	4299      	cmppl	r1, r3
 8000a7e:	bf08      	it	eq
 8000a80:	4290      	cmpeq	r0, r2
 8000a82:	bf2c      	ite	cs
 8000a84:	17d8      	asrcs	r0, r3, #31
 8000a86:	ea6f 70e3 	mvncc.w	r0, r3, asr #31
 8000a8a:	f040 0001 	orr.w	r0, r0, #1
 8000a8e:	4770      	bx	lr
 8000a90:	ea4f 0c41 	mov.w	ip, r1, lsl #1
 8000a94:	ea7f 5c6c 	mvns.w	ip, ip, asr #21
 8000a98:	d102      	bne.n	8000aa0 <__cmpdf2+0x64>
 8000a9a:	ea50 3c01 	orrs.w	ip, r0, r1, lsl #12
 8000a9e:	d107      	bne.n	8000ab0 <__cmpdf2+0x74>
 8000aa0:	ea4f 0c43 	mov.w	ip, r3, lsl #1
 8000aa4:	ea7f 5c6c 	mvns.w	ip, ip, asr #21
 8000aa8:	d1d6      	bne.n	8000a58 <__cmpdf2+0x1c>
 8000aaa:	ea52 3c03 	orrs.w	ip, r2, r3, lsl #12
 8000aae:	d0d3      	beq.n	8000a58 <__cmpdf2+0x1c>
 8000ab0:	f85d 0b04 	ldr.w	r0, [sp], #4
 8000ab4:	4770      	bx	lr
 8000ab6:	bf00      	nop

08000ab8 <__aeabi_cdrcmple>:
 8000ab8:	4684      	mov	ip, r0
 8000aba:	4610      	mov	r0, r2
 8000abc:	4662      	mov	r2, ip
 8000abe:	468c      	mov	ip, r1
 8000ac0:	4619      	mov	r1, r3
 8000ac2:	4663      	mov	r3, ip
 8000ac4:	e000      	b.n	8000ac8 <__aeabi_cdcmpeq>
 8000ac6:	bf00      	nop

08000ac8 <__aeabi_cdcmpeq>:
 8000ac8:	b501      	push	{r0, lr}
 8000aca:	f7ff ffb7 	bl	8000a3c <__cmpdf2>
 8000ace:	2800      	cmp	r0, #0
 8000ad0:	bf48      	it	mi
 8000ad2:	f110 0f00 	cmnmi.w	r0, #0
 8000ad6:	bd01      	pop	{r0, pc}

08000ad8 <__aeabi_dcmpeq>:
 8000ad8:	f84d ed08 	str.w	lr, [sp, #-8]!
 8000adc:	f7ff fff4 	bl	8000ac8 <__aeabi_cdcmpeq>
 8000ae0:	bf0c      	ite	eq
 8000ae2:	2001      	moveq	r0, #1
 8000ae4:	2000      	movne	r0, #0
 8000ae6:	f85d fb08 	ldr.w	pc, [sp], #8
 8000aea:	bf00      	nop

08000aec <__aeabi_dcmplt>:
 8000aec:	f84d ed08 	str.w	lr, [sp, #-8]!
 8000af0:	f7ff ffea 	bl	8000ac8 <__aeabi_cdcmpeq>
 8000af4:	bf34      	ite	cc
 8000af6:	2001      	movcc	r0, #1
 8000af8:	2000      	movcs	r0, #0
 8000afa:	f85d fb08 	ldr.w	pc, [sp], #8
 8000afe:	bf00      	nop

08000b00 <__aeabi_dcmple>:
 8000b00:	f84d ed08 	str.w	lr, [sp, #-8]!
 8000b04:	f7ff ffe0 	bl	8000ac8 <__aeabi_cdcmpeq>
 8000b08:	bf94      	ite	ls
 8000b0a:	2001      	movls	r0, #1
 8000b0c:	2000      	movhi	r0, #0
 8000b0e:	f85d fb08 	ldr.w	pc, [sp], #8
 8000b12:	bf00      	nop

08000b14 <__aeabi_dcmpge>:
 8000b14:	f84d ed08 	str.w	lr, [sp, #-8]!
 8000b18:	f7ff ffce 	bl	8000ab8 <__aeabi_cdrcmple>
 8000b1c:	bf94      	ite	ls
 8000b1e:	2001      	movls	r0, #1
 8000b20:	2000      	movhi	r0, #0
 8000b22:	f85d fb08 	ldr.w	pc, [sp], #8
 8000b26:	bf00      	nop

08000b28 <__aeabi_dcmpgt>:
 8000b28:	f84d ed08 	str.w	lr, [sp, #-8]!
 8000b2c:	f7ff ffc4 	bl	8000ab8 <__aeabi_cdrcmple>
 8000b30:	bf34      	ite	cc
 8000b32:	2001      	movcc	r0, #1
 8000b34:	2000      	movcs	r0, #0
 8000b36:	f85d fb08 	ldr.w	pc, [sp], #8
 8000b3a:	bf00      	nop

08000b3c <__aeabi_dcmpun>:
 8000b3c:	ea4f 0c41 	mov.w	ip, r1, lsl #1
 8000b40:	ea7f 5c6c 	mvns.w	ip, ip, asr #21
 8000b44:	d102      	bne.n	8000b4c <__aeabi_dcmpun+0x10>
 8000b46:	ea50 3c01 	orrs.w	ip, r0, r1, lsl #12
 8000b4a:	d10a      	bne.n	8000b62 <__aeabi_dcmpun+0x26>
 8000b4c:	ea4f 0c43 	mov.w	ip, r3, lsl #1
 8000b50:	ea7f 5c6c 	mvns.w	ip, ip, asr #21
 8000b54:	d102      	bne.n	8000b5c <__aeabi_dcmpun+0x20>
 8000b56:	ea52 3c03 	orrs.w	ip, r2, r3, lsl #12
 8000b5a:	d102      	bne.n	8000b62 <__aeabi_dcmpun+0x26>
 8000b5c:	f04f 0000 	mov.w	r0, #0
 8000b60:	4770      	bx	lr
 8000b62:	f04f 0001 	mov.w	r0, #1
 8000b66:	4770      	bx	lr

08000b68 <__aeabi_d2iz>:
 8000b68:	ea4f 0241 	mov.w	r2, r1, lsl #1
 8000b6c:	f512 1200 	adds.w	r2, r2, #2097152	; 0x200000
 8000b70:	d215      	bcs.n	8000b9e <__aeabi_d2iz+0x36>
 8000b72:	d511      	bpl.n	8000b98 <__aeabi_d2iz+0x30>
 8000b74:	f46f 7378 	mvn.w	r3, #992	; 0x3e0
 8000b78:	ebb3 5262 	subs.w	r2, r3, r2, asr #21
 8000b7c:	d912      	bls.n	8000ba4 <__aeabi_d2iz+0x3c>
 8000b7e:	ea4f 23c1 	mov.w	r3, r1, lsl #11
 8000b82:	f043 4300 	orr.w	r3, r3, #2147483648	; 0x80000000
 8000b86:	ea43 5350 	orr.w	r3, r3, r0, lsr #21
 8000b8a:	f011 4f00 	tst.w	r1, #2147483648	; 0x80000000
 8000b8e:	fa23 f002 	lsr.w	r0, r3, r2
 8000b92:	bf18      	it	ne
 8000b94:	4240      	negne	r0, r0
 8000b96:	4770      	bx	lr
 8000b98:	f04f 0000 	mov.w	r0, #0
 8000b9c:	4770      	bx	lr
 8000b9e:	ea50 3001 	orrs.w	r0, r0, r1, lsl #12
 8000ba2:	d105      	bne.n	8000bb0 <__aeabi_d2iz+0x48>
 8000ba4:	f011 4000 	ands.w	r0, r1, #2147483648	; 0x80000000
 8000ba8:	bf08      	it	eq
 8000baa:	f06f 4000 	mvneq.w	r0, #2147483648	; 0x80000000
 8000bae:	4770      	bx	lr
 8000bb0:	f04f 0000 	mov.w	r0, #0
 8000bb4:	4770      	bx	lr
 8000bb6:	bf00      	nop

08000bb8 <__aeabi_d2f>:
 8000bb8:	ea4f 0241 	mov.w	r2, r1, lsl #1
 8000bbc:	f1b2 43e0 	subs.w	r3, r2, #1879048192	; 0x70000000
 8000bc0:	bf24      	itt	cs
 8000bc2:	f5b3 1c00 	subscs.w	ip, r3, #2097152	; 0x200000
 8000bc6:	f1dc 5cfe 	rsbscs	ip, ip, #532676608	; 0x1fc00000
 8000bca:	d90d      	bls.n	8000be8 <__aeabi_d2f+0x30>
 8000bcc:	f001 4c00 	and.w	ip, r1, #2147483648	; 0x80000000
 8000bd0:	ea4f 02c0 	mov.w	r2, r0, lsl #3
 8000bd4:	ea4c 7050 	orr.w	r0, ip, r0, lsr #29
 8000bd8:	f1b2 4f00 	cmp.w	r2, #2147483648	; 0x80000000
 8000bdc:	eb40 0083 	adc.w	r0, r0, r3, lsl #2
 8000be0:	bf08      	it	eq
 8000be2:	f020 0001 	biceq.w	r0, r0, #1
 8000be6:	4770      	bx	lr
 8000be8:	f011 4f80 	tst.w	r1, #1073741824	; 0x40000000
 8000bec:	d121      	bne.n	8000c32 <__aeabi_d2f+0x7a>
 8000bee:	f113 7238 	adds.w	r2, r3, #48234496	; 0x2e00000
 8000bf2:	bfbc      	itt	lt
 8000bf4:	f001 4000 	andlt.w	r0, r1, #2147483648	; 0x80000000
 8000bf8:	4770      	bxlt	lr
 8000bfa:	f441 1180 	orr.w	r1, r1, #1048576	; 0x100000
 8000bfe:	ea4f 5252 	mov.w	r2, r2, lsr #21
 8000c02:	f1c2 0218 	rsb	r2, r2, #24
 8000c06:	f1c2 0c20 	rsb	ip, r2, #32
 8000c0a:	fa10 f30c 	lsls.w	r3, r0, ip
 8000c0e:	fa20 f002 	lsr.w	r0, r0, r2
 8000c12:	bf18      	it	ne
 8000c14:	f040 0001 	orrne.w	r0, r0, #1
 8000c18:	ea4f 23c1 	mov.w	r3, r1, lsl #11
 8000c1c:	ea4f 23d3 	mov.w	r3, r3, lsr #11
 8000c20:	fa03 fc0c 	lsl.w	ip, r3, ip
 8000c24:	ea40 000c 	orr.w	r0, r0, ip
 8000c28:	fa23 f302 	lsr.w	r3, r3, r2
 8000c2c:	ea4f 0343 	mov.w	r3, r3, lsl #1
 8000c30:	e7cc      	b.n	8000bcc <__aeabi_d2f+0x14>
 8000c32:	ea7f 5362 	mvns.w	r3, r2, asr #21
 8000c36:	d107      	bne.n	8000c48 <__aeabi_d2f+0x90>
 8000c38:	ea50 3301 	orrs.w	r3, r0, r1, lsl #12
 8000c3c:	bf1e      	ittt	ne
 8000c3e:	f04f 40fe 	movne.w	r0, #2130706432	; 0x7f000000
 8000c42:	f440 0040 	orrne.w	r0, r0, #12582912	; 0xc00000
 8000c46:	4770      	bxne	lr
 8000c48:	f001 4000 	and.w	r0, r1, #2147483648	; 0x80000000
 8000c4c:	f040 40fe 	orr.w	r0, r0, #2130706432	; 0x7f000000
 8000c50:	f440 0000 	orr.w	r0, r0, #8388608	; 0x800000
 8000c54:	4770      	bx	lr
 8000c56:	bf00      	nop

08000c58 <__aeabi_uldivmod>:
 8000c58:	b953      	cbnz	r3, 8000c70 <__aeabi_uldivmod+0x18>
 8000c5a:	b94a      	cbnz	r2, 8000c70 <__aeabi_uldivmod+0x18>
 8000c5c:	2900      	cmp	r1, #0
 8000c5e:	bf08      	it	eq
 8000c60:	2800      	cmpeq	r0, #0
 8000c62:	bf1c      	itt	ne
 8000c64:	f04f 31ff 	movne.w	r1, #4294967295	; 0xffffffff
 8000c68:	f04f 30ff 	movne.w	r0, #4294967295	; 0xffffffff
 8000c6c:	f000 b96e 	b.w	8000f4c <__aeabi_idiv0>
 8000c70:	f1ad 0c08 	sub.w	ip, sp, #8
 8000c74:	e96d ce04 	strd	ip, lr, [sp, #-16]!
 8000c78:	f000 f806 	bl	8000c88 <__udivmoddi4>
 8000c7c:	f8dd e004 	ldr.w	lr, [sp, #4]
 8000c80:	e9dd 2302 	ldrd	r2, r3, [sp, #8]
 8000c84:	b004      	add	sp, #16
 8000c86:	4770      	bx	lr

08000c88 <__udivmoddi4>:
 8000c88:	e92d 47f0 	stmdb	sp!, {r4, r5, r6, r7, r8, r9, sl, lr}
 8000c8c:	9d08      	ldr	r5, [sp, #32]
 8000c8e:	4604      	mov	r4, r0
 8000c90:	468c      	mov	ip, r1
 8000c92:	2b00      	cmp	r3, #0
 8000c94:	f040 8083 	bne.w	8000d9e <__udivmoddi4+0x116>
 8000c98:	428a      	cmp	r2, r1
 8000c9a:	4617      	mov	r7, r2
 8000c9c:	d947      	bls.n	8000d2e <__udivmoddi4+0xa6>
 8000c9e:	fab2 f282 	clz	r2, r2
 8000ca2:	b142      	cbz	r2, 8000cb6 <__udivmoddi4+0x2e>
 8000ca4:	f1c2 0020 	rsb	r0, r2, #32
 8000ca8:	fa24 f000 	lsr.w	r0, r4, r0
 8000cac:	4091      	lsls	r1, r2
 8000cae:	4097      	lsls	r7, r2
 8000cb0:	ea40 0c01 	orr.w	ip, r0, r1
 8000cb4:	4094      	lsls	r4, r2
 8000cb6:	ea4f 4817 	mov.w	r8, r7, lsr #16
 8000cba:	0c23      	lsrs	r3, r4, #16
 8000cbc:	fbbc f6f8 	udiv	r6, ip, r8
 8000cc0:	fa1f fe87 	uxth.w	lr, r7
 8000cc4:	fb08 c116 	mls	r1, r8, r6, ip
 8000cc8:	ea43 4301 	orr.w	r3, r3, r1, lsl #16
 8000ccc:	fb06 f10e 	mul.w	r1, r6, lr
 8000cd0:	4299      	cmp	r1, r3
 8000cd2:	d909      	bls.n	8000ce8 <__udivmoddi4+0x60>
 8000cd4:	18fb      	adds	r3, r7, r3
 8000cd6:	f106 30ff 	add.w	r0, r6, #4294967295	; 0xffffffff
 8000cda:	f080 8119 	bcs.w	8000f10 <__udivmoddi4+0x288>
 8000cde:	4299      	cmp	r1, r3
 8000ce0:	f240 8116 	bls.w	8000f10 <__udivmoddi4+0x288>
 8000ce4:	3e02      	subs	r6, #2
 8000ce6:	443b      	add	r3, r7
 8000ce8:	1a5b      	subs	r3, r3, r1
 8000cea:	b2a4      	uxth	r4, r4
 8000cec:	fbb3 f0f8 	udiv	r0, r3, r8
 8000cf0:	fb08 3310 	mls	r3, r8, r0, r3
 8000cf4:	ea44 4403 	orr.w	r4, r4, r3, lsl #16
 8000cf8:	fb00 fe0e 	mul.w	lr, r0, lr
 8000cfc:	45a6      	cmp	lr, r4
 8000cfe:	d909      	bls.n	8000d14 <__udivmoddi4+0x8c>
 8000d00:	193c      	adds	r4, r7, r4
 8000d02:	f100 33ff 	add.w	r3, r0, #4294967295	; 0xffffffff
 8000d06:	f080 8105 	bcs.w	8000f14 <__udivmoddi4+0x28c>
 8000d0a:	45a6      	cmp	lr, r4
 8000d0c:	f240 8102 	bls.w	8000f14 <__udivmoddi4+0x28c>
 8000d10:	3802      	subs	r0, #2
 8000d12:	443c      	add	r4, r7
 8000d14:	ea40 4006 	orr.w	r0, r0, r6, lsl #16
 8000d18:	eba4 040e 	sub.w	r4, r4, lr
 8000d1c:	2600      	movs	r6, #0
 8000d1e:	b11d      	cbz	r5, 8000d28 <__udivmoddi4+0xa0>
 8000d20:	40d4      	lsrs	r4, r2
 8000d22:	2300      	movs	r3, #0
 8000d24:	e9c5 4300 	strd	r4, r3, [r5]
 8000d28:	4631      	mov	r1, r6
 8000d2a:	e8bd 87f0 	ldmia.w	sp!, {r4, r5, r6, r7, r8, r9, sl, pc}
 8000d2e:	b902      	cbnz	r2, 8000d32 <__udivmoddi4+0xaa>
 8000d30:	deff      	udf	#255	; 0xff
 8000d32:	fab2 f282 	clz	r2, r2
 8000d36:	2a00      	cmp	r2, #0
 8000d38:	d150      	bne.n	8000ddc <__udivmoddi4+0x154>
 8000d3a:	1bcb      	subs	r3, r1, r7
 8000d3c:	ea4f 4e17 	mov.w	lr, r7, lsr #16
 8000d40:	fa1f f887 	uxth.w	r8, r7
 8000d44:	2601      	movs	r6, #1
 8000d46:	fbb3 fcfe 	udiv	ip, r3, lr
 8000d4a:	0c21      	lsrs	r1, r4, #16
 8000d4c:	fb0e 331c 	mls	r3, lr, ip, r3
 8000d50:	ea41 4103 	orr.w	r1, r1, r3, lsl #16
 8000d54:	fb08 f30c 	mul.w	r3, r8, ip
 8000d58:	428b      	cmp	r3, r1
 8000d5a:	d907      	bls.n	8000d6c <__udivmoddi4+0xe4>
 8000d5c:	1879      	adds	r1, r7, r1
 8000d5e:	f10c 30ff 	add.w	r0, ip, #4294967295	; 0xffffffff
 8000d62:	d202      	bcs.n	8000d6a <__udivmoddi4+0xe2>
 8000d64:	428b      	cmp	r3, r1
 8000d66:	f200 80e9 	bhi.w	8000f3c <__udivmoddi4+0x2b4>
 8000d6a:	4684      	mov	ip, r0
 8000d6c:	1ac9      	subs	r1, r1, r3
 8000d6e:	b2a3      	uxth	r3, r4
 8000d70:	fbb1 f0fe 	udiv	r0, r1, lr
 8000d74:	fb0e 1110 	mls	r1, lr, r0, r1
 8000d78:	ea43 4401 	orr.w	r4, r3, r1, lsl #16
 8000d7c:	fb08 f800 	mul.w	r8, r8, r0
 8000d80:	45a0      	cmp	r8, r4
 8000d82:	d907      	bls.n	8000d94 <__udivmoddi4+0x10c>
 8000d84:	193c      	adds	r4, r7, r4
 8000d86:	f100 33ff 	add.w	r3, r0, #4294967295	; 0xffffffff
 8000d8a:	d202      	bcs.n	8000d92 <__udivmoddi4+0x10a>
 8000d8c:	45a0      	cmp	r8, r4
 8000d8e:	f200 80d9 	bhi.w	8000f44 <__udivmoddi4+0x2bc>
 8000d92:	4618      	mov	r0, r3
 8000d94:	eba4 0408 	sub.w	r4, r4, r8
 8000d98:	ea40 400c 	orr.w	r0, r0, ip, lsl #16
 8000d9c:	e7bf      	b.n	8000d1e <__udivmoddi4+0x96>
 8000d9e:	428b      	cmp	r3, r1
 8000da0:	d909      	bls.n	8000db6 <__udivmoddi4+0x12e>
 8000da2:	2d00      	cmp	r5, #0
 8000da4:	f000 80b1 	beq.w	8000f0a <__udivmoddi4+0x282>
 8000da8:	2600      	movs	r6, #0
 8000daa:	e9c5 0100 	strd	r0, r1, [r5]
 8000dae:	4630      	mov	r0, r6
 8000db0:	4631      	mov	r1, r6
 8000db2:	e8bd 87f0 	ldmia.w	sp!, {r4, r5, r6, r7, r8, r9, sl, pc}
 8000db6:	fab3 f683 	clz	r6, r3
 8000dba:	2e00      	cmp	r6, #0
 8000dbc:	d14a      	bne.n	8000e54 <__udivmoddi4+0x1cc>
 8000dbe:	428b      	cmp	r3, r1
 8000dc0:	d302      	bcc.n	8000dc8 <__udivmoddi4+0x140>
 8000dc2:	4282      	cmp	r2, r0
 8000dc4:	f200 80b8 	bhi.w	8000f38 <__udivmoddi4+0x2b0>
 8000dc8:	1a84      	subs	r4, r0, r2
 8000dca:	eb61 0103 	sbc.w	r1, r1, r3
 8000dce:	2001      	movs	r0, #1
 8000dd0:	468c      	mov	ip, r1
 8000dd2:	2d00      	cmp	r5, #0
 8000dd4:	d0a8      	beq.n	8000d28 <__udivmoddi4+0xa0>
 8000dd6:	e9c5 4c00 	strd	r4, ip, [r5]
 8000dda:	e7a5      	b.n	8000d28 <__udivmoddi4+0xa0>
 8000ddc:	f1c2 0320 	rsb	r3, r2, #32
 8000de0:	fa20 f603 	lsr.w	r6, r0, r3
 8000de4:	4097      	lsls	r7, r2
 8000de6:	fa01 f002 	lsl.w	r0, r1, r2
 8000dea:	ea4f 4e17 	mov.w	lr, r7, lsr #16
 8000dee:	40d9      	lsrs	r1, r3
 8000df0:	4330      	orrs	r0, r6
 8000df2:	0c03      	lsrs	r3, r0, #16
 8000df4:	fbb1 f6fe 	udiv	r6, r1, lr
 8000df8:	fa1f f887 	uxth.w	r8, r7
 8000dfc:	fb0e 1116 	mls	r1, lr, r6, r1
 8000e00:	ea43 4301 	orr.w	r3, r3, r1, lsl #16
 8000e04:	fb06 f108 	mul.w	r1, r6, r8
 8000e08:	4299      	cmp	r1, r3
 8000e0a:	fa04 f402 	lsl.w	r4, r4, r2
 8000e0e:	d909      	bls.n	8000e24 <__udivmoddi4+0x19c>
 8000e10:	18fb      	adds	r3, r7, r3
 8000e12:	f106 3cff 	add.w	ip, r6, #4294967295	; 0xffffffff
 8000e16:	f080 808d 	bcs.w	8000f34 <__udivmoddi4+0x2ac>
 8000e1a:	4299      	cmp	r1, r3
 8000e1c:	f240 808a 	bls.w	8000f34 <__udivmoddi4+0x2ac>
 8000e20:	3e02      	subs	r6, #2
 8000e22:	443b      	add	r3, r7
 8000e24:	1a5b      	subs	r3, r3, r1
 8000e26:	b281      	uxth	r1, r0
 8000e28:	fbb3 f0fe 	udiv	r0, r3, lr
 8000e2c:	fb0e 3310 	mls	r3, lr, r0, r3
 8000e30:	ea41 4103 	orr.w	r1, r1, r3, lsl #16
 8000e34:	fb00 f308 	mul.w	r3, r0, r8
 8000e38:	428b      	cmp	r3, r1
 8000e3a:	d907      	bls.n	8000e4c <__udivmoddi4+0x1c4>
 8000e3c:	1879      	adds	r1, r7, r1
 8000e3e:	f100 3cff 	add.w	ip, r0, #4294967295	; 0xffffffff
 8000e42:	d273      	bcs.n	8000f2c <__udivmoddi4+0x2a4>
 8000e44:	428b      	cmp	r3, r1
 8000e46:	d971      	bls.n	8000f2c <__udivmoddi4+0x2a4>
 8000e48:	3802      	subs	r0, #2
 8000e4a:	4439      	add	r1, r7
 8000e4c:	1acb      	subs	r3, r1, r3
 8000e4e:	ea40 4606 	orr.w	r6, r0, r6, lsl #16
 8000e52:	e778      	b.n	8000d46 <__udivmoddi4+0xbe>
 8000e54:	f1c6 0c20 	rsb	ip, r6, #32
 8000e58:	fa03 f406 	lsl.w	r4, r3, r6
 8000e5c:	fa22 f30c 	lsr.w	r3, r2, ip
 8000e60:	431c      	orrs	r4, r3
 8000e62:	fa20 f70c 	lsr.w	r7, r0, ip
 8000e66:	fa01 f306 	lsl.w	r3, r1, r6
 8000e6a:	ea4f 4e14 	mov.w	lr, r4, lsr #16
 8000e6e:	fa21 f10c 	lsr.w	r1, r1, ip
 8000e72:	431f      	orrs	r7, r3
 8000e74:	0c3b      	lsrs	r3, r7, #16
 8000e76:	fbb1 f9fe 	udiv	r9, r1, lr
 8000e7a:	fa1f f884 	uxth.w	r8, r4
 8000e7e:	fb0e 1119 	mls	r1, lr, r9, r1
 8000e82:	ea43 4101 	orr.w	r1, r3, r1, lsl #16
 8000e86:	fb09 fa08 	mul.w	sl, r9, r8
 8000e8a:	458a      	cmp	sl, r1
 8000e8c:	fa02 f206 	lsl.w	r2, r2, r6
 8000e90:	fa00 f306 	lsl.w	r3, r0, r6
 8000e94:	d908      	bls.n	8000ea8 <__udivmoddi4+0x220>
 8000e96:	1861      	adds	r1, r4, r1
 8000e98:	f109 30ff 	add.w	r0, r9, #4294967295	; 0xffffffff
 8000e9c:	d248      	bcs.n	8000f30 <__udivmoddi4+0x2a8>
 8000e9e:	458a      	cmp	sl, r1
 8000ea0:	d946      	bls.n	8000f30 <__udivmoddi4+0x2a8>
 8000ea2:	f1a9 0902 	sub.w	r9, r9, #2
 8000ea6:	4421      	add	r1, r4
 8000ea8:	eba1 010a 	sub.w	r1, r1, sl
 8000eac:	b2bf      	uxth	r7, r7
 8000eae:	fbb1 f0fe 	udiv	r0, r1, lr
 8000eb2:	fb0e 1110 	mls	r1, lr, r0, r1
 8000eb6:	ea47 4701 	orr.w	r7, r7, r1, lsl #16
 8000eba:	fb00 f808 	mul.w	r8, r0, r8
 8000ebe:	45b8      	cmp	r8, r7
 8000ec0:	d907      	bls.n	8000ed2 <__udivmoddi4+0x24a>
 8000ec2:	19e7      	adds	r7, r4, r7
 8000ec4:	f100 31ff 	add.w	r1, r0, #4294967295	; 0xffffffff
 8000ec8:	d22e      	bcs.n	8000f28 <__udivmoddi4+0x2a0>
 8000eca:	45b8      	cmp	r8, r7
 8000ecc:	d92c      	bls.n	8000f28 <__udivmoddi4+0x2a0>
 8000ece:	3802      	subs	r0, #2
 8000ed0:	4427      	add	r7, r4
 8000ed2:	ea40 4009 	orr.w	r0, r0, r9, lsl #16
 8000ed6:	eba7 0708 	sub.w	r7, r7, r8
 8000eda:	fba0 8902 	umull	r8, r9, r0, r2
 8000ede:	454f      	cmp	r7, r9
 8000ee0:	46c6      	mov	lr, r8
 8000ee2:	4649      	mov	r1, r9
 8000ee4:	d31a      	bcc.n	8000f1c <__udivmoddi4+0x294>
 8000ee6:	d017      	beq.n	8000f18 <__udivmoddi4+0x290>
 8000ee8:	b15d      	cbz	r5, 8000f02 <__udivmoddi4+0x27a>
 8000eea:	ebb3 020e 	subs.w	r2, r3, lr
 8000eee:	eb67 0701 	sbc.w	r7, r7, r1
 8000ef2:	fa07 fc0c 	lsl.w	ip, r7, ip
 8000ef6:	40f2      	lsrs	r2, r6
 8000ef8:	ea4c 0202 	orr.w	r2, ip, r2
 8000efc:	40f7      	lsrs	r7, r6
 8000efe:	e9c5 2700 	strd	r2, r7, [r5]
 8000f02:	2600      	movs	r6, #0
 8000f04:	4631      	mov	r1, r6
 8000f06:	e8bd 87f0 	ldmia.w	sp!, {r4, r5, r6, r7, r8, r9, sl, pc}
 8000f0a:	462e      	mov	r6, r5
 8000f0c:	4628      	mov	r0, r5
 8000f0e:	e70b      	b.n	8000d28 <__udivmoddi4+0xa0>
 8000f10:	4606      	mov	r6, r0
 8000f12:	e6e9      	b.n	8000ce8 <__udivmoddi4+0x60>
 8000f14:	4618      	mov	r0, r3
 8000f16:	e6fd      	b.n	8000d14 <__udivmoddi4+0x8c>
 8000f18:	4543      	cmp	r3, r8
 8000f1a:	d2e5      	bcs.n	8000ee8 <__udivmoddi4+0x260>
 8000f1c:	ebb8 0e02 	subs.w	lr, r8, r2
 8000f20:	eb69 0104 	sbc.w	r1, r9, r4
 8000f24:	3801      	subs	r0, #1
 8000f26:	e7df      	b.n	8000ee8 <__udivmoddi4+0x260>
 8000f28:	4608      	mov	r0, r1
 8000f2a:	e7d2      	b.n	8000ed2 <__udivmoddi4+0x24a>
 8000f2c:	4660      	mov	r0, ip
 8000f2e:	e78d      	b.n	8000e4c <__udivmoddi4+0x1c4>
 8000f30:	4681      	mov	r9, r0
 8000f32:	e7b9      	b.n	8000ea8 <__udivmoddi4+0x220>
 8000f34:	4666      	mov	r6, ip
 8000f36:	e775      	b.n	8000e24 <__udivmoddi4+0x19c>
 8000f38:	4630      	mov	r0, r6
 8000f3a:	e74a      	b.n	8000dd2 <__udivmoddi4+0x14a>
 8000f3c:	f1ac 0c02 	sub.w	ip, ip, #2
 8000f40:	4439      	add	r1, r7
 8000f42:	e713      	b.n	8000d6c <__udivmoddi4+0xe4>
 8000f44:	3802      	subs	r0, #2
 8000f46:	443c      	add	r4, r7
 8000f48:	e724      	b.n	8000d94 <__udivmoddi4+0x10c>
 8000f4a:	bf00      	nop

08000f4c <__aeabi_idiv0>:
 8000f4c:	4770      	bx	lr
 8000f4e:	bf00      	nop

08000f50 <getImageDataDual>:
 8000f50:	4800      	ldr	r0, [pc, #0]	; (8000f54 <getImageDataDual+0x4>)
 8000f52:	4770      	bx	lr
 8000f54:	0800c86c 	.word	0x0800c86c

08000f58 <hsv2rgb.constprop.0>:
 8000f58:	b510      	push	{r4, lr}
 8000f5a:	ee07 1a90 	vmov	s15, r1
 8000f5e:	eddf 6a44 	vldr	s13, [pc, #272]	; 8001070 <hsv2rgb.constprop.0+0x118>
 8000f62:	ed9f 7a44 	vldr	s14, [pc, #272]	; 8001074 <hsv2rgb.constprop.0+0x11c>
 8000f66:	eef8 7ae7 	vcvt.f32.s32	s15, s15
 8000f6a:	ed2d 8b02 	vpush	{d8}
 8000f6e:	eec7 8aa6 	vdiv.f32	s17, s15, s13
 8000f72:	4604      	mov	r4, r0
 8000f74:	eef1 7a08 	vmov.f32	s15, #24	; 0x40c00000  6.0
 8000f78:	ee68 8aa7 	vmul.f32	s17, s17, s15
 8000f7c:	eeb0 8a40 	vmov.f32	s16, s0
 8000f80:	eeb0 0a68 	vmov.f32	s0, s17
 8000f84:	ee28 8a07 	vmul.f32	s16, s16, s14
 8000f88:	f00a fb52 	bl	800b630 <floorf>
 8000f8c:	eefd 7ac0 	vcvt.s32.f32	s15, s0
 8000f90:	ed9f 6a39 	vldr	s12, [pc, #228]	; 8001078 <hsv2rgb.constprop.0+0x120>
 8000f94:	4a39      	ldr	r2, [pc, #228]	; (800107c <hsv2rgb.constprop.0+0x124>)
 8000f96:	ee17 3a90 	vmov	r3, s15
 8000f9a:	ee07 3a10 	vmov	s14, r3
 8000f9e:	eef8 6ac7 	vcvt.f32.s32	s13, s14
 8000fa2:	eef7 7a00 	vmov.f32	s15, #112	; 0x3f800000  1.0
 8000fa6:	ee78 8ae6 	vsub.f32	s17, s17, s13
 8000faa:	eef0 6a67 	vmov.f32	s13, s15
 8000fae:	ee77 5ae8 	vsub.f32	s11, s15, s17
 8000fb2:	fb82 1203 	smull	r1, r2, r2, r3
 8000fb6:	eee8 6ac6 	vfms.f32	s13, s17, s12
 8000fba:	eba2 72e3 	sub.w	r2, r2, r3, asr #31
 8000fbe:	eb02 0242 	add.w	r2, r2, r2, lsl #1
 8000fc2:	eee5 7ac6 	vfms.f32	s15, s11, s12
 8000fc6:	eba3 0342 	sub.w	r3, r3, r2, lsl #1
 8000fca:	ed9f 7a2d 	vldr	s14, [pc, #180]	; 8001080 <hsv2rgb.constprop.0+0x128>
 8000fce:	ee68 6a26 	vmul.f32	s13, s16, s13
 8000fd2:	ee68 7a27 	vmul.f32	s15, s16, s15
 8000fd6:	ee28 7a07 	vmul.f32	s14, s16, s14
 8000fda:	2b05      	cmp	r3, #5
 8000fdc:	d804      	bhi.n	8000fe8 <hsv2rgb.constprop.0+0x90>
 8000fde:	e8df f003 	tbb	[pc, r3]
 8000fe2:	2609      	.short	0x2609
 8000fe4:	213d342b 	.word	0x213d342b
 8000fe8:	ed9f 7a26 	vldr	s14, [pc, #152]	; 8001084 <hsv2rgb.constprop.0+0x12c>
 8000fec:	eef0 7a47 	vmov.f32	s15, s14
 8000ff0:	eeb0 8a47 	vmov.f32	s16, s14
 8000ff4:	eddf 6a24 	vldr	s13, [pc, #144]	; 8001088 <hsv2rgb.constprop.0+0x130>
 8000ff8:	ee28 8a26 	vmul.f32	s16, s16, s13
 8000ffc:	ee67 7aa6 	vmul.f32	s15, s15, s13
 8001000:	eebd 8ac8 	vcvt.s32.f32	s16, s16
 8001004:	ee27 7a26 	vmul.f32	s14, s14, s13
 8001008:	ed84 8a00 	vstr	s16, [r4]
 800100c:	ecbd 8b02 	vpop	{d8}
 8001010:	eefd 7ae7 	vcvt.s32.f32	s15, s15
 8001014:	eebd 7ac7 	vcvt.s32.f32	s14, s14
 8001018:	4620      	mov	r0, r4
 800101a:	edc4 7a01 	vstr	s15, [r4, #4]
 800101e:	ed84 7a02 	vstr	s14, [r4, #8]
 8001022:	bd10      	pop	{r4, pc}
 8001024:	eef0 7a47 	vmov.f32	s15, s14
 8001028:	eeb0 7a66 	vmov.f32	s14, s13
 800102c:	e7e2      	b.n	8000ff4 <hsv2rgb.constprop.0+0x9c>
 800102e:	eef0 7a48 	vmov.f32	s15, s16
 8001032:	eeb0 8a66 	vmov.f32	s16, s13
 8001036:	e7dd      	b.n	8000ff4 <hsv2rgb.constprop.0+0x9c>
 8001038:	eef0 6a48 	vmov.f32	s13, s16
 800103c:	eeb0 8a47 	vmov.f32	s16, s14
 8001040:	eeb0 7a67 	vmov.f32	s14, s15
 8001044:	eef0 7a66 	vmov.f32	s15, s13
 8001048:	e7d4      	b.n	8000ff4 <hsv2rgb.constprop.0+0x9c>
 800104a:	eeb0 6a48 	vmov.f32	s12, s16
 800104e:	eef0 7a66 	vmov.f32	s15, s13
 8001052:	eeb0 8a47 	vmov.f32	s16, s14
 8001056:	eeb0 7a46 	vmov.f32	s14, s12
 800105a:	e7cb      	b.n	8000ff4 <hsv2rgb.constprop.0+0x9c>
 800105c:	eef0 6a48 	vmov.f32	s13, s16
 8001060:	eeb0 8a67 	vmov.f32	s16, s15
 8001064:	eef0 7a47 	vmov.f32	s15, s14
 8001068:	eeb0 7a66 	vmov.f32	s14, s13
 800106c:	e7c2      	b.n	8000ff4 <hsv2rgb.constprop.0+0x9c>
 800106e:	bf00      	nop
 8001070:	43b40000 	.word	0x43b40000
 8001074:	3c23d70a 	.word	0x3c23d70a
 8001078:	3f733333 	.word	0x3f733333
 800107c:	2aaaaaab 	.word	0x2aaaaaab
 8001080:	3d4cccd0 	.word	0x3d4cccd0
 8001084:	00000000 	.word	0x00000000
 8001088:	437f0000 	.word	0x437f0000

0800108c <paintLevels.constprop.0>:
 800108c:	e92d 43f0 	stmdb	sp!, {r4, r5, r6, r7, r8, r9, lr}
 8001090:	ed2d 8b08 	vpush	{d8-d11}
 8001094:	f8df 81d4 	ldr.w	r8, [pc, #468]	; 800126c <paintLevels.constprop.0+0x1e0>
 8001098:	b087      	sub	sp, #28
 800109a:	f8d8 1000 	ldr.w	r1, [r8]
 800109e:	eeb3 0a0e 	vmov.f32	s0, #62	; 0x41f00000  30.0
 80010a2:	a803      	add	r0, sp, #12
 80010a4:	f7ff ff58 	bl	8000f58 <hsv2rgb.constprop.0>
 80010a8:	f8bd 2014 	ldrh.w	r2, [sp, #20]
 80010ac:	f8bd 1010 	ldrh.w	r1, [sp, #16]
 80010b0:	f8bd 000c 	ldrh.w	r0, [sp, #12]
 80010b4:	f001 ff7a 	bl	8002fac <color_convertRGB_to16d>
 80010b8:	2400      	movs	r4, #0
 80010ba:	f3c0 2107 	ubfx	r1, r0, #8, #8
 80010be:	b2c2      	uxtb	r2, r0
 80010c0:	f361 0407 	bfi	r4, r1, #0, #8
 80010c4:	4b5f      	ldr	r3, [pc, #380]	; (8001244 <paintLevels.constprop.0+0x1b8>)
 80010c6:	f362 240f 	bfi	r4, r2, #8, #8
 80010ca:	f361 4417 	bfi	r4, r1, #16, #8
 80010ce:	f362 641f 	bfi	r4, r2, #24, #8
 80010d2:	f503 70e0 	add.w	r0, r3, #448	; 0x1c0
 80010d6:	f843 4b04 	str.w	r4, [r3], #4
 80010da:	4283      	cmp	r3, r0
 80010dc:	d1fb      	bne.n	80010d6 <paintLevels.constprop.0+0x4a>
 80010de:	4c5a      	ldr	r4, [pc, #360]	; (8001248 <paintLevels.constprop.0+0x1bc>)
 80010e0:	eddf aa5a 	vldr	s21, [pc, #360]	; 800124c <paintLevels.constprop.0+0x1c0>
 80010e4:	ed9f aa5a 	vldr	s20, [pc, #360]	; 8001250 <paintLevels.constprop.0+0x1c4>
 80010e8:	eddf 9a5a 	vldr	s19, [pc, #360]	; 8001254 <paintLevels.constprop.0+0x1c8>
 80010ec:	ed9f 9a5a 	vldr	s18, [pc, #360]	; 8001258 <paintLevels.constprop.0+0x1cc>
 80010f0:	4f5a      	ldr	r7, [pc, #360]	; (800125c <paintLevels.constprop.0+0x1d0>)
 80010f2:	eddf 8a5b 	vldr	s17, [pc, #364]	; 8001260 <paintLevels.constprop.0+0x1d4>
 80010f6:	f884 11fe 	strb.w	r1, [r4, #510]	; 0x1fe
 80010fa:	f884 21ff 	strb.w	r2, [r4, #511]	; 0x1ff
 80010fe:	f1a4 0674 	sub.w	r6, r4, #116	; 0x74
 8001102:	f1a4 0573 	sub.w	r5, r4, #115	; 0x73
 8001106:	f04f 093b 	mov.w	r9, #59	; 0x3b
 800110a:	edd8 7a00 	vldr	s15, [r8]
 800110e:	eef8 7ae7 	vcvt.f32.s32	s15, s15
 8001112:	eeb1 7a08 	vmov.f32	s14, #24	; 0x40c00000  6.0
 8001116:	ee87 ba8a 	vdiv.f32	s22, s15, s20
 800111a:	ee07 9a90 	vmov	s15, r9
 800111e:	ee2b ba07 	vmul.f32	s22, s22, s14
 8001122:	eeb8 8ae7 	vcvt.f32.s32	s16, s15
 8001126:	eeb0 0a4b 	vmov.f32	s0, s22
 800112a:	f00a fa81 	bl	800b630 <floorf>
 800112e:	eefd 7ac0 	vcvt.s32.f32	s15, s0
 8001132:	ee28 8a2a 	vmul.f32	s16, s16, s21
 8001136:	ee17 3a90 	vmov	r3, s15
 800113a:	ee07 3a10 	vmov	s14, r3
 800113e:	eeb8 7ac7 	vcvt.f32.s32	s14, s14
 8001142:	eef7 7a00 	vmov.f32	s15, #112	; 0x3f800000  1.0
 8001146:	ee3b ba47 	vsub.f32	s22, s22, s14
 800114a:	eeb0 7a67 	vmov.f32	s14, s15
 800114e:	ee77 6acb 	vsub.f32	s13, s15, s22
 8001152:	eeab 7a49 	vfms.f32	s14, s22, s18
 8001156:	fb87 1203 	smull	r1, r2, r7, r3
 800115a:	eba2 72e3 	sub.w	r2, r2, r3, asr #31
 800115e:	eee6 7ac9 	vfms.f32	s15, s13, s18
 8001162:	eb02 0242 	add.w	r2, r2, r2, lsl #1
 8001166:	eba3 0342 	sub.w	r3, r3, r2, lsl #1
 800116a:	ee68 6a07 	vmul.f32	s13, s16, s14
 800116e:	ee68 7a27 	vmul.f32	s15, s16, s15
 8001172:	ee28 7a29 	vmul.f32	s14, s16, s19
 8001176:	2b05      	cmp	r3, #5
 8001178:	d804      	bhi.n	8001184 <paintLevels.constprop.0+0xf8>
 800117a:	e8df f003 	tbb	[pc, r3]
 800117e:	5d09      	.short	0x5d09
 8001180:	3d424b54 	.word	0x3d424b54
 8001184:	ed9f 7a37 	vldr	s14, [pc, #220]	; 8001264 <paintLevels.constprop.0+0x1d8>
 8001188:	eef0 7a47 	vmov.f32	s15, s14
 800118c:	eeb0 8a47 	vmov.f32	s16, s14
 8001190:	ee27 7a28 	vmul.f32	s14, s14, s17
 8001194:	ee67 7aa8 	vmul.f32	s15, s15, s17
 8001198:	eebd 7ac7 	vcvt.s32.f32	s14, s14
 800119c:	eefd 7ae7 	vcvt.s32.f32	s15, s15
 80011a0:	ee17 3a10 	vmov	r3, s14
 80011a4:	ee28 8a28 	vmul.f32	s16, s16, s17
 80011a8:	b29a      	uxth	r2, r3
 80011aa:	eebd 8ac8 	vcvt.s32.f32	s16, s16
 80011ae:	ee17 3a90 	vmov	r3, s15
 80011b2:	b299      	uxth	r1, r3
 80011b4:	ee18 3a10 	vmov	r3, s16
 80011b8:	b298      	uxth	r0, r3
 80011ba:	f001 fef7 	bl	8002fac <color_convertRGB_to16d>
 80011be:	0a03      	lsrs	r3, r0, #8
 80011c0:	f805 0019 	strb.w	r0, [r5, r9, lsl #1]
 80011c4:	f806 3019 	strb.w	r3, [r6, r9, lsl #1]
 80011c8:	f109 0901 	add.w	r9, r9, #1
 80011cc:	f1b9 0f59 	cmp.w	r9, #89	; 0x59
 80011d0:	d19b      	bne.n	800110a <paintLevels.constprop.0+0x7e>
 80011d2:	f001 ffa5 	bl	8003120 <LCD_getWidth>
 80011d6:	4605      	mov	r5, r0
 80011d8:	f001 ffa4 	bl	8003124 <LCD_getHeight>
 80011dc:	4e22      	ldr	r6, [pc, #136]	; (8001268 <paintLevels.constprop.0+0x1dc>)
 80011de:	9401      	str	r4, [sp, #4]
 80011e0:	2100      	movs	r1, #0
 80011e2:	b283      	uxth	r3, r0
 80011e4:	b2aa      	uxth	r2, r5
 80011e6:	9600      	str	r6, [sp, #0]
 80011e8:	4608      	mov	r0, r1
 80011ea:	f002 f9a1 	bl	8003530 <LCD_fillRectDataTable>
 80011ee:	b007      	add	sp, #28
 80011f0:	ecbd 8b08 	vpop	{d8-d11}
 80011f4:	e8bd 83f0 	ldmia.w	sp!, {r4, r5, r6, r7, r8, r9, pc}
 80011f8:	eef0 7a47 	vmov.f32	s15, s14
 80011fc:	eeb0 7a66 	vmov.f32	s14, s13
 8001200:	e7c6      	b.n	8001190 <paintLevels.constprop.0+0x104>
 8001202:	eef0 6a48 	vmov.f32	s13, s16
 8001206:	eeb0 8a67 	vmov.f32	s16, s15
 800120a:	eef0 7a47 	vmov.f32	s15, s14
 800120e:	eeb0 7a66 	vmov.f32	s14, s13
 8001212:	e7bd      	b.n	8001190 <paintLevels.constprop.0+0x104>
 8001214:	eeb0 6a48 	vmov.f32	s12, s16
 8001218:	eef0 7a66 	vmov.f32	s15, s13
 800121c:	eeb0 8a47 	vmov.f32	s16, s14
 8001220:	eeb0 7a46 	vmov.f32	s14, s12
 8001224:	e7b4      	b.n	8001190 <paintLevels.constprop.0+0x104>
 8001226:	eef0 6a48 	vmov.f32	s13, s16
 800122a:	eeb0 8a47 	vmov.f32	s16, s14
 800122e:	eeb0 7a67 	vmov.f32	s14, s15
 8001232:	eef0 7a66 	vmov.f32	s15, s13
 8001236:	e7ab      	b.n	8001190 <paintLevels.constprop.0+0x104>
 8001238:	eef0 7a48 	vmov.f32	s15, s16
 800123c:	eeb0 8a66 	vmov.f32	s16, s13
 8001240:	e7a6      	b.n	8001190 <paintLevels.constprop.0+0x104>
 8001242:	bf00      	nop
 8001244:	2000402a 	.word	0x2000402a
 8001248:	20003fec 	.word	0x20003fec
 800124c:	3c23d70a 	.word	0x3c23d70a
 8001250:	43b40000 	.word	0x43b40000
 8001254:	3d4cccd0 	.word	0x3d4cccd0
 8001258:	3f733333 	.word	0x3f733333
 800125c:	2aaaaaab 	.word	0x2aaaaaab
 8001260:	437f0000 	.word	0x437f0000
 8001264:	00000000 	.word	0x00000000
 8001268:	20004708 	.word	0x20004708
 800126c:	20000004 	.word	0x20000004

08001270 <TIM1_TE1>:
 8001270:	4770      	bx	lr
 8001272:	bf00      	nop

08001274 <TIM1_TC2>:
 8001274:	4770      	bx	lr
 8001276:	bf00      	nop

08001278 <TIM1_HT2>:
 8001278:	4770      	bx	lr
 800127a:	bf00      	nop

0800127c <TIM1_TE2>:
 800127c:	4770      	bx	lr
 800127e:	bf00      	nop

08001280 <init_timers>:
 8001280:	4945      	ldr	r1, [pc, #276]	; (8001398 <init_timers+0x118>)
 8001282:	4a46      	ldr	r2, [pc, #280]	; (800139c <init_timers+0x11c>)
 8001284:	4b46      	ldr	r3, [pc, #280]	; (80013a0 <init_timers+0x120>)
 8001286:	4847      	ldr	r0, [pc, #284]	; (80013a4 <init_timers+0x124>)
 8001288:	b410      	push	{r4}
 800128a:	f44f 7491 	mov.w	r4, #290	; 0x122
 800128e:	62cc      	str	r4, [r1, #44]	; 0x2c
 8001290:	6b11      	ldr	r1, [r2, #48]	; 0x30
 8001292:	f441 0180 	orr.w	r1, r1, #4194304	; 0x400000
 8001296:	6311      	str	r1, [r2, #48]	; 0x30
 8001298:	6b12      	ldr	r2, [r2, #48]	; 0x30
 800129a:	6801      	ldr	r1, [r0, #0]
 800129c:	4842      	ldr	r0, [pc, #264]	; (80013a8 <init_timers+0x128>)
 800129e:	b083      	sub	sp, #12
 80012a0:	f402 0280 	and.w	r2, r2, #4194304	; 0x400000
 80012a4:	9201      	str	r2, [sp, #4]
 80012a6:	9a01      	ldr	r2, [sp, #4]
 80012a8:	681a      	ldr	r2, [r3, #0]
 80012aa:	f002 02c0 	and.w	r2, r2, #192	; 0xc0
 80012ae:	2a40      	cmp	r2, #64	; 0x40
 80012b0:	4a3e      	ldr	r2, [pc, #248]	; (80013ac <init_timers+0x12c>)
 80012b2:	bf0b      	itete	eq
 80012b4:	60d9      	streq	r1, [r3, #12]
 80012b6:	6099      	strne	r1, [r3, #8]
 80012b8:	609a      	streq	r2, [r3, #8]
 80012ba:	60da      	strne	r2, [r3, #12]
 80012bc:	4b38      	ldr	r3, [pc, #224]	; (80013a0 <init_timers+0x120>)
 80012be:	493c      	ldr	r1, [pc, #240]	; (80013b0 <init_timers+0x130>)
 80012c0:	685a      	ldr	r2, [r3, #4]
 80012c2:	0c12      	lsrs	r2, r2, #16
 80012c4:	0412      	lsls	r2, r2, #16
 80012c6:	f442 7280 	orr.w	r2, r2, #256	; 0x100
 80012ca:	605a      	str	r2, [r3, #4]
 80012cc:	681a      	ldr	r2, [r3, #0]
 80012ce:	f042 0210 	orr.w	r2, r2, #16
 80012d2:	601a      	str	r2, [r3, #0]
 80012d4:	681a      	ldr	r2, [r3, #0]
 80012d6:	f042 0204 	orr.w	r2, r2, #4
 80012da:	601a      	str	r2, [r3, #0]
 80012dc:	681a      	ldr	r2, [r3, #0]
 80012de:	f042 0208 	orr.w	r2, r2, #8
 80012e2:	601a      	str	r2, [r3, #0]
 80012e4:	680b      	ldr	r3, [r1, #0]
 80012e6:	6802      	ldr	r2, [r0, #0]
 80012e8:	482d      	ldr	r0, [pc, #180]	; (80013a0 <init_timers+0x120>)
 80012ea:	f003 03c0 	and.w	r3, r3, #192	; 0xc0
 80012ee:	2b40      	cmp	r3, #64	; 0x40
 80012f0:	bf0c      	ite	eq
 80012f2:	60ca      	streq	r2, [r1, #12]
 80012f4:	608a      	strne	r2, [r1, #8]
 80012f6:	4b2f      	ldr	r3, [pc, #188]	; (80013b4 <init_timers+0x134>)
 80012f8:	4a2d      	ldr	r2, [pc, #180]	; (80013b0 <init_timers+0x130>)
 80012fa:	bf0c      	ite	eq
 80012fc:	608b      	streq	r3, [r1, #8]
 80012fe:	60cb      	strne	r3, [r1, #12]
 8001300:	6851      	ldr	r1, [r2, #4]
 8001302:	4b25      	ldr	r3, [pc, #148]	; (8001398 <init_timers+0x118>)
 8001304:	0c09      	lsrs	r1, r1, #16
 8001306:	0409      	lsls	r1, r1, #16
 8001308:	f441 7180 	orr.w	r1, r1, #256	; 0x100
 800130c:	6051      	str	r1, [r2, #4]
 800130e:	6811      	ldr	r1, [r2, #0]
 8001310:	f041 0110 	orr.w	r1, r1, #16
 8001314:	6011      	str	r1, [r2, #0]
 8001316:	6811      	ldr	r1, [r2, #0]
 8001318:	f041 0108 	orr.w	r1, r1, #8
 800131c:	6011      	str	r1, [r2, #0]
 800131e:	6811      	ldr	r1, [r2, #0]
 8001320:	f041 0104 	orr.w	r1, r1, #4
 8001324:	6011      	str	r1, [r2, #0]
 8001326:	6801      	ldr	r1, [r0, #0]
 8001328:	f041 0101 	orr.w	r1, r1, #1
 800132c:	6001      	str	r1, [r0, #0]
 800132e:	6811      	ldr	r1, [r2, #0]
 8001330:	f041 0101 	orr.w	r1, r1, #1
 8001334:	6011      	str	r1, [r2, #0]
 8001336:	68da      	ldr	r2, [r3, #12]
 8001338:	f442 7200 	orr.w	r2, r2, #512	; 0x200
 800133c:	60da      	str	r2, [r3, #12]
 800133e:	68da      	ldr	r2, [r3, #12]
 8001340:	f442 6280 	orr.w	r2, r2, #1024	; 0x400
 8001344:	60da      	str	r2, [r3, #12]
 8001346:	6a1a      	ldr	r2, [r3, #32]
 8001348:	f042 0201 	orr.w	r2, r2, #1
 800134c:	621a      	str	r2, [r3, #32]
 800134e:	6a1a      	ldr	r2, [r3, #32]
 8001350:	f042 0210 	orr.w	r2, r2, #16
 8001354:	621a      	str	r2, [r3, #32]
 8001356:	699a      	ldr	r2, [r3, #24]
 8001358:	f042 0208 	orr.w	r2, r2, #8
 800135c:	619a      	str	r2, [r3, #24]
 800135e:	699a      	ldr	r2, [r3, #24]
 8001360:	f442 6200 	orr.w	r2, r2, #2048	; 0x800
 8001364:	619a      	str	r2, [r3, #24]
 8001366:	6a1a      	ldr	r2, [r3, #32]
 8001368:	f042 0204 	orr.w	r2, r2, #4
 800136c:	621a      	str	r2, [r3, #32]
 800136e:	6a1a      	ldr	r2, [r3, #32]
 8001370:	f042 0240 	orr.w	r2, r2, #64	; 0x40
 8001374:	621a      	str	r2, [r3, #32]
 8001376:	681a      	ldr	r2, [r3, #0]
 8001378:	f042 0201 	orr.w	r2, r2, #1
 800137c:	601a      	str	r2, [r3, #0]
 800137e:	695a      	ldr	r2, [r3, #20]
 8001380:	f042 0201 	orr.w	r2, r2, #1
 8001384:	615a      	str	r2, [r3, #20]
 8001386:	695a      	ldr	r2, [r3, #20]
 8001388:	f042 0202 	orr.w	r2, r2, #2
 800138c:	615a      	str	r2, [r3, #20]
 800138e:	b003      	add	sp, #12
 8001390:	f85d 4b04 	ldr.w	r4, [sp], #4
 8001394:	4770      	bx	lr
 8001396:	bf00      	nop
 8001398:	40010000 	.word	0x40010000
 800139c:	40023800 	.word	0x40023800
 80013a0:	40026428 	.word	0x40026428
 80013a4:	20000008 	.word	0x20000008
 80013a8:	2000000c 	.word	0x2000000c
 80013ac:	40010034 	.word	0x40010034
 80013b0:	40026440 	.word	0x40026440
 80013b4:	40010038 	.word	0x40010038

080013b8 <_write>:
 80013b8:	e92d 41f0 	stmdb	sp!, {r4, r5, r6, r7, r8, lr}
 80013bc:	780d      	ldrb	r5, [r1, #0]
 80013be:	b082      	sub	sp, #8
 80013c0:	4690      	mov	r8, r2
 80013c2:	b34d      	cbz	r5, 8001418 <_write+0x60>
 80013c4:	2a00      	cmp	r2, #0
 80013c6:	dd27      	ble.n	8001418 <_write+0x60>
 80013c8:	4e15      	ldr	r6, [pc, #84]	; (8001420 <_write+0x68>)
 80013ca:	460c      	mov	r4, r1
 80013cc:	188f      	adds	r7, r1, r2
 80013ce:	e004      	b.n	80013da <_write+0x22>
 80013d0:	f814 5f01 	ldrb.w	r5, [r4, #1]!
 80013d4:	b305      	cbz	r5, 8001418 <_write+0x60>
 80013d6:	42a7      	cmp	r7, r4
 80013d8:	d01e      	beq.n	8001418 <_write+0x60>
 80013da:	2d0d      	cmp	r5, #13
 80013dc:	f06f 437f 	mvn.w	r3, #4278190080	; 0xff000000
 80013e0:	f04f 0201 	mov.w	r2, #1
 80013e4:	f10d 0107 	add.w	r1, sp, #7
 80013e8:	4630      	mov	r0, r6
 80013ea:	d0f1      	beq.n	80013d0 <_write+0x18>
 80013ec:	f88d 5007 	strb.w	r5, [sp, #7]
 80013f0:	f005 fa2e 	bl	8006850 <HAL_UART_Transmit>
 80013f4:	7823      	ldrb	r3, [r4, #0]
 80013f6:	2b0a      	cmp	r3, #10
 80013f8:	d1ea      	bne.n	80013d0 <_write+0x18>
 80013fa:	250d      	movs	r5, #13
 80013fc:	f06f 437f 	mvn.w	r3, #4278190080	; 0xff000000
 8001400:	2201      	movs	r2, #1
 8001402:	f10d 0107 	add.w	r1, sp, #7
 8001406:	4630      	mov	r0, r6
 8001408:	f88d 5007 	strb.w	r5, [sp, #7]
 800140c:	f005 fa20 	bl	8006850 <HAL_UART_Transmit>
 8001410:	f814 5f01 	ldrb.w	r5, [r4, #1]!
 8001414:	2d00      	cmp	r5, #0
 8001416:	d1de      	bne.n	80013d6 <_write+0x1e>
 8001418:	4640      	mov	r0, r8
 800141a:	b002      	add	sp, #8
 800141c:	e8bd 81f0 	ldmia.w	sp!, {r4, r5, r6, r7, r8, pc}
 8001420:	200046b8 	.word	0x200046b8

08001424 <getNextSampleLR>:
 8001424:	b5f0      	push	{r4, r5, r6, r7, lr}
 8001426:	4826      	ldr	r0, [pc, #152]	; (80014c0 <getNextSampleLR+0x9c>)
 8001428:	b083      	sub	sp, #12
 800142a:	2201      	movs	r2, #1
 800142c:	f44f 5100 	mov.w	r1, #8192	; 0x2000
 8001430:	f003 f82c 	bl	800448c <HAL_GPIO_WritePin>
 8001434:	4b23      	ldr	r3, [pc, #140]	; (80014c4 <getNextSampleLR+0xa0>)
 8001436:	681b      	ldr	r3, [r3, #0]
 8001438:	b94b      	cbnz	r3, 800144e <getNextSampleLR+0x2a>
 800143a:	461a      	mov	r2, r3
 800143c:	b292      	uxth	r2, r2
 800143e:	2000      	movs	r0, #0
 8001440:	b29b      	uxth	r3, r3
 8001442:	f362 000f 	bfi	r0, r2, #0, #16
 8001446:	f363 401f 	bfi	r0, r3, #16, #16
 800144a:	b003      	add	sp, #12
 800144c:	bdf0      	pop	{r4, r5, r6, r7, pc}
 800144e:	481c      	ldr	r0, [pc, #112]	; (80014c0 <getNextSampleLR+0x9c>)
 8001450:	2200      	movs	r2, #0
 8001452:	f44f 5100 	mov.w	r1, #8192	; 0x2000
 8001456:	f003 f819 	bl	800448c <HAL_GPIO_WritePin>
 800145a:	4a1b      	ldr	r2, [pc, #108]	; (80014c8 <getNextSampleLR+0xa4>)
 800145c:	481b      	ldr	r0, [pc, #108]	; (80014cc <getNextSampleLR+0xa8>)
 800145e:	491c      	ldr	r1, [pc, #112]	; (80014d0 <getNextSampleLR+0xac>)
 8001460:	6813      	ldr	r3, [r2, #0]
 8001462:	6800      	ldr	r0, [r0, #0]
 8001464:	6809      	ldr	r1, [r1, #0]
 8001466:	4403      	add	r3, r0
 8001468:	428b      	cmp	r3, r1
 800146a:	6013      	str	r3, [r2, #0]
 800146c:	bf24      	itt	cs
 800146e:	1a5b      	subcs	r3, r3, r1
 8001470:	6013      	strcs	r3, [r2, #0]
 8001472:	4918      	ldr	r1, [pc, #96]	; (80014d4 <getNextSampleLR+0xb0>)
 8001474:	4a18      	ldr	r2, [pc, #96]	; (80014d8 <getNextSampleLR+0xb4>)
 8001476:	680c      	ldr	r4, [r1, #0]
 8001478:	6811      	ldr	r1, [r2, #0]
 800147a:	0c9a      	lsrs	r2, r3, #18
 800147c:	1c55      	adds	r5, r2, #1
 800147e:	42a9      	cmp	r1, r5
 8001480:	eb04 0082 	add.w	r0, r4, r2, lsl #2
 8001484:	bf98      	it	ls
 8001486:	1a6d      	subls	r5, r5, r1
 8001488:	eb04 0c85 	add.w	ip, r4, r5, lsl #2
 800148c:	f3c3 118b 	ubfx	r1, r3, #6, #12
 8001490:	f9b0 7002 	ldrsh.w	r7, [r0, #2]
 8001494:	f934 6022 	ldrsh.w	r6, [r4, r2, lsl #2]
 8001498:	f9bc 3002 	ldrsh.w	r3, [ip, #2]
 800149c:	f934 2025 	ldrsh.w	r2, [r4, r5, lsl #2]
 80014a0:	f5c1 5080 	rsb	r0, r1, #4096	; 0x1000
 80014a4:	fb00 f406 	mul.w	r4, r0, r6
 80014a8:	fb00 f007 	mul.w	r0, r0, r7
 80014ac:	fb01 4202 	mla	r2, r1, r2, r4
 80014b0:	fb01 0303 	mla	r3, r1, r3, r0
 80014b4:	f342 320f 	sbfx	r2, r2, #12, #16
 80014b8:	f343 330f 	sbfx	r3, r3, #12, #16
 80014bc:	e7be      	b.n	800143c <getNextSampleLR+0x18>
 80014be:	bf00      	nop
 80014c0:	40020800 	.word	0x40020800
 80014c4:	20000338 	.word	0x20000338
 80014c8:	20000354 	.word	0x20000354
 80014cc:	20000014 	.word	0x20000014
 80014d0:	20000360 	.word	0x20000360
 80014d4:	20000364 	.word	0x20000364
 80014d8:	20000358 	.word	0x20000358

080014dc <AUDIO_Init>:
 80014dc:	b410      	push	{r4}
 80014de:	460c      	mov	r4, r1
 80014e0:	4613      	mov	r3, r2
 80014e2:	4601      	mov	r1, r0
 80014e4:	4622      	mov	r2, r4
 80014e6:	4802      	ldr	r0, [pc, #8]	; (80014f0 <AUDIO_Init+0x14>)
 80014e8:	f85d 4b04 	ldr.w	r4, [sp], #4
 80014ec:	f007 bf7a 	b.w	80093e4 <iprintf>
 80014f0:	08028a70 	.word	0x08028a70

080014f4 <AUDIO_OUT_Start>:
 80014f4:	b570      	push	{r4, r5, r6, lr}
 80014f6:	460a      	mov	r2, r1
 80014f8:	4605      	mov	r5, r0
 80014fa:	460c      	mov	r4, r1
 80014fc:	4601      	mov	r1, r0
 80014fe:	480b      	ldr	r0, [pc, #44]	; (800152c <AUDIO_OUT_Start+0x38>)
 8001500:	4e0b      	ldr	r6, [pc, #44]	; (8001530 <AUDIO_OUT_Start+0x3c>)
 8001502:	f007 ff6f 	bl	80093e4 <iprintf>
 8001506:	4b0b      	ldr	r3, [pc, #44]	; (8001534 <AUDIO_OUT_Start+0x40>)
 8001508:	490b      	ldr	r1, [pc, #44]	; (8001538 <AUDIO_OUT_Start+0x44>)
 800150a:	601d      	str	r5, [r3, #0]
 800150c:	08a0      	lsrs	r0, r4, #2
 800150e:	0483      	lsls	r3, r0, #18
 8001510:	6030      	str	r0, [r6, #0]
 8001512:	480a      	ldr	r0, [pc, #40]	; (800153c <AUDIO_OUT_Start+0x48>)
 8001514:	680a      	ldr	r2, [r1, #0]
 8001516:	6003      	str	r3, [r0, #0]
 8001518:	4d09      	ldr	r5, [pc, #36]	; (8001540 <AUDIO_OUT_Start+0x4c>)
 800151a:	480a      	ldr	r0, [pc, #40]	; (8001544 <AUDIO_OUT_Start+0x50>)
 800151c:	08e4      	lsrs	r4, r4, #3
 800151e:	3201      	adds	r2, #1
 8001520:	085b      	lsrs	r3, r3, #1
 8001522:	600a      	str	r2, [r1, #0]
 8001524:	602b      	str	r3, [r5, #0]
 8001526:	6004      	str	r4, [r0, #0]
 8001528:	bd70      	pop	{r4, r5, r6, pc}
 800152a:	bf00      	nop
 800152c:	08028a88 	.word	0x08028a88
 8001530:	20000358 	.word	0x20000358
 8001534:	20000364 	.word	0x20000364
 8001538:	20012868 	.word	0x20012868
 800153c:	20000360 	.word	0x20000360
 8001540:	20000354 	.word	0x20000354
 8001544:	2000035c 	.word	0x2000035c

08001548 <AUDIO_OUT_Periodic>:
 8001548:	e92d 41f0 	stmdb	sp!, {r4, r5, r6, r7, r8, lr}
 800154c:	4ca0      	ldr	r4, [pc, #640]	; (80017d0 <AUDIO_OUT_Periodic+0x288>)
 800154e:	4ba1      	ldr	r3, [pc, #644]	; (80017d4 <AUDIO_OUT_Periodic+0x28c>)
 8001550:	6822      	ldr	r2, [r4, #0]
 8001552:	681b      	ldr	r3, [r3, #0]
 8001554:	ed2d 8b02 	vpush	{d8}
 8001558:	3201      	adds	r2, #1
 800155a:	b082      	sub	sp, #8
 800155c:	6022      	str	r2, [r4, #0]
 800155e:	2b00      	cmp	r3, #0
 8001560:	d051      	beq.n	8001606 <AUDIO_OUT_Periodic+0xbe>
 8001562:	1ac3      	subs	r3, r0, r3
 8001564:	105b      	asrs	r3, r3, #1
 8001566:	4a9c      	ldr	r2, [pc, #624]	; (80017d8 <AUDIO_OUT_Periodic+0x290>)
 8001568:	3301      	adds	r3, #1
 800156a:	2b02      	cmp	r3, #2
 800156c:	6a57      	ldr	r7, [r2, #36]	; 0x24
 800156e:	d94f      	bls.n	8001610 <AUDIO_OUT_Periodic+0xc8>
 8001570:	088e      	lsrs	r6, r1, #2
 8001572:	f000 8108 	beq.w	8001786 <AUDIO_OUT_Periodic+0x23e>
 8001576:	2500      	movs	r5, #0
 8001578:	eb00 0686 	add.w	r6, r0, r6, lsl #2
 800157c:	462c      	mov	r4, r5
 800157e:	8802      	ldrh	r2, [r0, #0]
 8001580:	8843      	ldrh	r3, [r0, #2]
 8001582:	3004      	adds	r0, #4
 8001584:	fb02 f202 	mul.w	r2, r2, r2
 8001588:	fb03 f303 	mul.w	r3, r3, r3
 800158c:	42b0      	cmp	r0, r6
 800158e:	eb04 34e2 	add.w	r4, r4, r2, asr #15
 8001592:	eb05 35e3 	add.w	r5, r5, r3, asr #15
 8001596:	d1f2      	bne.n	800157e <AUDIO_OUT_Periodic+0x36>
 8001598:	ee07 1a90 	vmov	s15, r1
 800159c:	ed9f 7a8f 	vldr	s14, [pc, #572]	; 80017dc <AUDIO_OUT_Periodic+0x294>
 80015a0:	eef8 7a67 	vcvt.f32.u32	s15, s15
 80015a4:	eec7 8a27 	vdiv.f32	s17, s14, s15
 80015a8:	ee07 4a90 	vmov	s15, r4
 80015ac:	eeb8 0ae7 	vcvt.f32.s32	s0, s15
 80015b0:	ee20 0a28 	vmul.f32	s0, s0, s17
 80015b4:	eeb5 0a40 	vcmp.f32	s0, #0.0
 80015b8:	eef1 fa10 	vmrs	APSR_nzcv, fpscr
 80015bc:	eeb1 8ac0 	vsqrt.f32	s16, s0
 80015c0:	f100 80f6 	bmi.w	80017b0 <AUDIO_OUT_Periodic+0x268>
 80015c4:	ee07 5a90 	vmov	s15, r5
 80015c8:	eeb8 0ae7 	vcvt.f32.s32	s0, s15
 80015cc:	eefd 7ac8 	vcvt.s32.f32	s15, s16
 80015d0:	ee20 0a28 	vmul.f32	s0, s0, s17
 80015d4:	ee17 1a90 	vmov	r1, s15
 80015d8:	eeb5 0a40 	vcmp.f32	s0, #0.0
 80015dc:	eef1 fa10 	vmrs	APSR_nzcv, fpscr
 80015e0:	eeb1 8ac0 	vsqrt.f32	s16, s0
 80015e4:	f100 80df 	bmi.w	80017a6 <AUDIO_OUT_Periodic+0x25e>
 80015e8:	4a7d      	ldr	r2, [pc, #500]	; (80017e0 <AUDIO_OUT_Periodic+0x298>)
 80015ea:	6810      	ldr	r0, [r2, #0]
 80015ec:	4281      	cmp	r1, r0
 80015ee:	bfc8      	it	gt
 80015f0:	6011      	strgt	r1, [r2, #0]
 80015f2:	4a7c      	ldr	r2, [pc, #496]	; (80017e4 <AUDIO_OUT_Periodic+0x29c>)
 80015f4:	6811      	ldr	r1, [r2, #0]
 80015f6:	eefd 7ac8 	vcvt.s32.f32	s15, s16
 80015fa:	ee17 3a90 	vmov	r3, s15
 80015fe:	4299      	cmp	r1, r3
 8001600:	da01      	bge.n	8001606 <AUDIO_OUT_Periodic+0xbe>
 8001602:	edc2 7a00 	vstr	s15, [r2]
 8001606:	b002      	add	sp, #8
 8001608:	ecbd 8b02 	vpop	{d8}
 800160c:	e8bd 81f0 	ldmia.w	sp!, {r4, r5, r6, r7, r8, pc}
 8001610:	4e75      	ldr	r6, [pc, #468]	; (80017e8 <AUDIO_OUT_Periodic+0x2a0>)
 8001612:	4c76      	ldr	r4, [pc, #472]	; (80017ec <AUDIO_OUT_Periodic+0x2a4>)
 8001614:	8832      	ldrh	r2, [r6, #0]
 8001616:	f8d4 c000 	ldr.w	ip, [r4]
 800161a:	4d75      	ldr	r5, [pc, #468]	; (80017f0 <AUDIO_OUT_Periodic+0x2a8>)
 800161c:	b2bb      	uxth	r3, r7
 800161e:	1a9a      	subs	r2, r3, r2
 8001620:	b292      	uxth	r2, r2
 8001622:	f10c 0701 	add.w	r7, ip, #1
 8001626:	f845 202c 	str.w	r2, [r5, ip, lsl #2]
 800162a:	2f02      	cmp	r7, #2
 800162c:	bfc8      	it	gt
 800162e:	2200      	movgt	r2, #0
 8001630:	6027      	str	r7, [r4, #0]
 8001632:	bfc8      	it	gt
 8001634:	6022      	strgt	r2, [r4, #0]
 8001636:	e9d5 2400 	ldrd	r2, r4, [r5]
 800163a:	42a2      	cmp	r2, r4
 800163c:	68ad      	ldr	r5, [r5, #8]
 800163e:	8033      	strh	r3, [r6, #0]
 8001640:	f340 8094 	ble.w	800176c <AUDIO_OUT_Periodic+0x224>
 8001644:	42ac      	cmp	r4, r5
 8001646:	f2c0 8099 	blt.w	800177c <AUDIO_OUT_Periodic+0x234>
 800164a:	2c00      	cmp	r4, #0
 800164c:	d17a      	bne.n	8001744 <AUDIO_OUT_Periodic+0x1fc>
 800164e:	4d69      	ldr	r5, [pc, #420]	; (80017f4 <AUDIO_OUT_Periodic+0x2ac>)
 8001650:	4a69      	ldr	r2, [pc, #420]	; (80017f8 <AUDIO_OUT_Periodic+0x2b0>)
 8001652:	682e      	ldr	r6, [r5, #0]
 8001654:	edd2 6a00 	vldr	s13, [r2]
 8001658:	4a68      	ldr	r2, [pc, #416]	; (80017fc <AUDIO_OUT_Periodic+0x2b4>)
 800165a:	ed9f 6a69 	vldr	s12, [pc, #420]	; 8001800 <AUDIO_OUT_Periodic+0x2b8>
 800165e:	8812      	ldrh	r2, [r2, #0]
 8001660:	4d68      	ldr	r5, [pc, #416]	; (8001804 <AUDIO_OUT_Periodic+0x2bc>)
 8001662:	1a9a      	subs	r2, r3, r2
 8001664:	b292      	uxth	r2, r2
 8001666:	ee07 2a90 	vmov	s15, r2
 800166a:	eef8 7a67 	vcvt.f32.u32	s15, s15
 800166e:	682d      	ldr	r5, [r5, #0]
 8001670:	ee87 7a86 	vdiv.f32	s14, s15, s12
 8001674:	ee67 7a26 	vmul.f32	s15, s14, s13
 8001678:	eefd 7ae7 	vcvt.s32.f32	s15, s15
 800167c:	ee17 2a90 	vmov	r2, s15
 8001680:	1952      	adds	r2, r2, r5
 8001682:	4d61      	ldr	r5, [pc, #388]	; (8001808 <AUDIO_OUT_Periodic+0x2c0>)
 8001684:	682b      	ldr	r3, [r5, #0]
 8001686:	bf48      	it	mi
 8001688:	1992      	addmi	r2, r2, r6
 800168a:	2b00      	cmp	r3, #0
 800168c:	d04c      	beq.n	8001728 <AUDIO_OUT_Periodic+0x1e0>
 800168e:	f8df c1a0 	ldr.w	ip, [pc, #416]	; 8001830 <AUDIO_OUT_Periodic+0x2e8>
 8001692:	2c00      	cmp	r4, #0
 8001694:	d041      	beq.n	800171a <AUDIO_OUT_Periodic+0x1d2>
 8001696:	4c5d      	ldr	r4, [pc, #372]	; (800180c <AUDIO_OUT_Periodic+0x2c4>)
 8001698:	f8dc 3000 	ldr.w	r3, [ip]
 800169c:	6824      	ldr	r4, [r4, #0]
 800169e:	1ad3      	subs	r3, r2, r3
 80016a0:	429c      	cmp	r4, r3
 80016a2:	da02      	bge.n	80016aa <AUDIO_OUT_Periodic+0x162>
 80016a4:	1b9b      	subs	r3, r3, r6
 80016a6:	429c      	cmp	r4, r3
 80016a8:	dbfc      	blt.n	80016a4 <AUDIO_OUT_Periodic+0x15c>
 80016aa:	4267      	negs	r7, r4
 80016ac:	429f      	cmp	r7, r3
 80016ae:	dd02      	ble.n	80016b6 <AUDIO_OUT_Periodic+0x16e>
 80016b0:	4433      	add	r3, r6
 80016b2:	429f      	cmp	r7, r3
 80016b4:	dcfc      	bgt.n	80016b0 <AUDIO_OUT_Periodic+0x168>
 80016b6:	eba2 0e04 	sub.w	lr, r2, r4
 80016ba:	f8df 8178 	ldr.w	r8, [pc, #376]	; 8001834 <AUDIO_OUT_Periodic+0x2ec>
 80016be:	eb04 74d4 	add.w	r4, r4, r4, lsr #31
 80016c2:	ebbe 0f64 	cmp.w	lr, r4, asr #1
 80016c6:	f8c8 e000 	str.w	lr, [r8]
 80016ca:	dc04      	bgt.n	80016d6 <AUDIO_OUT_Periodic+0x18e>
 80016cc:	eb07 77d7 	add.w	r7, r7, r7, lsr #31
 80016d0:	ebbe 0f67 	cmp.w	lr, r7, asr #1
 80016d4:	da5b      	bge.n	800178e <AUDIO_OUT_Periodic+0x246>
 80016d6:	4b4e      	ldr	r3, [pc, #312]	; (8001810 <AUDIO_OUT_Periodic+0x2c8>)
 80016d8:	ed9f 6a49 	vldr	s12, [pc, #292]	; 8001800 <AUDIO_OUT_Periodic+0x2b8>
 80016dc:	edd3 7a00 	vldr	s15, [r3]
 80016e0:	ed9f 7a4c 	vldr	s14, [pc, #304]	; 8001814 <AUDIO_OUT_Periodic+0x2cc>
 80016e4:	eddf 5a4c 	vldr	s11, [pc, #304]	; 8001818 <AUDIO_OUT_Periodic+0x2d0>
 80016e8:	4b4c      	ldr	r3, [pc, #304]	; (800181c <AUDIO_OUT_Periodic+0x2d4>)
 80016ea:	4f4d      	ldr	r7, [pc, #308]	; (8001820 <AUDIO_OUT_Periodic+0x2d8>)
 80016ec:	681b      	ldr	r3, [r3, #0]
 80016ee:	4c4d      	ldr	r4, [pc, #308]	; (8001824 <AUDIO_OUT_Periodic+0x2dc>)
 80016f0:	f8df e134 	ldr.w	lr, [pc, #308]	; 8001828 <AUDIO_OUT_Periodic+0x2e0>
 80016f4:	eef8 7a67 	vcvt.f32.u32	s15, s15
 80016f8:	ee66 6aa5 	vmul.f32	s13, s13, s11
 80016fc:	ee67 7a86 	vmul.f32	s15, s15, s12
 8001700:	085b      	lsrs	r3, r3, #1
 8001702:	ee67 7a87 	vmul.f32	s15, s15, s14
 8001706:	f8ce 3000 	str.w	r3, [lr]
 800170a:	ee86 7aa7 	vdiv.f32	s14, s13, s15
 800170e:	eefd 7ac7 	vcvt.s32.f32	s15, s14
 8001712:	edc7 7a00 	vstr	s15, [r7]
 8001716:	edc4 7a00 	vstr	s15, [r4]
 800171a:	eb06 0346 	add.w	r3, r6, r6, lsl #1
 800171e:	009b      	lsls	r3, r3, #2
 8001720:	602b      	str	r3, [r5, #0]
 8001722:	f8cc 2000 	str.w	r2, [ip]
 8001726:	e723      	b.n	8001570 <AUDIO_OUT_Periodic+0x28>
 8001728:	4b3c      	ldr	r3, [pc, #240]	; (800181c <AUDIO_OUT_Periodic+0x2d4>)
 800172a:	4c3f      	ldr	r4, [pc, #252]	; (8001828 <AUDIO_OUT_Periodic+0x2e0>)
 800172c:	681b      	ldr	r3, [r3, #0]
 800172e:	f8df c100 	ldr.w	ip, [pc, #256]	; 8001830 <AUDIO_OUT_Periodic+0x2e8>
 8001732:	085b      	lsrs	r3, r3, #1
 8001734:	6023      	str	r3, [r4, #0]
 8001736:	eb06 0346 	add.w	r3, r6, r6, lsl #1
 800173a:	009b      	lsls	r3, r3, #2
 800173c:	602b      	str	r3, [r5, #0]
 800173e:	f8cc 2000 	str.w	r2, [ip]
 8001742:	e715      	b.n	8001570 <AUDIO_OUT_Periodic+0x28>
 8001744:	4a2b      	ldr	r2, [pc, #172]	; (80017f4 <AUDIO_OUT_Periodic+0x2ac>)
 8001746:	eddf 7a2e 	vldr	s15, [pc, #184]	; 8001800 <AUDIO_OUT_Periodic+0x2b8>
 800174a:	6816      	ldr	r6, [r2, #0]
 800174c:	4a2a      	ldr	r2, [pc, #168]	; (80017f8 <AUDIO_OUT_Periodic+0x2b0>)
 800174e:	ee07 6a10 	vmov	s14, r6
 8001752:	eeb8 7a47 	vcvt.f32.u32	s14, s14
 8001756:	ee27 7a27 	vmul.f32	s14, s14, s15
 800175a:	ee07 4a90 	vmov	s15, r4
 800175e:	eef8 7ae7 	vcvt.f32.s32	s15, s15
 8001762:	eec7 6a27 	vdiv.f32	s13, s14, s15
 8001766:	edc2 6a00 	vstr	s13, [r2]
 800176a:	e775      	b.n	8001658 <AUDIO_OUT_Periodic+0x110>
 800176c:	42aa      	cmp	r2, r5
 800176e:	da03      	bge.n	8001778 <AUDIO_OUT_Periodic+0x230>
 8001770:	42ac      	cmp	r4, r5
 8001772:	bfa8      	it	ge
 8001774:	462c      	movge	r4, r5
 8001776:	e768      	b.n	800164a <AUDIO_OUT_Periodic+0x102>
 8001778:	4614      	mov	r4, r2
 800177a:	e766      	b.n	800164a <AUDIO_OUT_Periodic+0x102>
 800177c:	42aa      	cmp	r2, r5
 800177e:	bfa8      	it	ge
 8001780:	462a      	movge	r2, r5
 8001782:	4614      	mov	r4, r2
 8001784:	e761      	b.n	800164a <AUDIO_OUT_Periodic+0x102>
 8001786:	bb01      	cbnz	r1, 80017ca <AUDIO_OUT_Periodic+0x282>
 8001788:	ed9f 8a28 	vldr	s16, [pc, #160]	; 800182c <AUDIO_OUT_Periodic+0x2e4>
 800178c:	e72c      	b.n	80015e8 <AUDIO_OUT_Periodic+0xa0>
 800178e:	4f25      	ldr	r7, [pc, #148]	; (8001824 <AUDIO_OUT_Periodic+0x2dc>)
 8001790:	f1be 0f00 	cmp.w	lr, #0
 8001794:	683c      	ldr	r4, [r7, #0]
 8001796:	bfb8      	it	lt
 8001798:	f10e 0eff 	addlt.w	lr, lr, #255	; 0xff
 800179c:	eb03 232e 	add.w	r3, r3, lr, asr #8
 80017a0:	1ae3      	subs	r3, r4, r3
 80017a2:	603b      	str	r3, [r7, #0]
 80017a4:	e7b9      	b.n	800171a <AUDIO_OUT_Periodic+0x1d2>
 80017a6:	9101      	str	r1, [sp, #4]
 80017a8:	f00a f86c 	bl	800b884 <sqrtf>
 80017ac:	9901      	ldr	r1, [sp, #4]
 80017ae:	e71b      	b.n	80015e8 <AUDIO_OUT_Periodic+0xa0>
 80017b0:	f00a f868 	bl	800b884 <sqrtf>
 80017b4:	ee07 5a90 	vmov	s15, r5
 80017b8:	eebd 7ac8 	vcvt.s32.f32	s14, s16
 80017bc:	eef8 7ae7 	vcvt.f32.s32	s15, s15
 80017c0:	ee17 1a10 	vmov	r1, s14
 80017c4:	ee27 0aa8 	vmul.f32	s0, s15, s17
 80017c8:	e706      	b.n	80015d8 <AUDIO_OUT_Periodic+0x90>
 80017ca:	4634      	mov	r4, r6
 80017cc:	4635      	mov	r5, r6
 80017ce:	e6e3      	b.n	8001598 <AUDIO_OUT_Periodic+0x50>
 80017d0:	20012938 	.word	0x20012938
 80017d4:	20000364 	.word	0x20000364
 80017d8:	40000400 	.word	0x40000400
 80017dc:	48000000 	.word	0x48000000
 80017e0:	2000033c 	.word	0x2000033c
 80017e4:	20000340 	.word	0x20000340
 80017e8:	20004604 	.word	0x20004604
 80017ec:	20000350 	.word	0x20000350
 80017f0:	2001292c 	.word	0x2001292c
 80017f4:	20000358 	.word	0x20000358
 80017f8:	20000348 	.word	0x20000348
 80017fc:	20012988 	.word	0x20012988
 8001800:	48c35000 	.word	0x48c35000
 8001804:	20012984 	.word	0x20012984
 8001808:	20000338 	.word	0x20000338
 800180c:	2000035c 	.word	0x2000035c
 8001810:	20003fcc 	.word	0x20003fcc
 8001814:	36800000 	.word	0x36800000
 8001818:	48800000 	.word	0x48800000
 800181c:	20000360 	.word	0x20000360
 8001820:	20003fd0 	.word	0x20003fd0
 8001824:	20000014 	.word	0x20000014
 8001828:	20000354 	.word	0x20000354
 800182c:	00000000 	.word	0x00000000
 8001830:	20000010 	.word	0x20000010
 8001834:	20000344 	.word	0x20000344

08001838 <readDataTim>:
 8001838:	e92d 4ff0 	stmdb	sp!, {r4, r5, r6, r7, r8, r9, sl, fp, lr}
 800183c:	0046      	lsls	r6, r0, #1
 800183e:	4d31      	ldr	r5, [pc, #196]	; (8001904 <readDataTim+0xcc>)
 8001840:	f8df 90c8 	ldr.w	r9, [pc, #200]	; 800190c <readDataTim+0xd4>
 8001844:	4c30      	ldr	r4, [pc, #192]	; (8001908 <readDataTim+0xd0>)
 8001846:	f8df 80c8 	ldr.w	r8, [pc, #200]	; 8001910 <readDataTim+0xd8>
 800184a:	b083      	sub	sp, #12
 800184c:	f506 7a80 	add.w	sl, r6, #256	; 0x100
 8001850:	f240 1723 	movw	r7, #291	; 0x123
 8001854:	f04f 0b00 	mov.w	fp, #0
 8001858:	e02d      	b.n	80018b6 <readDataTim+0x7e>
 800185a:	f5b3 7f92 	cmp.w	r3, #292	; 0x124
 800185e:	bfb9      	ittee	lt
 8001860:	60ab      	strlt	r3, [r5, #8]
 8001862:	fa1f fc83 	uxthlt.w	ip, r3
 8001866:	60af      	strge	r7, [r5, #8]
 8001868:	f240 1c23 	movwge	ip, #291	; 0x123
 800186c:	f9bd e006 	ldrsh.w	lr, [sp, #6]
 8001870:	68a0      	ldr	r0, [r4, #8]
 8001872:	f8d9 3000 	ldr.w	r3, [r9]
 8001876:	e9d4 1200 	ldrd	r1, r2, [r4]
 800187a:	f50e 4e00 	add.w	lr, lr, #32768	; 0x8000
 800187e:	fb07 fe0e 	mul.w	lr, r7, lr
 8001882:	ebae 4e00 	sub.w	lr, lr, r0, lsl #16
 8001886:	4471      	add	r1, lr
 8001888:	eba1 4000 	sub.w	r0, r1, r0, lsl #16
 800188c:	4402      	add	r2, r0
 800188e:	f823 c006 	strh.w	ip, [r3, r6]
 8001892:	e9c4 1200 	strd	r1, r2, [r4]
 8001896:	1412      	asrs	r2, r2, #16
 8001898:	d427      	bmi.n	80018ea <readDataTim+0xb2>
 800189a:	f5b2 7f92 	cmp.w	r2, #292	; 0x124
 800189e:	f8d8 3000 	ldr.w	r3, [r8]
 80018a2:	bfb5      	itete	lt
 80018a4:	60a2      	strlt	r2, [r4, #8]
 80018a6:	f240 1223 	movwge	r2, #291	; 0x123
 80018aa:	b292      	uxthlt	r2, r2
 80018ac:	60a7      	strge	r7, [r4, #8]
 80018ae:	539a      	strh	r2, [r3, r6]
 80018b0:	3602      	adds	r6, #2
 80018b2:	45b2      	cmp	sl, r6
 80018b4:	d022      	beq.n	80018fc <readDataTim+0xc4>
 80018b6:	f7ff fdb5 	bl	8001424 <getNextSampleLR>
 80018ba:	b201      	sxth	r1, r0
 80018bc:	68ab      	ldr	r3, [r5, #8]
 80018be:	682a      	ldr	r2, [r5, #0]
 80018c0:	9001      	str	r0, [sp, #4]
 80018c2:	f501 4100 	add.w	r1, r1, #32768	; 0x8000
 80018c6:	fb07 f101 	mul.w	r1, r7, r1
 80018ca:	eba1 4103 	sub.w	r1, r1, r3, lsl #16
 80018ce:	440a      	add	r2, r1
 80018d0:	eba2 4c03 	sub.w	ip, r2, r3, lsl #16
 80018d4:	686b      	ldr	r3, [r5, #4]
 80018d6:	4463      	add	r3, ip
 80018d8:	e9c5 2300 	strd	r2, r3, [r5]
 80018dc:	141b      	asrs	r3, r3, #16
 80018de:	d5bc      	bpl.n	800185a <readDataTim+0x22>
 80018e0:	f8c5 b008 	str.w	fp, [r5, #8]
 80018e4:	f04f 0c00 	mov.w	ip, #0
 80018e8:	e7c0      	b.n	800186c <readDataTim+0x34>
 80018ea:	f8d8 3000 	ldr.w	r3, [r8]
 80018ee:	f8c4 b008 	str.w	fp, [r4, #8]
 80018f2:	2200      	movs	r2, #0
 80018f4:	539a      	strh	r2, [r3, r6]
 80018f6:	3602      	adds	r6, #2
 80018f8:	45b2      	cmp	sl, r6
 80018fa:	d1dc      	bne.n	80018b6 <readDataTim+0x7e>
 80018fc:	b003      	add	sp, #12
 80018fe:	e8bd 8ff0 	ldmia.w	sp!, {r4, r5, r6, r7, r8, r9, sl, fp, pc}
 8001902:	bf00      	nop
 8001904:	200045f0 	.word	0x200045f0
 8001908:	200046fc 	.word	0x200046fc
 800190c:	20000008 	.word	0x20000008
 8001910:	2000000c 	.word	0x2000000c

08001914 <TIM1_TC1>:
 8001914:	4b23      	ldr	r3, [pc, #140]	; (80019a4 <TIM1_TC1+0x90>)
 8001916:	4a24      	ldr	r2, [pc, #144]	; (80019a8 <TIM1_TC1+0x94>)
 8001918:	6a59      	ldr	r1, [r3, #36]	; 0x24
 800191a:	6810      	ldr	r0, [r2, #0]
 800191c:	b430      	push	{r4, r5}
 800191e:	4d23      	ldr	r5, [pc, #140]	; (80019ac <TIM1_TC1+0x98>)
 8001920:	4c23      	ldr	r4, [pc, #140]	; (80019b0 <TIM1_TC1+0x9c>)
 8001922:	882b      	ldrh	r3, [r5, #0]
 8001924:	6822      	ldr	r2, [r4, #0]
 8001926:	b289      	uxth	r1, r1
 8001928:	8029      	strh	r1, [r5, #0]
 800192a:	1acb      	subs	r3, r1, r3
 800192c:	4921      	ldr	r1, [pc, #132]	; (80019b4 <TIM1_TC1+0xa0>)
 800192e:	4d22      	ldr	r5, [pc, #136]	; (80019b8 <TIM1_TC1+0xa4>)
 8001930:	b29b      	uxth	r3, r3
 8001932:	f841 3022 	str.w	r3, [r1, r2, lsl #2]
 8001936:	3201      	adds	r2, #1
 8001938:	2a02      	cmp	r2, #2
 800193a:	bfca      	itet	gt
 800193c:	2300      	movgt	r3, #0
 800193e:	6022      	strle	r2, [r4, #0]
 8001940:	6023      	strgt	r3, [r4, #0]
 8001942:	e9d1 2300 	ldrd	r2, r3, [r1]
 8001946:	0c80      	lsrs	r0, r0, #18
 8001948:	429a      	cmp	r2, r3
 800194a:	6889      	ldr	r1, [r1, #8]
 800194c:	6028      	str	r0, [r5, #0]
 800194e:	dd18      	ble.n	8001982 <TIM1_TC1+0x6e>
 8001950:	428b      	cmp	r3, r1
 8001952:	db22      	blt.n	800199a <TIM1_TC1+0x86>
 8001954:	b1e3      	cbz	r3, 8001990 <TIM1_TC1+0x7c>
 8001956:	f04f 6280 	mov.w	r2, #67108864	; 0x4000000
 800195a:	fbb2 f3f3 	udiv	r3, r2, r3
 800195e:	4a17      	ldr	r2, [pc, #92]	; (80019bc <TIM1_TC1+0xa8>)
 8001960:	4817      	ldr	r0, [pc, #92]	; (80019c0 <TIM1_TC1+0xac>)
 8001962:	6811      	ldr	r1, [r2, #0]
 8001964:	6003      	str	r3, [r0, #0]
 8001966:	2980      	cmp	r1, #128	; 0x80
 8001968:	bfca      	itet	gt
 800196a:	6813      	ldrgt	r3, [r2, #0]
 800196c:	2300      	movle	r3, #0
 800196e:	3b80      	subgt	r3, #128	; 0x80
 8001970:	6013      	str	r3, [r2, #0]
 8001972:	4a14      	ldr	r2, [pc, #80]	; (80019c4 <TIM1_TC1+0xb0>)
 8001974:	6813      	ldr	r3, [r2, #0]
 8001976:	bc30      	pop	{r4, r5}
 8001978:	3301      	adds	r3, #1
 800197a:	2080      	movs	r0, #128	; 0x80
 800197c:	6013      	str	r3, [r2, #0]
 800197e:	f7ff bf5b 	b.w	8001838 <readDataTim>
 8001982:	428a      	cmp	r2, r1
 8001984:	da07      	bge.n	8001996 <TIM1_TC1+0x82>
 8001986:	428b      	cmp	r3, r1
 8001988:	bfa8      	it	ge
 800198a:	460b      	movge	r3, r1
 800198c:	2b00      	cmp	r3, #0
 800198e:	d1e2      	bne.n	8001956 <TIM1_TC1+0x42>
 8001990:	f04f 6380 	mov.w	r3, #67108864	; 0x4000000
 8001994:	e7e3      	b.n	800195e <TIM1_TC1+0x4a>
 8001996:	4613      	mov	r3, r2
 8001998:	e7dc      	b.n	8001954 <TIM1_TC1+0x40>
 800199a:	428a      	cmp	r2, r1
 800199c:	4613      	mov	r3, r2
 800199e:	bfa8      	it	ge
 80019a0:	460b      	movge	r3, r1
 80019a2:	e7d7      	b.n	8001954 <TIM1_TC1+0x40>
 80019a4:	40000400 	.word	0x40000400
 80019a8:	20000354 	.word	0x20000354
 80019ac:	20012988 	.word	0x20012988
 80019b0:	2000034c 	.word	0x2000034c
 80019b4:	200046ac 	.word	0x200046ac
 80019b8:	20012984 	.word	0x20012984
 80019bc:	20000338 	.word	0x20000338
 80019c0:	20003fcc 	.word	0x20003fcc
 80019c4:	2001280c 	.word	0x2001280c

080019c8 <TIM1_HT1>:
 80019c8:	4907      	ldr	r1, [pc, #28]	; (80019e8 <TIM1_HT1+0x20>)
 80019ca:	4a08      	ldr	r2, [pc, #32]	; (80019ec <TIM1_HT1+0x24>)
 80019cc:	680b      	ldr	r3, [r1, #0]
 80019ce:	3301      	adds	r3, #1
 80019d0:	600b      	str	r3, [r1, #0]
 80019d2:	6813      	ldr	r3, [r2, #0]
 80019d4:	2b80      	cmp	r3, #128	; 0x80
 80019d6:	bfca      	itet	gt
 80019d8:	6813      	ldrgt	r3, [r2, #0]
 80019da:	2300      	movle	r3, #0
 80019dc:	3b80      	subgt	r3, #128	; 0x80
 80019de:	2000      	movs	r0, #0
 80019e0:	6013      	str	r3, [r2, #0]
 80019e2:	f7ff bf29 	b.w	8001838 <readDataTim>
 80019e6:	bf00      	nop
 80019e8:	20012808 	.word	0x20012808
 80019ec:	20000338 	.word	0x20000338

080019f0 <HAL_I2S_TxCpltCallback>:
 80019f0:	4b50      	ldr	r3, [pc, #320]	; (8001b34 <HAL_I2S_TxCpltCallback+0x144>)
 80019f2:	e92d 47f0 	stmdb	sp!, {r4, r5, r6, r7, r8, r9, sl, lr}
 80019f6:	4d50      	ldr	r5, [pc, #320]	; (8001b38 <HAL_I2S_TxCpltCallback+0x148>)
 80019f8:	6a59      	ldr	r1, [r3, #36]	; 0x24
 80019fa:	4c50      	ldr	r4, [pc, #320]	; (8001b3c <HAL_I2S_TxCpltCallback+0x14c>)
 80019fc:	882b      	ldrh	r3, [r5, #0]
 80019fe:	6822      	ldr	r2, [r4, #0]
 8001a00:	4f4f      	ldr	r7, [pc, #316]	; (8001b40 <HAL_I2S_TxCpltCallback+0x150>)
 8001a02:	b289      	uxth	r1, r1
 8001a04:	8029      	strh	r1, [r5, #0]
 8001a06:	1acb      	subs	r3, r1, r3
 8001a08:	494e      	ldr	r1, [pc, #312]	; (8001b44 <HAL_I2S_TxCpltCallback+0x154>)
 8001a0a:	6838      	ldr	r0, [r7, #0]
 8001a0c:	4d4e      	ldr	r5, [pc, #312]	; (8001b48 <HAL_I2S_TxCpltCallback+0x158>)
 8001a0e:	b29b      	uxth	r3, r3
 8001a10:	f841 3022 	str.w	r3, [r1, r2, lsl #2]
 8001a14:	3201      	adds	r2, #1
 8001a16:	2a02      	cmp	r2, #2
 8001a18:	bfca      	itet	gt
 8001a1a:	2300      	movgt	r3, #0
 8001a1c:	6022      	strle	r2, [r4, #0]
 8001a1e:	6023      	strgt	r3, [r4, #0]
 8001a20:	e9d1 2300 	ldrd	r2, r3, [r1]
 8001a24:	0c80      	lsrs	r0, r0, #18
 8001a26:	429a      	cmp	r2, r3
 8001a28:	6889      	ldr	r1, [r1, #8]
 8001a2a:	6028      	str	r0, [r5, #0]
 8001a2c:	dd74      	ble.n	8001b18 <HAL_I2S_TxCpltCallback+0x128>
 8001a2e:	428b      	cmp	r3, r1
 8001a30:	db7a      	blt.n	8001b28 <HAL_I2S_TxCpltCallback+0x138>
 8001a32:	2b00      	cmp	r3, #0
 8001a34:	d06d      	beq.n	8001b12 <HAL_I2S_TxCpltCallback+0x122>
 8001a36:	f04f 6280 	mov.w	r2, #67108864	; 0x4000000
 8001a3a:	fbb2 f3f3 	udiv	r3, r2, r3
 8001a3e:	4d43      	ldr	r5, [pc, #268]	; (8001b4c <HAL_I2S_TxCpltCallback+0x15c>)
 8001a40:	4943      	ldr	r1, [pc, #268]	; (8001b50 <HAL_I2S_TxCpltCallback+0x160>)
 8001a42:	682a      	ldr	r2, [r5, #0]
 8001a44:	600b      	str	r3, [r1, #0]
 8001a46:	2a80      	cmp	r2, #128	; 0x80
 8001a48:	bfc8      	it	gt
 8001a4a:	682b      	ldrgt	r3, [r5, #0]
 8001a4c:	4a41      	ldr	r2, [pc, #260]	; (8001b54 <HAL_I2S_TxCpltCallback+0x164>)
 8001a4e:	4c42      	ldr	r4, [pc, #264]	; (8001b58 <HAL_I2S_TxCpltCallback+0x168>)
 8001a50:	f8df 8118 	ldr.w	r8, [pc, #280]	; 8001b6c <HAL_I2S_TxCpltCallback+0x17c>
 8001a54:	bfcc      	ite	gt
 8001a56:	3b80      	subgt	r3, #128	; 0x80
 8001a58:	2300      	movle	r3, #0
 8001a5a:	602b      	str	r3, [r5, #0]
 8001a5c:	6813      	ldr	r3, [r2, #0]
 8001a5e:	3301      	adds	r3, #1
 8001a60:	6013      	str	r3, [r2, #0]
 8001a62:	f504 7600 	add.w	r6, r4, #512	; 0x200
 8001a66:	e007      	b.n	8001a78 <HAL_I2S_TxCpltCallback+0x88>
 8001a68:	461a      	mov	r2, r3
 8001a6a:	f8a4 2200 	strh.w	r2, [r4, #512]	; 0x200
 8001a6e:	f8a4 3202 	strh.w	r3, [r4, #514]	; 0x202
 8001a72:	3404      	adds	r4, #4
 8001a74:	42a6      	cmp	r6, r4
 8001a76:	d04a      	beq.n	8001b0e <HAL_I2S_TxCpltCallback+0x11e>
 8001a78:	2201      	movs	r2, #1
 8001a7a:	f44f 5100 	mov.w	r1, #8192	; 0x2000
 8001a7e:	4640      	mov	r0, r8
 8001a80:	f002 fd04 	bl	800448c <HAL_GPIO_WritePin>
 8001a84:	682b      	ldr	r3, [r5, #0]
 8001a86:	2b00      	cmp	r3, #0
 8001a88:	d0ee      	beq.n	8001a68 <HAL_I2S_TxCpltCallback+0x78>
 8001a8a:	2200      	movs	r2, #0
 8001a8c:	f44f 5100 	mov.w	r1, #8192	; 0x2000
 8001a90:	4640      	mov	r0, r8
 8001a92:	f002 fcfb 	bl	800448c <HAL_GPIO_WritePin>
 8001a96:	4931      	ldr	r1, [pc, #196]	; (8001b5c <HAL_I2S_TxCpltCallback+0x16c>)
 8001a98:	4b31      	ldr	r3, [pc, #196]	; (8001b60 <HAL_I2S_TxCpltCallback+0x170>)
 8001a9a:	4a32      	ldr	r2, [pc, #200]	; (8001b64 <HAL_I2S_TxCpltCallback+0x174>)
 8001a9c:	f8d1 c000 	ldr.w	ip, [r1]
 8001aa0:	6819      	ldr	r1, [r3, #0]
 8001aa2:	683b      	ldr	r3, [r7, #0]
 8001aa4:	6812      	ldr	r2, [r2, #0]
 8001aa6:	4830      	ldr	r0, [pc, #192]	; (8001b68 <HAL_I2S_TxCpltCallback+0x178>)
 8001aa8:	4419      	add	r1, r3
 8001aaa:	4291      	cmp	r1, r2
 8001aac:	6039      	str	r1, [r7, #0]
 8001aae:	bf28      	it	cs
 8001ab0:	1a89      	subcs	r1, r1, r2
 8001ab2:	f8d0 a000 	ldr.w	sl, [r0]
 8001ab6:	bf28      	it	cs
 8001ab8:	6039      	strcs	r1, [r7, #0]
 8001aba:	0c88      	lsrs	r0, r1, #18
 8001abc:	eb0c 0380 	add.w	r3, ip, r0, lsl #2
 8001ac0:	f100 0e01 	add.w	lr, r0, #1
 8001ac4:	f9b3 3002 	ldrsh.w	r3, [r3, #2]
 8001ac8:	f93c 0020 	ldrsh.w	r0, [ip, r0, lsl #2]
 8001acc:	f3c1 118b 	ubfx	r1, r1, #6, #12
 8001ad0:	45d6      	cmp	lr, sl
 8001ad2:	f5c1 5280 	rsb	r2, r1, #4096	; 0x1000
 8001ad6:	bf28      	it	cs
 8001ad8:	ebae 0e0a 	subcs.w	lr, lr, sl
 8001adc:	fb02 f903 	mul.w	r9, r2, r3
 8001ae0:	eb0c 038e 	add.w	r3, ip, lr, lsl #2
 8001ae4:	fb02 f000 	mul.w	r0, r2, r0
 8001ae8:	f9b3 3002 	ldrsh.w	r3, [r3, #2]
 8001aec:	f93c 202e 	ldrsh.w	r2, [ip, lr, lsl #2]
 8001af0:	fb01 9303 	mla	r3, r1, r3, r9
 8001af4:	fb01 0202 	mla	r2, r1, r2, r0
 8001af8:	f343 330f 	sbfx	r3, r3, #12, #16
 8001afc:	f342 320f 	sbfx	r2, r2, #12, #16
 8001b00:	f8a4 2200 	strh.w	r2, [r4, #512]	; 0x200
 8001b04:	f8a4 3202 	strh.w	r3, [r4, #514]	; 0x202
 8001b08:	3404      	adds	r4, #4
 8001b0a:	42a6      	cmp	r6, r4
 8001b0c:	d1b4      	bne.n	8001a78 <HAL_I2S_TxCpltCallback+0x88>
 8001b0e:	e8bd 87f0 	ldmia.w	sp!, {r4, r5, r6, r7, r8, r9, sl, pc}
 8001b12:	f04f 6380 	mov.w	r3, #67108864	; 0x4000000
 8001b16:	e792      	b.n	8001a3e <HAL_I2S_TxCpltCallback+0x4e>
 8001b18:	428a      	cmp	r2, r1
 8001b1a:	da03      	bge.n	8001b24 <HAL_I2S_TxCpltCallback+0x134>
 8001b1c:	428b      	cmp	r3, r1
 8001b1e:	bfa8      	it	ge
 8001b20:	460b      	movge	r3, r1
 8001b22:	e786      	b.n	8001a32 <HAL_I2S_TxCpltCallback+0x42>
 8001b24:	4613      	mov	r3, r2
 8001b26:	e784      	b.n	8001a32 <HAL_I2S_TxCpltCallback+0x42>
 8001b28:	428a      	cmp	r2, r1
 8001b2a:	4613      	mov	r3, r2
 8001b2c:	bfa8      	it	ge
 8001b2e:	460b      	movge	r3, r1
 8001b30:	e77f      	b.n	8001a32 <HAL_I2S_TxCpltCallback+0x42>
 8001b32:	bf00      	nop
 8001b34:	40000400 	.word	0x40000400
 8001b38:	20012988 	.word	0x20012988
 8001b3c:	2000034c 	.word	0x2000034c
 8001b40:	20000354 	.word	0x20000354
 8001b44:	200046ac 	.word	0x200046ac
 8001b48:	20012984 	.word	0x20012984
 8001b4c:	20000338 	.word	0x20000338
 8001b50:	20003fcc 	.word	0x20003fcc
 8001b54:	2001280c 	.word	0x2001280c
 8001b58:	200041ec 	.word	0x200041ec
 8001b5c:	20000364 	.word	0x20000364
 8001b60:	20000014 	.word	0x20000014
 8001b64:	20000360 	.word	0x20000360
 8001b68:	20000358 	.word	0x20000358
 8001b6c:	40020800 	.word	0x40020800

08001b70 <HAL_I2S_ErrorCallback>:
 8001b70:	4801      	ldr	r0, [pc, #4]	; (8001b78 <HAL_I2S_ErrorCallback+0x8>)
 8001b72:	f007 bcbd 	b.w	80094f0 <puts>
 8001b76:	bf00      	nop
 8001b78:	08028aa8 	.word	0x08028aa8

08001b7c <getLCD_Data>:
 8001b7c:	4b03      	ldr	r3, [pc, #12]	; (8001b8c <getLCD_Data+0x10>)
 8001b7e:	681b      	ldr	r3, [r3, #0]
 8001b80:	b90b      	cbnz	r3, 8001b86 <getLCD_Data+0xa>
 8001b82:	f002 b903 	b.w	8003d8c <getImageData>
 8001b86:	f7ff b9e3 	b.w	8000f50 <getImageDataDual>
 8001b8a:	bf00      	nop
 8001b8c:	20000000 	.word	0x20000000

08001b90 <tableSetup>:
 8001b90:	e92d 47f0 	stmdb	sp!, {r4, r5, r6, r7, r8, r9, sl, lr}
 8001b94:	a73c      	add	r7, pc, #240	; (adr r7, 8001c88 <tableSetup+0xf8>)
 8001b96:	e9d7 6700 	ldrd	r6, r7, [r7]
 8001b9a:	ed2d 8b08 	vpush	{d8-d11}
 8001b9e:	f8df a0f0 	ldr.w	sl, [pc, #240]	; 8001c90 <tableSetup+0x100>
 8001ba2:	eddf 9a35 	vldr	s19, [pc, #212]	; 8001c78 <tableSetup+0xe8>
 8001ba6:	ed9f ba35 	vldr	s22, [pc, #212]	; 8001c7c <tableSetup+0xec>
 8001baa:	eddf aa35 	vldr	s21, [pc, #212]	; 8001c80 <tableSetup+0xf0>
 8001bae:	eddf ba35 	vldr	s23, [pc, #212]	; 8001c84 <tableSetup+0xf4>
 8001bb2:	f04f 0900 	mov.w	r9, #0
 8001bb6:	ee07 9a90 	vmov	s15, r9
 8001bba:	eeb8 9ae7 	vcvt.f32.s32	s18, s15
 8001bbe:	2400      	movs	r4, #0
 8001bc0:	ee39 9a69 	vsub.f32	s18, s18, s19
 8001bc4:	46a0      	mov	r8, r4
 8001bc6:	ee29 aa09 	vmul.f32	s20, s18, s18
 8001bca:	4655      	mov	r5, sl
 8001bcc:	e01d      	b.n	8001c0a <tableSetup+0x7a>
 8001bce:	eef4 8ae7 	vcmpe.f32	s17, s15
 8001bd2:	eef1 fa10 	vmrs	APSR_nzcv, fpscr
 8001bd6:	dd38      	ble.n	8001c4a <tableSetup+0xba>
 8001bd8:	ee60 7a2b 	vmul.f32	s15, s0, s23
 8001bdc:	3401      	adds	r4, #1
 8001bde:	ee17 0a90 	vmov	r0, s15
 8001be2:	f7fe fcb9 	bl	8000558 <__aeabi_f2d>
 8001be6:	4632      	mov	r2, r6
 8001be8:	463b      	mov	r3, r7
 8001bea:	f7fe fe37 	bl	800085c <__aeabi_ddiv>
 8001bee:	f7fe ffbb 	bl	8000b68 <__aeabi_d2iz>
 8001bf2:	28fe      	cmp	r0, #254	; 0xfe
 8001bf4:	bfa8      	it	ge
 8001bf6:	20fe      	movge	r0, #254	; 0xfe
 8001bf8:	2801      	cmp	r0, #1
 8001bfa:	bfb8      	it	lt
 8001bfc:	2001      	movlt	r0, #1
 8001bfe:	3001      	adds	r0, #1
 8001c00:	2cf0      	cmp	r4, #240	; 0xf0
 8001c02:	7028      	strb	r0, [r5, #0]
 8001c04:	f105 0501 	add.w	r5, r5, #1
 8001c08:	d026      	beq.n	8001c58 <tableSetup+0xc8>
 8001c0a:	ee07 4a90 	vmov	s15, r4
 8001c0e:	eeb8 8ae7 	vcvt.f32.s32	s16, s15
 8001c12:	eeb0 0a4a 	vmov.f32	s0, s20
 8001c16:	ee38 8a69 	vsub.f32	s16, s16, s19
 8001c1a:	eea8 0a08 	vfma.f32	s0, s16, s16
 8001c1e:	eeb5 0a40 	vcmp.f32	s0, #0.0
 8001c22:	eef1 fa10 	vmrs	APSR_nzcv, fpscr
 8001c26:	eef1 8ac0 	vsqrt.f32	s17, s0
 8001c2a:	d420      	bmi.n	8001c6e <tableSetup+0xde>
 8001c2c:	eeb0 0a49 	vmov.f32	s0, s18
 8001c30:	eea8 0a0b 	vfma.f32	s0, s16, s22
 8001c34:	ee80 0a28 	vdiv.f32	s0, s0, s17
 8001c38:	f009 fd7e 	bl	800b738 <acosf>
 8001c3c:	eef4 8aea 	vcmpe.f32	s17, s21
 8001c40:	eef1 fa10 	vmrs	APSR_nzcv, fpscr
 8001c44:	eef3 7a0e 	vmov.f32	s15, #62	; 0x41f00000  30.0
 8001c48:	d4c1      	bmi.n	8001bce <tableSetup+0x3e>
 8001c4a:	3401      	adds	r4, #1
 8001c4c:	2cf0      	cmp	r4, #240	; 0xf0
 8001c4e:	f885 8000 	strb.w	r8, [r5]
 8001c52:	f105 0501 	add.w	r5, r5, #1
 8001c56:	d1d8      	bne.n	8001c0a <tableSetup+0x7a>
 8001c58:	f109 0901 	add.w	r9, r9, #1
 8001c5c:	f1b9 0ff0 	cmp.w	r9, #240	; 0xf0
 8001c60:	f10a 0af0 	add.w	sl, sl, #240	; 0xf0
 8001c64:	d1a7      	bne.n	8001bb6 <tableSetup+0x26>
 8001c66:	ecbd 8b08 	vpop	{d8-d11}
 8001c6a:	e8bd 87f0 	ldmia.w	sp!, {r4, r5, r6, r7, r8, r9, sl, pc}
 8001c6e:	f009 fe09 	bl	800b884 <sqrtf>
 8001c72:	e7db      	b.n	8001c2c <tableSetup+0x9c>
 8001c74:	f3af 8000 	nop.w
 8001c78:	42ef0000 	.word	0x42ef0000
 8001c7c:	00000000 	.word	0x00000000
 8001c80:	42a00000 	.word	0x42a00000
 8001c84:	43800000 	.word	0x43800000
 8001c88:	54442d18 	.word	0x54442d18
 8001c8c:	400921fb 	.word	0x400921fb
 8001c90:	20004708 	.word	0x20004708
 8001c94:	00000000 	.word	0x00000000

08001c98 <tableSetup1>:
 8001c98:	e92d 47f0 	stmdb	sp!, {r4, r5, r6, r7, r8, r9, sl, lr}
 8001c9c:	ed2d 8b0c 	vpush	{d8-d13}
 8001ca0:	a770      	add	r7, pc, #448	; (adr r7, 8001e64 <tableSetup1+0x1cc>)
 8001ca2:	e9d7 6700 	ldrd	r6, r7, [r7]
 8001ca6:	f8df 91c4 	ldr.w	r9, [pc, #452]	; 8001e6c <tableSetup1+0x1d4>
 8001caa:	eddf ca61 	vldr	s25, [pc, #388]	; 8001e30 <tableSetup1+0x198>
 8001cae:	ed9f da61 	vldr	s26, [pc, #388]	; 8001e34 <tableSetup1+0x19c>
 8001cb2:	eddf ba61 	vldr	s23, [pc, #388]	; 8001e38 <tableSetup1+0x1a0>
 8001cb6:	ed9f ba61 	vldr	s22, [pc, #388]	; 8001e3c <tableSetup1+0x1a4>
 8001cba:	eddf aa61 	vldr	s21, [pc, #388]	; 8001e40 <tableSetup1+0x1a8>
 8001cbe:	ed9f aa61 	vldr	s20, [pc, #388]	; 8001e44 <tableSetup1+0x1ac>
 8001cc2:	4d61      	ldr	r5, [pc, #388]	; (8001e48 <tableSetup1+0x1b0>)
 8001cc4:	b084      	sub	sp, #16
 8001cc6:	f06f 0a28 	mvn.w	sl, #40	; 0x28
 8001cca:	2400      	movs	r4, #0
 8001ccc:	f10a 0329 	add.w	r3, sl, #41	; 0x29
 8001cd0:	ee09 3a10 	vmov	s18, r3
 8001cd4:	eeb8 9ac9 	vcvt.f32.s32	s18, s18
 8001cd8:	eddf 8a5c 	vldr	s17, [pc, #368]	; 8001e4c <tableSetup1+0x1b4>
 8001cdc:	ee39 9a6b 	vsub.f32	s18, s18, s23
 8001ce0:	f04f 0801 	mov.w	r8, #1
 8001ce4:	ee69 9a09 	vmul.f32	s19, s18, s18
 8001ce8:	eeb1 9a49 	vneg.f32	s18, s18
 8001cec:	e019      	b.n	8001d22 <tableSetup1+0x8a>
 8001cee:	eeb4 cae5 	vcmpe.f32	s24, s11
 8001cf2:	eef1 fa10 	vmrs	APSR_nzcv, fpscr
 8001cf6:	f1a8 022a 	sub.w	r2, r8, #42	; 0x2a
 8001cfa:	dd6d      	ble.n	8001dd8 <tableSetup1+0x140>
 8001cfc:	2a9e      	cmp	r2, #158	; 0x9e
 8001cfe:	d86b      	bhi.n	8001dd8 <tableSetup1+0x140>
 8001d00:	f1ba 0f9e 	cmp.w	sl, #158	; 0x9e
 8001d04:	f200 808d 	bhi.w	8001e22 <tableSetup1+0x18a>
 8001d08:	ee17 3a90 	vmov	r3, s15
 8001d0c:	2bfe      	cmp	r3, #254	; 0xfe
 8001d0e:	bfa8      	it	ge
 8001d10:	23fe      	movge	r3, #254	; 0xfe
 8001d12:	2b01      	cmp	r3, #1
 8001d14:	bfb8      	it	lt
 8001d16:	2301      	movlt	r3, #1
 8001d18:	3301      	adds	r3, #1
 8001d1a:	f809 3008 	strb.w	r3, [r9, r8]
 8001d1e:	f108 0801 	add.w	r8, r8, #1
 8001d22:	f108 33ff 	add.w	r3, r8, #4294967295	; 0xffffffff
 8001d26:	ee08 3a10 	vmov	s16, r3
 8001d2a:	eeb8 8ac8 	vcvt.f32.s32	s16, s16
 8001d2e:	eeb0 0a69 	vmov.f32	s0, s19
 8001d32:	ee38 8a4b 	vsub.f32	s16, s16, s22
 8001d36:	eea8 0a08 	vfma.f32	s0, s16, s16
 8001d3a:	eeb5 0a40 	vcmp.f32	s0, #0.0
 8001d3e:	eef1 fa10 	vmrs	APSR_nzcv, fpscr
 8001d42:	eeb1 cac0 	vsqrt.f32	s24, s0
 8001d46:	d470      	bmi.n	8001e2a <tableSetup1+0x192>
 8001d48:	eeb0 0a49 	vmov.f32	s0, s18
 8001d4c:	eea8 0a2a 	vfma.f32	s0, s16, s21
 8001d50:	ee80 0a0c 	vdiv.f32	s0, s0, s24
 8001d54:	f009 fcf0 	bl	800b738 <acosf>
 8001d58:	ee68 7a0a 	vmul.f32	s15, s16, s20
 8001d5c:	ed9f 7a3c 	vldr	s14, [pc, #240]	; 8001e50 <tableSetup1+0x1b8>
 8001d60:	ee27 8a88 	vmul.f32	s16, s15, s16
 8001d64:	ee28 8ac8 	vnmul.f32	s16, s17, s16
 8001d68:	eea8 0a28 	vfma.f32	s0, s16, s17
 8001d6c:	ee60 7a07 	vmul.f32	s15, s0, s14
 8001d70:	ee17 0a90 	vmov	r0, s15
 8001d74:	f7fe fbf0 	bl	8000558 <__aeabi_f2d>
 8001d78:	4632      	mov	r2, r6
 8001d7a:	463b      	mov	r3, r7
 8001d7c:	f7fe fd6e 	bl	800085c <__aeabi_ddiv>
 8001d80:	462b      	mov	r3, r5
 8001d82:	4622      	mov	r2, r4
 8001d84:	f7fe fa88 	bl	8000298 <__aeabi_dsub>
 8001d88:	f7fe ff16 	bl	8000bb8 <__aeabi_d2f>
 8001d8c:	ee07 0a10 	vmov	s14, r0
 8001d90:	eddf 7a30 	vldr	s15, [pc, #192]	; 8001e54 <tableSetup1+0x1bc>
 8001d94:	eddf 6a30 	vldr	s13, [pc, #192]	; 8001e58 <tableSetup1+0x1c0>
 8001d98:	eddf 5a30 	vldr	s11, [pc, #192]	; 8001e5c <tableSetup1+0x1c4>
 8001d9c:	eeb0 7ac7 	vabs.f32	s14, s14
 8001da0:	eeb7 6a04 	vmov.f32	s12, #116	; 0x3fa00000  1.250
 8001da4:	eee7 7a46 	vfms.f32	s15, s14, s12
 8001da8:	2300      	movs	r3, #0
 8001daa:	eefd 7ae7 	vcvt.s32.f32	s15, s15
 8001dae:	eeb8 7ae7 	vcvt.f32.s32	s14, s15
 8001db2:	eeb4 7a4d 	vcmp.f32	s14, s26
 8001db6:	eef1 fa10 	vmrs	APSR_nzcv, fpscr
 8001dba:	eeb4 7a6c 	vcmp.f32	s14, s25
 8001dbe:	bf48      	it	mi
 8001dc0:	eeb0 da47 	vmovmi.f32	s26, s14
 8001dc4:	eef1 fa10 	vmrs	APSR_nzcv, fpscr
 8001dc8:	eeb4 cae6 	vcmpe.f32	s24, s13
 8001dcc:	bfc8      	it	gt
 8001dce:	eef0 ca47 	vmovgt.f32	s25, s14
 8001dd2:	eef1 fa10 	vmrs	APSR_nzcv, fpscr
 8001dd6:	d48a      	bmi.n	8001cee <tableSetup1+0x56>
 8001dd8:	f1b8 0ff0 	cmp.w	r8, #240	; 0xf0
 8001ddc:	f809 3008 	strb.w	r3, [r9, r8]
 8001de0:	d19d      	bne.n	8001d1e <tableSetup1+0x86>
 8001de2:	f10a 0a01 	add.w	sl, sl, #1
 8001de6:	f1ba 0fc7 	cmp.w	sl, #199	; 0xc7
 8001dea:	f109 09f0 	add.w	r9, r9, #240	; 0xf0
 8001dee:	f47f af6d 	bne.w	8001ccc <tableSetup1+0x34>
 8001df2:	ee1d 0a10 	vmov	r0, s26
 8001df6:	f7fe fbaf 	bl	8000558 <__aeabi_f2d>
 8001dfa:	4602      	mov	r2, r0
 8001dfc:	460b      	mov	r3, r1
 8001dfe:	ee1c 0a90 	vmov	r0, s25
 8001e02:	e9cd 2302 	strd	r2, r3, [sp, #8]
 8001e06:	f7fe fba7 	bl	8000558 <__aeabi_f2d>
 8001e0a:	e9dd 2302 	ldrd	r2, r3, [sp, #8]
 8001e0e:	e9cd 0100 	strd	r0, r1, [sp]
 8001e12:	4813      	ldr	r0, [pc, #76]	; (8001e60 <tableSetup1+0x1c8>)
 8001e14:	f007 fae6 	bl	80093e4 <iprintf>
 8001e18:	b004      	add	sp, #16
 8001e1a:	ecbd 8b0c 	vpop	{d8-d13}
 8001e1e:	e8bd 87f0 	ldmia.w	sp!, {r4, r5, r6, r7, r8, r9, sl, pc}
 8001e22:	2300      	movs	r3, #0
 8001e24:	f809 3008 	strb.w	r3, [r9, r8]
 8001e28:	e779      	b.n	8001d1e <tableSetup1+0x86>
 8001e2a:	f009 fd2b 	bl	800b884 <sqrtf>
 8001e2e:	e78b      	b.n	8001d48 <tableSetup1+0xb0>
 8001e30:	c47a0000 	.word	0xc47a0000
 8001e34:	447a0000 	.word	0x447a0000
 8001e38:	43478000 	.word	0x43478000
 8001e3c:	42ef0000 	.word	0x42ef0000
 8001e40:	00000000 	.word	0x00000000
 8001e44:	3e99999a 	.word	0x3e99999a
 8001e48:	40680000 	.word	0x40680000
 8001e4c:	3c088889 	.word	0x3c088889
 8001e50:	44800000 	.word	0x44800000
 8001e54:	43660000 	.word	0x43660000
 8001e58:	43200000 	.word	0x43200000
 8001e5c:	420c0000 	.word	0x420c0000
 8001e60:	08028ad0 	.word	0x08028ad0
 8001e64:	54442d18 	.word	0x54442d18
 8001e68:	400921fb 	.word	0x400921fb
 8001e6c:	20004707 	.word	0x20004707

08001e70 <SystemClock_Config>:
 8001e70:	b530      	push	{r4, r5, lr}
 8001e72:	2300      	movs	r3, #0
 8001e74:	b095      	sub	sp, #84	; 0x54
 8001e76:	e9cd 330a 	strd	r3, r3, [sp, #40]	; 0x28
 8001e7a:	e9cd 330c 	strd	r3, r3, [sp, #48]	; 0x30
 8001e7e:	e9cd 3303 	strd	r3, r3, [sp, #12]
 8001e82:	e9cd 3305 	strd	r3, r3, [sp, #20]
 8001e86:	4923      	ldr	r1, [pc, #140]	; (8001f14 <SystemClock_Config+0xa4>)
 8001e88:	9300      	str	r3, [sp, #0]
 8001e8a:	9302      	str	r3, [sp, #8]
 8001e8c:	6c08      	ldr	r0, [r1, #64]	; 0x40
 8001e8e:	4a22      	ldr	r2, [pc, #136]	; (8001f18 <SystemClock_Config+0xa8>)
 8001e90:	f040 5080 	orr.w	r0, r0, #268435456	; 0x10000000
 8001e94:	6408      	str	r0, [r1, #64]	; 0x40
 8001e96:	6c09      	ldr	r1, [r1, #64]	; 0x40
 8001e98:	f001 5180 	and.w	r1, r1, #268435456	; 0x10000000
 8001e9c:	9100      	str	r1, [sp, #0]
 8001e9e:	9900      	ldr	r1, [sp, #0]
 8001ea0:	9301      	str	r3, [sp, #4]
 8001ea2:	6813      	ldr	r3, [r2, #0]
 8001ea4:	f423 4340 	bic.w	r3, r3, #49152	; 0xc000
 8001ea8:	f443 4300 	orr.w	r3, r3, #32768	; 0x8000
 8001eac:	6013      	str	r3, [r2, #0]
 8001eae:	6813      	ldr	r3, [r2, #0]
 8001eb0:	f403 4340 	and.w	r3, r3, #49152	; 0xc000
 8001eb4:	9301      	str	r3, [sp, #4]
 8001eb6:	2401      	movs	r4, #1
 8001eb8:	f44f 3580 	mov.w	r5, #65536	; 0x10000
 8001ebc:	2202      	movs	r2, #2
 8001ebe:	f44f 0380 	mov.w	r3, #4194304	; 0x400000
 8001ec2:	e9cd 4508 	strd	r4, r5, [sp, #32]
 8001ec6:	e9cd 230e 	strd	r2, r3, [sp, #56]	; 0x38
 8001eca:	2419      	movs	r4, #25
 8001ecc:	f44f 75a8 	mov.w	r5, #336	; 0x150
 8001ed0:	2204      	movs	r2, #4
 8001ed2:	2307      	movs	r3, #7
 8001ed4:	a808      	add	r0, sp, #32
 8001ed6:	e9cd 4510 	strd	r4, r5, [sp, #64]	; 0x40
 8001eda:	e9cd 2312 	strd	r2, r3, [sp, #72]	; 0x48
 8001ede:	9901      	ldr	r1, [sp, #4]
 8001ee0:	f003 fa60 	bl	80053a4 <HAL_RCC_OscConfig>
 8001ee4:	b108      	cbz	r0, 8001eea <SystemClock_Config+0x7a>
 8001ee6:	b672      	cpsid	i
 8001ee8:	e7fe      	b.n	8001ee8 <SystemClock_Config+0x78>
 8001eea:	4603      	mov	r3, r0
 8001eec:	240f      	movs	r4, #15
 8001eee:	2502      	movs	r5, #2
 8001ef0:	9306      	str	r3, [sp, #24]
 8001ef2:	2200      	movs	r2, #0
 8001ef4:	f44f 5380 	mov.w	r3, #4096	; 0x1000
 8001ef8:	a802      	add	r0, sp, #8
 8001efa:	2102      	movs	r1, #2
 8001efc:	e9cd 4502 	strd	r4, r5, [sp, #8]
 8001f00:	e9cd 2304 	strd	r2, r3, [sp, #16]
 8001f04:	f003 fc6a 	bl	80057dc <HAL_RCC_ClockConfig>
 8001f08:	b108      	cbz	r0, 8001f0e <SystemClock_Config+0x9e>
 8001f0a:	b672      	cpsid	i
 8001f0c:	e7fe      	b.n	8001f0c <SystemClock_Config+0x9c>
 8001f0e:	b015      	add	sp, #84	; 0x54
 8001f10:	bd30      	pop	{r4, r5, pc}
 8001f12:	bf00      	nop
 8001f14:	40023800 	.word	0x40023800
 8001f18:	40007000 	.word	0x40007000
 8001f1c:	00000000 	.word	0x00000000

08001f20 <main>:
 8001f20:	e92d 4ff0 	stmdb	sp!, {r4, r5, r6, r7, r8, r9, sl, fp, lr}
 8001f24:	ed2d 8b0c 	vpush	{d8-d13}
 8001f28:	b0c3      	sub	sp, #268	; 0x10c
 8001f2a:	2400      	movs	r4, #0
 8001f2c:	f10d 0be0 	add.w	fp, sp, #224	; 0xe0
 8001f30:	f001 ff7e 	bl	8003e30 <HAL_Init>
 8001f34:	f7ff ff9c 	bl	8001e70 <SystemClock_Config>
 8001f38:	e9cb 4402 	strd	r4, r4, [fp, #8]
 8001f3c:	f8df 8238 	ldr.w	r8, [pc, #568]	; 8002178 <main+0x258>
 8001f40:	941e      	str	r4, [sp, #120]	; 0x78
 8001f42:	f8cb 4004 	str.w	r4, [fp, #4]
 8001f46:	9438      	str	r4, [sp, #224]	; 0xe0
 8001f48:	f8cb 4010 	str.w	r4, [fp, #16]
 8001f4c:	f8d8 3030 	ldr.w	r3, [r8, #48]	; 0x30
 8001f50:	487b      	ldr	r0, [pc, #492]	; (8002140 <main+0x220>)
 8001f52:	f043 0304 	orr.w	r3, r3, #4
 8001f56:	f8c8 3030 	str.w	r3, [r8, #48]	; 0x30
 8001f5a:	f8d8 3030 	ldr.w	r3, [r8, #48]	; 0x30
 8001f5e:	f003 0304 	and.w	r3, r3, #4
 8001f62:	931e      	str	r3, [sp, #120]	; 0x78
 8001f64:	9b1e      	ldr	r3, [sp, #120]	; 0x78
 8001f66:	941f      	str	r4, [sp, #124]	; 0x7c
 8001f68:	f8d8 3030 	ldr.w	r3, [r8, #48]	; 0x30
 8001f6c:	f043 0380 	orr.w	r3, r3, #128	; 0x80
 8001f70:	f8c8 3030 	str.w	r3, [r8, #48]	; 0x30
 8001f74:	f8d8 3030 	ldr.w	r3, [r8, #48]	; 0x30
 8001f78:	f003 0380 	and.w	r3, r3, #128	; 0x80
 8001f7c:	931f      	str	r3, [sp, #124]	; 0x7c
 8001f7e:	9b1f      	ldr	r3, [sp, #124]	; 0x7c
 8001f80:	9420      	str	r4, [sp, #128]	; 0x80
 8001f82:	f8d8 3030 	ldr.w	r3, [r8, #48]	; 0x30
 8001f86:	f043 0301 	orr.w	r3, r3, #1
 8001f8a:	f8c8 3030 	str.w	r3, [r8, #48]	; 0x30
 8001f8e:	f8d8 3030 	ldr.w	r3, [r8, #48]	; 0x30
 8001f92:	f003 0301 	and.w	r3, r3, #1
 8001f96:	9320      	str	r3, [sp, #128]	; 0x80
 8001f98:	9b20      	ldr	r3, [sp, #128]	; 0x80
 8001f9a:	9421      	str	r4, [sp, #132]	; 0x84
 8001f9c:	f8d8 3030 	ldr.w	r3, [r8, #48]	; 0x30
 8001fa0:	f043 0302 	orr.w	r3, r3, #2
 8001fa4:	f8c8 3030 	str.w	r3, [r8, #48]	; 0x30
 8001fa8:	f8d8 3030 	ldr.w	r3, [r8, #48]	; 0x30
 8001fac:	f003 0302 	and.w	r3, r3, #2
 8001fb0:	9321      	str	r3, [sp, #132]	; 0x84
 8001fb2:	4622      	mov	r2, r4
 8001fb4:	f44f 5100 	mov.w	r1, #8192	; 0x2000
 8001fb8:	9b21      	ldr	r3, [sp, #132]	; 0x84
 8001fba:	f002 fa67 	bl	800448c <HAL_GPIO_WritePin>
 8001fbe:	4861      	ldr	r0, [pc, #388]	; (8002144 <main+0x224>)
 8001fc0:	4622      	mov	r2, r4
 8001fc2:	f44f 6182 	mov.w	r1, #1040	; 0x410
 8001fc6:	f002 fa61 	bl	800448c <HAL_GPIO_WritePin>
 8001fca:	485f      	ldr	r0, [pc, #380]	; (8002148 <main+0x228>)
 8001fcc:	4622      	mov	r2, r4
 8001fce:	f44f 7145 	mov.w	r1, #788	; 0x314
 8001fd2:	f002 fa5b 	bl	800448c <HAL_GPIO_WritePin>
 8001fd6:	f04f 0900 	mov.w	r9, #0
 8001fda:	f04f 0a00 	mov.w	sl, #0
 8001fde:	f44f 5200 	mov.w	r2, #8192	; 0x2000
 8001fe2:	2311      	movs	r3, #17
 8001fe4:	4856      	ldr	r0, [pc, #344]	; (8002140 <main+0x220>)
 8001fe6:	4659      	mov	r1, fp
 8001fe8:	e9cd 2338 	strd	r2, r3, [sp, #224]	; 0xe0
 8001fec:	e9cd 9a3a 	strd	r9, sl, [sp, #232]	; 0xe8
 8001ff0:	2501      	movs	r5, #1
 8001ff2:	f002 f959 	bl	80042a8 <HAL_GPIO_Init>
 8001ff6:	2204      	movs	r2, #4
 8001ff8:	2300      	movs	r3, #0
 8001ffa:	4852      	ldr	r0, [pc, #328]	; (8002144 <main+0x224>)
 8001ffc:	953a      	str	r5, [sp, #232]	; 0xe8
 8001ffe:	4659      	mov	r1, fp
 8002000:	e9cd 2338 	strd	r2, r3, [sp, #224]	; 0xe0
 8002004:	f002 f950 	bl	80042a8 <HAL_GPIO_Init>
 8002008:	f44f 6282 	mov.w	r2, #1040	; 0x410
 800200c:	2301      	movs	r3, #1
 800200e:	484d      	ldr	r0, [pc, #308]	; (8002144 <main+0x224>)
 8002010:	4659      	mov	r1, fp
 8002012:	e9cd 2338 	strd	r2, r3, [sp, #224]	; 0xe0
 8002016:	e9cd 9a3a 	strd	r9, sl, [sp, #232]	; 0xe8
 800201a:	f002 f945 	bl	80042a8 <HAL_GPIO_Init>
 800201e:	f44f 7245 	mov.w	r2, #788	; 0x314
 8002022:	2301      	movs	r3, #1
 8002024:	4848      	ldr	r0, [pc, #288]	; (8002148 <main+0x228>)
 8002026:	4659      	mov	r1, fp
 8002028:	e9cd 2338 	strd	r2, r3, [sp, #224]	; 0xe0
 800202c:	e9cd 9a3a 	strd	r9, sl, [sp, #232]	; 0xe8
 8002030:	f002 f93a 	bl	80042a8 <HAL_GPIO_Init>
 8002034:	4845      	ldr	r0, [pc, #276]	; (800214c <main+0x22c>)
 8002036:	4946      	ldr	r1, [pc, #280]	; (8002150 <main+0x230>)
 8002038:	6084      	str	r4, [r0, #8]
 800203a:	f44f 32e1 	mov.w	r2, #115200	; 0x1c200
 800203e:	230c      	movs	r3, #12
 8002040:	e9c0 4403 	strd	r4, r4, [r0, #12]
 8002044:	e9c0 4406 	strd	r4, r4, [r0, #24]
 8002048:	e9c0 1200 	strd	r1, r2, [r0]
 800204c:	6143      	str	r3, [r0, #20]
 800204e:	f004 fb63 	bl	8006718 <HAL_UART_Init>
 8002052:	b108      	cbz	r0, 8002058 <main+0x138>
 8002054:	b672      	cpsid	i
 8002056:	e7fe      	b.n	8002056 <main+0x136>
 8002058:	901c      	str	r0, [sp, #112]	; 0x70
 800205a:	f8d8 3030 	ldr.w	r3, [r8, #48]	; 0x30
 800205e:	f443 0380 	orr.w	r3, r3, #4194304	; 0x400000
 8002062:	f8c8 3030 	str.w	r3, [r8, #48]	; 0x30
 8002066:	f8d8 3030 	ldr.w	r3, [r8, #48]	; 0x30
 800206a:	f403 0380 	and.w	r3, r3, #4194304	; 0x400000
 800206e:	931c      	str	r3, [sp, #112]	; 0x70
 8002070:	9b1c      	ldr	r3, [sp, #112]	; 0x70
 8002072:	901d      	str	r0, [sp, #116]	; 0x74
 8002074:	f8d8 3030 	ldr.w	r3, [r8, #48]	; 0x30
 8002078:	f443 1300 	orr.w	r3, r3, #2097152	; 0x200000
 800207c:	f8c8 3030 	str.w	r3, [r8, #48]	; 0x30
 8002080:	f8d8 3030 	ldr.w	r3, [r8, #48]	; 0x30
 8002084:	f403 1300 	and.w	r3, r3, #2097152	; 0x200000
 8002088:	4604      	mov	r4, r0
 800208a:	4602      	mov	r2, r0
 800208c:	4601      	mov	r1, r0
 800208e:	931d      	str	r3, [sp, #116]	; 0x74
 8002090:	200f      	movs	r0, #15
 8002092:	9b1d      	ldr	r3, [sp, #116]	; 0x74
 8002094:	f001 ff1e 	bl	8003ed4 <HAL_NVIC_SetPriority>
 8002098:	200f      	movs	r0, #15
 800209a:	f001 ff53 	bl	8003f44 <HAL_NVIC_EnableIRQ>
 800209e:	4a2d      	ldr	r2, [pc, #180]	; (8002154 <main+0x234>)
 80020a0:	4b2d      	ldr	r3, [pc, #180]	; (8002158 <main+0x238>)
 80020a2:	68d1      	ldr	r1, [r2, #12]
 80020a4:	482d      	ldr	r0, [pc, #180]	; (800215c <main+0x23c>)
 80020a6:	f883 4339 	strb.w	r4, [r3, #825]	; 0x339
 80020aa:	f04f 7100 	mov.w	r1, #33554432	; 0x2000000
 80020ae:	6059      	str	r1, [r3, #4]
 80020b0:	f04f 6180 	mov.w	r1, #67108864	; 0x4000000
 80020b4:	68d2      	ldr	r2, [r2, #12]
 80020b6:	f883 433a 	strb.w	r4, [r3, #826]	; 0x33a
 80020ba:	4a29      	ldr	r2, [pc, #164]	; (8002160 <main+0x240>)
 80020bc:	6059      	str	r1, [r3, #4]
 80020be:	e9c0 4402 	strd	r4, r4, [r0, #8]
 80020c2:	e9c0 4406 	strd	r4, r4, [r0, #24]
 80020c6:	4b27      	ldr	r3, [pc, #156]	; (8002164 <main+0x244>)
 80020c8:	6104      	str	r4, [r0, #16]
 80020ca:	6204      	str	r4, [r0, #32]
 80020cc:	f44f 7400 	mov.w	r4, #512	; 0x200
 80020d0:	6002      	str	r2, [r0, #0]
 80020d2:	6143      	str	r3, [r0, #20]
 80020d4:	6044      	str	r4, [r0, #4]
 80020d6:	f002 f9dd 	bl	8004494 <HAL_I2S_Init>
 80020da:	4602      	mov	r2, r0
 80020dc:	b108      	cbz	r0, 80020e2 <main+0x1c2>
 80020de:	b672      	cpsid	i
 80020e0:	e7fe      	b.n	80020e0 <main+0x1c0>
 80020e2:	4821      	ldr	r0, [pc, #132]	; (8002168 <main+0x248>)
 80020e4:	4921      	ldr	r1, [pc, #132]	; (800216c <main+0x24c>)
 80020e6:	6082      	str	r2, [r0, #8]
 80020e8:	2301      	movs	r3, #1
 80020ea:	e9c0 3405 	strd	r3, r4, [r0, #20]
 80020ee:	f44f 7782 	mov.w	r7, #260	; 0x104
 80020f2:	230a      	movs	r3, #10
 80020f4:	2502      	movs	r5, #2
 80020f6:	e9c0 2207 	strd	r2, r2, [r0, #28]
 80020fa:	e9c0 2209 	strd	r2, r2, [r0, #36]	; 0x24
 80020fe:	60c2      	str	r2, [r0, #12]
 8002100:	e9c0 1700 	strd	r1, r7, [r0]
 8002104:	6105      	str	r5, [r0, #16]
 8002106:	62c3      	str	r3, [r0, #44]	; 0x2c
 8002108:	f003 fd5c 	bl	8005bc4 <HAL_SPI_Init>
 800210c:	4602      	mov	r2, r0
 800210e:	b9a8      	cbnz	r0, 800213c <main+0x21c>
 8002110:	4817      	ldr	r0, [pc, #92]	; (8002170 <main+0x250>)
 8002112:	4918      	ldr	r1, [pc, #96]	; (8002174 <main+0x254>)
 8002114:	6001      	str	r1, [r0, #0]
 8002116:	2301      	movs	r3, #1
 8002118:	e9c0 3405 	strd	r3, r4, [r0, #20]
 800211c:	230a      	movs	r3, #10
 800211e:	e9c0 7201 	strd	r7, r2, [r0, #4]
 8002122:	e9c0 2503 	strd	r2, r5, [r0, #12]
 8002126:	e9c0 2207 	strd	r2, r2, [r0, #28]
 800212a:	e9c0 2209 	strd	r2, r2, [r0, #36]	; 0x24
 800212e:	62c3      	str	r3, [r0, #44]	; 0x2c
 8002130:	f003 fd48 	bl	8005bc4 <HAL_SPI_Init>
 8002134:	4604      	mov	r4, r0
 8002136:	b308      	cbz	r0, 800217c <main+0x25c>
 8002138:	b672      	cpsid	i
 800213a:	e7fe      	b.n	800213a <main+0x21a>
 800213c:	b672      	cpsid	i
 800213e:	e7fe      	b.n	800213e <main+0x21e>
 8002140:	40020800 	.word	0x40020800
 8002144:	40020000 	.word	0x40020000
 8002148:	40020400 	.word	0x40020400
 800214c:	200046b8 	.word	0x200046b8
 8002150:	40011000 	.word	0x40011000
 8002154:	e000ed00 	.word	0xe000ed00
 8002158:	e000e100 	.word	0xe000e100
 800215c:	2001293c 	.word	0x2001293c
 8002160:	40003800 	.word	0x40003800
 8002164:	00017700 	.word	0x00017700
 8002168:	20012810 	.word	0x20012810
 800216c:	40013000 	.word	0x40013000
 8002170:	20004650 	.word	0x20004650
 8002174:	40003c00 	.word	0x40003c00
 8002178:	40023800 	.word	0x40023800
 800217c:	4601      	mov	r1, r0
 800217e:	2220      	movs	r2, #32
 8002180:	4658      	mov	r0, fp
 8002182:	f8ad 409a 	strh.w	r4, [sp, #154]	; 0x9a
 8002186:	f006 fcbb 	bl	8008b00 <memset>
 800218a:	e9cd 442d 	strd	r4, r4, [sp, #180]	; 0xb4
 800218e:	e9cd 442f 	strd	r4, r4, [sp, #188]	; 0xbc
 8002192:	e9cd 4433 	strd	r4, r4, [sp, #204]	; 0xcc
 8002196:	e9cd 4435 	strd	r4, r4, [sp, #212]	; 0xd4
 800219a:	942c      	str	r4, [sp, #176]	; 0xb0
 800219c:	9432      	str	r4, [sp, #200]	; 0xc8
 800219e:	9431      	str	r4, [sp, #196]	; 0xc4
 80021a0:	9437      	str	r4, [sp, #220]	; 0xdc
 80021a2:	f8d8 0044 	ldr.w	r0, [r8, #68]	; 0x44
 80021a6:	49b5      	ldr	r1, [pc, #724]	; (800247c <main+0x55c>)
 80021a8:	4ab5      	ldr	r2, [pc, #724]	; (8002480 <main+0x560>)
 80021aa:	4eb6      	ldr	r6, [pc, #728]	; (8002484 <main+0x564>)
 80021ac:	4db6      	ldr	r5, [pc, #728]	; (8002488 <main+0x568>)
 80021ae:	f040 0001 	orr.w	r0, r0, #1
 80021b2:	f8c8 0044 	str.w	r0, [r8, #68]	; 0x44
 80021b6:	f8d8 0044 	ldr.w	r0, [r8, #68]	; 0x44
 80021ba:	f000 0001 	and.w	r0, r0, #1
 80021be:	9019      	str	r0, [sp, #100]	; 0x64
 80021c0:	9819      	ldr	r0, [sp, #100]	; 0x64
 80021c2:	6808      	ldr	r0, [r1, #0]
 80021c4:	f020 6060 	bic.w	r0, r0, #234881024	; 0xe000000
 80021c8:	f040 6040 	orr.w	r0, r0, #201326592	; 0xc000000
 80021cc:	6008      	str	r0, [r1, #0]
 80021ce:	6808      	ldr	r0, [r1, #0]
 80021d0:	f020 00c0 	bic.w	r0, r0, #192	; 0xc0
 80021d4:	f040 0040 	orr.w	r0, r0, #64	; 0x40
 80021d8:	6008      	str	r0, [r1, #0]
 80021da:	6808      	ldr	r0, [r1, #0]
 80021dc:	f420 3040 	bic.w	r0, r0, #196608	; 0x30000
 80021e0:	f440 3000 	orr.w	r0, r0, #131072	; 0x20000
 80021e4:	6008      	str	r0, [r1, #0]
 80021e6:	6808      	ldr	r0, [r1, #0]
 80021e8:	f420 7090 	bic.w	r0, r0, #288	; 0x120
 80021ec:	f440 7080 	orr.w	r0, r0, #256	; 0x100
 80021f0:	6008      	str	r0, [r1, #0]
 80021f2:	6808      	ldr	r0, [r1, #0]
 80021f4:	f420 7000 	bic.w	r0, r0, #512	; 0x200
 80021f8:	6008      	str	r0, [r1, #0]
 80021fa:	6808      	ldr	r0, [r1, #0]
 80021fc:	f440 6080 	orr.w	r0, r0, #1024	; 0x400
 8002200:	6008      	str	r0, [r1, #0]
 8002202:	6808      	ldr	r0, [r1, #0]
 8002204:	f420 50c0 	bic.w	r0, r0, #6144	; 0x1800
 8002208:	f440 6000 	orr.w	r0, r0, #2048	; 0x800
 800220c:	6008      	str	r0, [r1, #0]
 800220e:	6808      	ldr	r0, [r1, #0]
 8002210:	f420 40c0 	bic.w	r0, r0, #24576	; 0x6000
 8002214:	f440 5000 	orr.w	r0, r0, #8192	; 0x2000
 8002218:	6008      	str	r0, [r1, #0]
 800221a:	6948      	ldr	r0, [r1, #20]
 800221c:	f040 0004 	orr.w	r0, r0, #4
 8002220:	6148      	str	r0, [r1, #20]
 8002222:	6948      	ldr	r0, [r1, #20]
 8002224:	f040 0003 	orr.w	r0, r0, #3
 8002228:	6148      	str	r0, [r1, #20]
 800222a:	6808      	ldr	r0, [r1, #0]
 800222c:	f020 70c0 	bic.w	r0, r0, #25165824	; 0x1800000
 8002230:	f040 7080 	orr.w	r0, r0, #16777216	; 0x1000000
 8002234:	6008      	str	r0, [r1, #0]
 8002236:	6808      	ldr	r0, [r1, #0]
 8002238:	f420 00c0 	bic.w	r0, r0, #6291456	; 0x600000
 800223c:	6008      	str	r0, [r1, #0]
 800223e:	6811      	ldr	r1, [r2, #0]
 8002240:	f021 6160 	bic.w	r1, r1, #234881024	; 0xe000000
 8002244:	f041 6140 	orr.w	r1, r1, #201326592	; 0xc000000
 8002248:	6011      	str	r1, [r2, #0]
 800224a:	6811      	ldr	r1, [r2, #0]
 800224c:	f021 01c0 	bic.w	r1, r1, #192	; 0xc0
 8002250:	f041 0140 	orr.w	r1, r1, #64	; 0x40
 8002254:	6011      	str	r1, [r2, #0]
 8002256:	6811      	ldr	r1, [r2, #0]
 8002258:	f421 3140 	bic.w	r1, r1, #196608	; 0x30000
 800225c:	f441 3100 	orr.w	r1, r1, #131072	; 0x20000
 8002260:	6011      	str	r1, [r2, #0]
 8002262:	6811      	ldr	r1, [r2, #0]
 8002264:	f421 7190 	bic.w	r1, r1, #288	; 0x120
 8002268:	f441 7180 	orr.w	r1, r1, #256	; 0x100
 800226c:	6011      	str	r1, [r2, #0]
 800226e:	6811      	ldr	r1, [r2, #0]
 8002270:	f421 7100 	bic.w	r1, r1, #512	; 0x200
 8002274:	6011      	str	r1, [r2, #0]
 8002276:	6811      	ldr	r1, [r2, #0]
 8002278:	f441 6180 	orr.w	r1, r1, #1024	; 0x400
 800227c:	6011      	str	r1, [r2, #0]
 800227e:	6811      	ldr	r1, [r2, #0]
 8002280:	f421 51c0 	bic.w	r1, r1, #6144	; 0x1800
 8002284:	f441 6100 	orr.w	r1, r1, #2048	; 0x800
 8002288:	6011      	str	r1, [r2, #0]
 800228a:	6811      	ldr	r1, [r2, #0]
 800228c:	f421 41c0 	bic.w	r1, r1, #24576	; 0x6000
 8002290:	f441 5100 	orr.w	r1, r1, #8192	; 0x2000
 8002294:	6011      	str	r1, [r2, #0]
 8002296:	6951      	ldr	r1, [r2, #20]
 8002298:	f041 0104 	orr.w	r1, r1, #4
 800229c:	6151      	str	r1, [r2, #20]
 800229e:	6951      	ldr	r1, [r2, #20]
 80022a0:	f041 0103 	orr.w	r1, r1, #3
 80022a4:	6151      	str	r1, [r2, #20]
 80022a6:	6811      	ldr	r1, [r2, #0]
 80022a8:	f021 71c0 	bic.w	r1, r1, #25165824	; 0x1800000
 80022ac:	f041 7180 	orr.w	r1, r1, #16777216	; 0x1000000
 80022b0:	6011      	str	r1, [r2, #0]
 80022b2:	6817      	ldr	r7, [r2, #0]
 80022b4:	f64f 73ff 	movw	r3, #65535	; 0xffff
 80022b8:	f427 07c0 	bic.w	r7, r7, #6291456	; 0x600000
 80022bc:	4630      	mov	r0, r6
 80022be:	a926      	add	r1, sp, #152	; 0x98
 80022c0:	6017      	str	r7, [r2, #0]
 80022c2:	f8ad 4098 	strh.w	r4, [sp, #152]	; 0x98
 80022c6:	9328      	str	r3, [sp, #160]	; 0xa0
 80022c8:	e9cd 4429 	strd	r4, r4, [sp, #164]	; 0xa4
 80022cc:	9427      	str	r4, [sp, #156]	; 0x9c
 80022ce:	f004 fc11 	bl	8006af4 <LL_TIM_Init>
 80022d2:	6832      	ldr	r2, [r6, #0]
 80022d4:	f022 0280 	bic.w	r2, r2, #128	; 0x80
 80022d8:	6032      	str	r2, [r6, #0]
 80022da:	69b2      	ldr	r2, [r6, #24]
 80022dc:	f042 0208 	orr.w	r2, r2, #8
 80022e0:	61b2      	str	r2, [r6, #24]
 80022e2:	2300      	movs	r3, #0
 80022e4:	2260      	movs	r2, #96	; 0x60
 80022e6:	e9cd 2338 	strd	r2, r3, [sp, #224]	; 0xe0
 80022ea:	2101      	movs	r1, #1
 80022ec:	4630      	mov	r0, r6
 80022ee:	465a      	mov	r2, fp
 80022f0:	e9cd 9a3a 	strd	r9, sl, [sp, #232]	; 0xe8
 80022f4:	e9cd 9a3c 	strd	r9, sl, [sp, #240]	; 0xf0
 80022f8:	e9cd 9a3e 	strd	r9, sl, [sp, #248]	; 0xf8
 80022fc:	f004 fc46 	bl	8006b8c <LL_TIM_OC_Init>
 8002300:	69b2      	ldr	r2, [r6, #24]
 8002302:	f022 0204 	bic.w	r2, r2, #4
 8002306:	61b2      	str	r2, [r6, #24]
 8002308:	69b2      	ldr	r2, [r6, #24]
 800230a:	f442 6200 	orr.w	r2, r2, #2048	; 0x800
 800230e:	61b2      	str	r2, [r6, #24]
 8002310:	4630      	mov	r0, r6
 8002312:	465a      	mov	r2, fp
 8002314:	2110      	movs	r1, #16
 8002316:	f004 fc39 	bl	8006b8c <LL_TIM_OC_Init>
 800231a:	69b2      	ldr	r2, [r6, #24]
 800231c:	f422 6280 	bic.w	r2, r2, #1024	; 0x400
 8002320:	61b2      	str	r2, [r6, #24]
 8002322:	6872      	ldr	r2, [r6, #4]
 8002324:	f022 0270 	bic.w	r2, r2, #112	; 0x70
 8002328:	6072      	str	r2, [r6, #4]
 800232a:	68b2      	ldr	r2, [r6, #8]
 800232c:	f022 0280 	bic.w	r2, r2, #128	; 0x80
 8002330:	60b2      	str	r2, [r6, #8]
 8002332:	2300      	movs	r3, #0
 8002334:	f44f 5200 	mov.w	r2, #8192	; 0x2000
 8002338:	4630      	mov	r0, r6
 800233a:	a92c      	add	r1, sp, #176	; 0xb0
 800233c:	e9cd 2330 	strd	r2, r3, [sp, #192]	; 0xc0
 8002340:	e9cd 9a2c 	strd	r9, sl, [sp, #176]	; 0xb0
 8002344:	942e      	str	r4, [sp, #184]	; 0xb8
 8002346:	f88d 40bc 	strb.w	r4, [sp, #188]	; 0xbc
 800234a:	f8ad 40be 	strh.w	r4, [sp, #190]	; 0xbe
 800234e:	f004 fcfb 	bl	8006d48 <LL_TIM_BDTR_Init>
 8002352:	f8d8 3030 	ldr.w	r3, [r8, #48]	; 0x30
 8002356:	484d      	ldr	r0, [pc, #308]	; (800248c <main+0x56c>)
 8002358:	f043 0302 	orr.w	r3, r3, #2
 800235c:	f8c8 3030 	str.w	r3, [r8, #48]	; 0x30
 8002360:	f8d8 3030 	ldr.w	r3, [r8, #48]	; 0x30
 8002364:	f003 0302 	and.w	r3, r3, #2
 8002368:	931a      	str	r3, [sp, #104]	; 0x68
 800236a:	9b1a      	ldr	r3, [sp, #104]	; 0x68
 800236c:	f8d8 3030 	ldr.w	r3, [r8, #48]	; 0x30
 8002370:	f043 0301 	orr.w	r3, r3, #1
 8002374:	f8c8 3030 	str.w	r3, [r8, #48]	; 0x30
 8002378:	f8d8 3030 	ldr.w	r3, [r8, #48]	; 0x30
 800237c:	f003 0301 	and.w	r3, r3, #1
 8002380:	931b      	str	r3, [sp, #108]	; 0x6c
 8002382:	f242 0201 	movw	r2, #8193	; 0x2001
 8002386:	2302      	movs	r3, #2
 8002388:	e9cd 2332 	strd	r2, r3, [sp, #200]	; 0xc8
 800238c:	a932      	add	r1, sp, #200	; 0xc8
 800238e:	2200      	movs	r2, #0
 8002390:	2301      	movs	r3, #1
 8002392:	2602      	movs	r6, #2
 8002394:	2700      	movs	r7, #0
 8002396:	e9cd 6734 	strd	r6, r7, [sp, #208]	; 0xd0
 800239a:	e9cd 2336 	strd	r2, r3, [sp, #216]	; 0xd8
 800239e:	f8dd c06c 	ldr.w	ip, [sp, #108]	; 0x6c
 80023a2:	f004 fb03 	bl	80069ac <LL_GPIO_Init>
 80023a6:	f44f 7240 	mov.w	r2, #768	; 0x300
 80023aa:	2302      	movs	r3, #2
 80023ac:	e9cd 2332 	strd	r2, r3, [sp, #200]	; 0xc8
 80023b0:	a932      	add	r1, sp, #200	; 0xc8
 80023b2:	2201      	movs	r2, #1
 80023b4:	2301      	movs	r3, #1
 80023b6:	4836      	ldr	r0, [pc, #216]	; (8002490 <main+0x570>)
 80023b8:	2602      	movs	r6, #2
 80023ba:	2701      	movs	r7, #1
 80023bc:	e9cd 2336 	strd	r2, r3, [sp, #216]	; 0xd8
 80023c0:	e9cd 6734 	strd	r6, r7, [sp, #208]	; 0xd0
 80023c4:	f004 faf2 	bl	80069ac <LL_GPIO_Init>
 80023c8:	4a32      	ldr	r2, [pc, #200]	; (8002494 <main+0x574>)
 80023ca:	9433      	str	r4, [sp, #204]	; 0xcc
 80023cc:	23d1      	movs	r3, #209	; 0xd1
 80023ce:	f64f 71ff 	movw	r1, #65535	; 0xffff
 80023d2:	4628      	mov	r0, r5
 80023d4:	e9cb 4400 	strd	r4, r4, [fp]
 80023d8:	e9cb 4402 	strd	r4, r4, [fp, #8]
 80023dc:	e9c5 4102 	strd	r4, r1, [r5, #8]
 80023e0:	e9c5 2300 	strd	r2, r3, [r5]
 80023e4:	9432      	str	r4, [sp, #200]	; 0xc8
 80023e6:	612c      	str	r4, [r5, #16]
 80023e8:	61ac      	str	r4, [r5, #24]
 80023ea:	f003 fef5 	bl	80061d8 <HAL_TIM_Base_Init>
 80023ee:	b108      	cbz	r0, 80023f4 <main+0x4d4>
 80023f0:	b672      	cpsid	i
 80023f2:	e7fe      	b.n	80023f2 <main+0x4d2>
 80023f4:	f44f 5380 	mov.w	r3, #4096	; 0x1000
 80023f8:	4659      	mov	r1, fp
 80023fa:	4628      	mov	r0, r5
 80023fc:	9338      	str	r3, [sp, #224]	; 0xe0
 80023fe:	f004 f8a1 	bl	8006544 <HAL_TIM_ConfigClockSource>
 8002402:	b108      	cbz	r0, 8002408 <main+0x4e8>
 8002404:	b672      	cpsid	i
 8002406:	e7fe      	b.n	8002406 <main+0x4e6>
 8002408:	4628      	mov	r0, r5
 800240a:	a932      	add	r1, sp, #200	; 0xc8
 800240c:	e9cd 9a32 	strd	r9, sl, [sp, #200]	; 0xc8
 8002410:	f004 f948 	bl	80066a4 <HAL_TIMEx_MasterConfigSynchronization>
 8002414:	4604      	mov	r4, r0
 8002416:	b108      	cbz	r0, 800241c <main+0x4fc>
 8002418:	b672      	cpsid	i
 800241a:	e7fe      	b.n	800241a <main+0x4fa>
 800241c:	f006 f8aa 	bl	8008574 <MX_USB_DEVICE_Init>
 8002420:	4d1d      	ldr	r5, [pc, #116]	; (8002498 <main+0x578>)
 8002422:	230a      	movs	r3, #10
 8002424:	f04f 32ff 	mov.w	r2, #4294967295	; 0xffffffff
 8002428:	9340      	str	r3, [sp, #256]	; 0x100
 800242a:	2380      	movs	r3, #128	; 0x80
 800242c:	f04f 4180 	mov.w	r1, #1073741824	; 0x40000000
 8002430:	60ea      	str	r2, [r5, #12]
 8002432:	61ab      	str	r3, [r5, #24]
 8002434:	2203      	movs	r2, #3
 8002436:	2300      	movs	r3, #0
 8002438:	e9cd 2338 	strd	r2, r3, [sp, #224]	; 0xe0
 800243c:	6029      	str	r1, [r5, #0]
 800243e:	2201      	movs	r2, #1
 8002440:	2300      	movs	r3, #0
 8002442:	4628      	mov	r0, r5
 8002444:	4659      	mov	r1, fp
 8002446:	e9cd 4432 	strd	r4, r4, [sp, #200]	; 0xc8
 800244a:	e9cd 9a3c 	strd	r9, sl, [sp, #240]	; 0xf0
 800244e:	e9c5 4401 	strd	r4, r4, [r5, #4]
 8002452:	e9cd 233a 	strd	r2, r3, [sp, #232]	; 0xe8
 8002456:	e9cd 233e 	strd	r2, r3, [sp, #248]	; 0xf8
 800245a:	612c      	str	r4, [r5, #16]
 800245c:	f003 ff6a 	bl	8006334 <HAL_TIM_Encoder_Init>
 8002460:	b108      	cbz	r0, 8002466 <main+0x546>
 8002462:	b672      	cpsid	i
 8002464:	e7fe      	b.n	8002464 <main+0x544>
 8002466:	a932      	add	r1, sp, #200	; 0xc8
 8002468:	4628      	mov	r0, r5
 800246a:	e9cd 9a32 	strd	r9, sl, [sp, #200]	; 0xc8
 800246e:	f004 f919 	bl	80066a4 <HAL_TIMEx_MasterConfigSynchronization>
 8002472:	4604      	mov	r4, r0
 8002474:	b190      	cbz	r0, 800249c <main+0x57c>
 8002476:	b672      	cpsid	i
 8002478:	e7fe      	b.n	8002478 <main+0x558>
 800247a:	bf00      	nop
 800247c:	40026428 	.word	0x40026428
 8002480:	40026440 	.word	0x40026440
 8002484:	40010000 	.word	0x40010000
 8002488:	20004608 	.word	0x20004608
 800248c:	40020400 	.word	0x40020400
 8002490:	40020000 	.word	0x40020000
 8002494:	40000400 	.word	0x40000400
 8002498:	2001286c 	.word	0x2001286c
 800249c:	f000 febc 	bl	8003218 <LCD_reset>
 80024a0:	48c7      	ldr	r0, [pc, #796]	; (80027c0 <main+0x8a0>)
 80024a2:	f007 f825 	bl	80094f0 <puts>
 80024a6:	213c      	movs	r1, #60	; 0x3c
 80024a8:	4628      	mov	r0, r5
 80024aa:	f003 ffef 	bl	800648c <HAL_TIM_Encoder_Start>
 80024ae:	4ac5      	ldr	r2, [pc, #788]	; (80027c4 <main+0x8a4>)
 80024b0:	4bc5      	ldr	r3, [pc, #788]	; (80027c8 <main+0x8a8>)
 80024b2:	6810      	ldr	r0, [r2, #0]
 80024b4:	6819      	ldr	r1, [r3, #0]
 80024b6:	4622      	mov	r2, r4
 80024b8:	4623      	mov	r3, r4
 80024ba:	f820 2013 	strh.w	r2, [r0, r3, lsl #1]
 80024be:	f821 2013 	strh.w	r2, [r1, r3, lsl #1]
 80024c2:	3301      	adds	r3, #1
 80024c4:	f5b3 7f80 	cmp.w	r3, #256	; 0x100
 80024c8:	d1f7      	bne.n	80024ba <main+0x59a>
 80024ca:	4bc0      	ldr	r3, [pc, #768]	; (80027cc <main+0x8ac>)
 80024cc:	4cc0      	ldr	r4, [pc, #768]	; (80027d0 <main+0x8b0>)
 80024ce:	48c1      	ldr	r0, [pc, #772]	; (80027d4 <main+0x8b4>)
 80024d0:	f8df 9374 	ldr.w	r9, [pc, #884]	; 8002848 <main+0x928>
 80024d4:	4fc0      	ldr	r7, [pc, #768]	; (80027d8 <main+0x8b8>)
 80024d6:	4ec1      	ldr	r6, [pc, #772]	; (80027dc <main+0x8bc>)
 80024d8:	22d1      	movs	r2, #209	; 0xd1
 80024da:	629a      	str	r2, [r3, #40]	; 0x28
 80024dc:	f003 fefa 	bl	80062d4 <HAL_TIM_Base_Start>
 80024e0:	6c63      	ldr	r3, [r4, #68]	; 0x44
 80024e2:	f423 4300 	bic.w	r3, r3, #32768	; 0x8000
 80024e6:	6463      	str	r3, [r4, #68]	; 0x44
 80024e8:	f7fe feca 	bl	8001280 <init_timers>
 80024ec:	2064      	movs	r0, #100	; 0x64
 80024ee:	f001 fccb 	bl	8003e88 <HAL_Delay>
 80024f2:	6c63      	ldr	r3, [r4, #68]	; 0x44
 80024f4:	48ba      	ldr	r0, [pc, #744]	; (80027e0 <main+0x8c0>)
 80024f6:	f443 4300 	orr.w	r3, r3, #32768	; 0x8000
 80024fa:	6463      	str	r3, [r4, #68]	; 0x44
 80024fc:	4cb9      	ldr	r4, [pc, #740]	; (80027e4 <main+0x8c4>)
 80024fe:	6821      	ldr	r1, [r4, #0]
 8002500:	f006 ff70 	bl	80093e4 <iprintf>
 8002504:	4bb8      	ldr	r3, [pc, #736]	; (80027e8 <main+0x8c8>)
 8002506:	49b9      	ldr	r1, [pc, #740]	; (80027ec <main+0x8cc>)
 8002508:	681a      	ldr	r2, [r3, #0]
 800250a:	6823      	ldr	r3, [r4, #0]
 800250c:	6809      	ldr	r1, [r1, #0]
 800250e:	9201      	str	r2, [sp, #4]
 8002510:	4ab7      	ldr	r2, [pc, #732]	; (80027f0 <main+0x8d0>)
 8002512:	48b8      	ldr	r0, [pc, #736]	; (80027f4 <main+0x8d4>)
 8002514:	6812      	ldr	r2, [r2, #0]
 8002516:	9304      	str	r3, [sp, #16]
 8002518:	4bb7      	ldr	r3, [pc, #732]	; (80027f8 <main+0x8d8>)
 800251a:	681b      	ldr	r3, [r3, #0]
 800251c:	9300      	str	r3, [sp, #0]
 800251e:	e9cd 1202 	strd	r1, r2, [sp, #8]
 8002522:	a3a5      	add	r3, pc, #660	; (adr r3, 80027b8 <main+0x898>)
 8002524:	e9d3 2300 	ldrd	r2, r3, [r3]
 8002528:	f006 ff5c 	bl	80093e4 <iprintf>
 800252c:	2400      	movs	r4, #0
 800252e:	4621      	mov	r1, r4
 8002530:	4638      	mov	r0, r7
 8002532:	f006 ff57 	bl	80093e4 <iprintf>
 8002536:	f8d9 3000 	ldr.w	r3, [r9]
 800253a:	4620      	mov	r0, r4
 800253c:	2b00      	cmp	r3, #0
 800253e:	f000 84ca 	beq.w	8002ed6 <main+0xfb6>
 8002542:	2c00      	cmp	r4, #0
 8002544:	f000 84c7 	beq.w	8002ed6 <main+0xfb6>
 8002548:	f04f 33ff 	mov.w	r3, #4294967295	; 0xffffffff
 800254c:	f04f 32ff 	mov.w	r2, #4294967295	; 0xffffffff
 8002550:	e9cd 2322 	strd	r2, r3, [sp, #136]	; 0x88
 8002554:	e9cd 2324 	strd	r2, r3, [sp, #144]	; 0x90
 8002558:	e9cd 2326 	strd	r2, r3, [sp, #152]	; 0x98
 800255c:	e9cd 232c 	strd	r2, r3, [sp, #176]	; 0xb0
 8002560:	2300      	movs	r3, #0
 8002562:	e9cd 3314 	strd	r3, r3, [sp, #80]	; 0x50
 8002566:	f04f 0a02 	mov.w	sl, #2
 800256a:	f8df 82e0 	ldr.w	r8, [pc, #736]	; 800284c <main+0x92c>
 800256e:	ed9f caa3 	vldr	s24, [pc, #652]	; 80027fc <main+0x8dc>
 8002572:	eddf baa3 	vldr	s23, [pc, #652]	; 8002800 <main+0x8e0>
 8002576:	930e      	str	r3, [sp, #56]	; 0x38
 8002578:	f8cd a034 	str.w	sl, [sp, #52]	; 0x34
 800257c:	f04f 4480 	mov.w	r4, #1073741824	; 0x40000000
 8002580:	48a0      	ldr	r0, [pc, #640]	; (8002804 <main+0x8e4>)
 8002582:	6a63      	ldr	r3, [r4, #36]	; 0x24
 8002584:	b29b      	uxth	r3, r3
 8002586:	f103 0278 	add.w	r2, r3, #120	; 0x78
 800258a:	08d3      	lsrs	r3, r2, #3
 800258c:	fba0 0303 	umull	r0, r3, r0, r3
 8002590:	f44f 71b4 	mov.w	r1, #360	; 0x168
 8002594:	089b      	lsrs	r3, r3, #2
 8002596:	fb01 2313 	mls	r3, r1, r3, r2
 800259a:	f8c8 3000 	str.w	r3, [r8]
 800259e:	f001 fc6d 	bl	8003e7c <HAL_GetTick>
 80025a2:	9b15      	ldr	r3, [sp, #84]	; 0x54
 80025a4:	ebb3 2fd0 	cmp.w	r3, r0, lsr #11
 80025a8:	d044      	beq.n	8002634 <main+0x714>
 80025aa:	f001 fc67 	bl	8003e7c <HAL_GetTick>
 80025ae:	4a96      	ldr	r2, [pc, #600]	; (8002808 <main+0x8e8>)
 80025b0:	4d91      	ldr	r5, [pc, #580]	; (80027f8 <main+0x8d8>)
 80025b2:	4603      	mov	r3, r0
 80025b4:	0adb      	lsrs	r3, r3, #11
 80025b6:	6810      	ldr	r0, [r2, #0]
 80025b8:	9315      	str	r3, [sp, #84]	; 0x54
 80025ba:	f7fd ffcd 	bl	8000558 <__aeabi_f2d>
 80025be:	f8d5 a000 	ldr.w	sl, [r5]
 80025c2:	4d8b      	ldr	r5, [pc, #556]	; (80027f0 <main+0x8d0>)
 80025c4:	460b      	mov	r3, r1
 80025c6:	4991      	ldr	r1, [pc, #580]	; (800280c <main+0x8ec>)
 80025c8:	682f      	ldr	r7, [r5, #0]
 80025ca:	ed91 8a00 	vldr	s16, [r1]
 80025ce:	4d85      	ldr	r5, [pc, #532]	; (80027e4 <main+0x8c4>)
 80025d0:	498f      	ldr	r1, [pc, #572]	; (8002810 <main+0x8f0>)
 80025d2:	682e      	ldr	r6, [r5, #0]
 80025d4:	6809      	ldr	r1, [r1, #0]
 80025d6:	4d8f      	ldr	r5, [pc, #572]	; (8002814 <main+0x8f4>)
 80025d8:	910f      	str	r1, [sp, #60]	; 0x3c
 80025da:	4602      	mov	r2, r0
 80025dc:	488e      	ldr	r0, [pc, #568]	; (8002818 <main+0x8f8>)
 80025de:	682d      	ldr	r5, [r5, #0]
 80025e0:	6800      	ldr	r0, [r0, #0]
 80025e2:	9012      	str	r0, [sp, #72]	; 0x48
 80025e4:	2104      	movs	r1, #4
 80025e6:	488d      	ldr	r0, [pc, #564]	; (800281c <main+0x8fc>)
 80025e8:	e9cd 2310 	strd	r2, r3, [sp, #64]	; 0x40
 80025ec:	f001 ff48 	bl	8004480 <HAL_GPIO_ReadPin>
 80025f0:	eef8 7a48 	vcvt.f32.u32	s15, s16
 80025f4:	6a61      	ldr	r1, [r4, #36]	; 0x24
 80025f6:	9b12      	ldr	r3, [sp, #72]	; 0x48
 80025f8:	910b      	str	r1, [sp, #44]	; 0x2c
 80025fa:	ee67 7a8c 	vmul.f32	s15, s15, s24
 80025fe:	990f      	ldr	r1, [sp, #60]	; 0x3c
 8002600:	900a      	str	r0, [sp, #40]	; 0x28
 8002602:	ee67 7aab 	vmul.f32	s15, s15, s23
 8002606:	9304      	str	r3, [sp, #16]
 8002608:	ee17 0a90 	vmov	r0, s15
 800260c:	9b0e      	ldr	r3, [sp, #56]	; 0x38
 800260e:	9305      	str	r3, [sp, #20]
 8002610:	e9cd 6508 	strd	r6, r5, [sp, #32]
 8002614:	e9cd a706 	strd	sl, r7, [sp, #24]
 8002618:	9103      	str	r1, [sp, #12]
 800261a:	ed8d 8a02 	vstr	s16, [sp, #8]
 800261e:	f7fd ff9b 	bl	8000558 <__aeabi_f2d>
 8002622:	e9dd 2310 	ldrd	r2, r3, [sp, #64]	; 0x40
 8002626:	e9cd 0100 	strd	r0, r1, [sp]
 800262a:	487d      	ldr	r0, [pc, #500]	; (8002820 <main+0x900>)
 800262c:	f240 1123 	movw	r1, #291	; 0x123
 8002630:	f006 fed8 	bl	80093e4 <iprintf>
 8002634:	4879      	ldr	r0, [pc, #484]	; (800281c <main+0x8fc>)
 8002636:	2104      	movs	r1, #4
 8002638:	f001 ff22 	bl	8004480 <HAL_GPIO_ReadPin>
 800263c:	b9e0      	cbnz	r0, 8002678 <main+0x758>
 800263e:	9a0d      	ldr	r2, [sp, #52]	; 0x34
 8002640:	4978      	ldr	r1, [pc, #480]	; (8002824 <main+0x904>)
 8002642:	3201      	adds	r2, #1
 8002644:	fb81 4102 	smull	r4, r1, r1, r2
 8002648:	17d4      	asrs	r4, r2, #31
 800264a:	ebc4 0161 	rsb	r1, r4, r1, asr #1
 800264e:	eb01 0181 	add.w	r1, r1, r1, lsl #2
 8002652:	1a52      	subs	r2, r2, r1
 8002654:	920d      	str	r2, [sp, #52]	; 0x34
 8002656:	f000 833e 	beq.w	8002cd6 <main+0xdb6>
 800265a:	2a01      	cmp	r2, #1
 800265c:	f000 83c8 	beq.w	8002df0 <main+0xed0>
 8002660:	2a02      	cmp	r2, #2
 8002662:	f000 83f6 	beq.w	8002e52 <main+0xf32>
 8002666:	2a03      	cmp	r2, #3
 8002668:	f000 83ee 	beq.w	8002e48 <main+0xf28>
 800266c:	2a04      	cmp	r2, #4
 800266e:	f000 845b 	beq.w	8002f28 <main+0x1008>
 8002672:	2064      	movs	r0, #100	; 0x64
 8002674:	f001 fc08 	bl	8003e88 <HAL_Delay>
 8002678:	9c0d      	ldr	r4, [sp, #52]	; 0x34
 800267a:	2c00      	cmp	r4, #0
 800267c:	f43f af7e 	beq.w	800257c <main+0x65c>
 8002680:	f001 fbfc 	bl	8003e7c <HAL_GetTick>
 8002684:	9b14      	ldr	r3, [sp, #80]	; 0x50
 8002686:	ed9f 0a68 	vldr	s0, [pc, #416]	; 8002828 <main+0x908>
 800268a:	9016      	str	r0, [sp, #88]	; 0x58
 800268c:	1ac3      	subs	r3, r0, r3
 800268e:	ee07 3a90 	vmov	s15, r3
 8002692:	eef8 7ae7 	vcvt.f32.s32	s15, s15
 8002696:	4605      	mov	r5, r0
 8002698:	ee27 0a80 	vmul.f32	s0, s15, s0
 800269c:	f009 f87e 	bl	800b79c <expf>
 80026a0:	1ee3      	subs	r3, r4, #3
 80026a2:	2b01      	cmp	r3, #1
 80026a4:	9514      	str	r5, [sp, #80]	; 0x50
 80026a6:	eeb0 ba40 	vmov.f32	s22, s0
 80026aa:	f200 8223 	bhi.w	8002af4 <main+0xbd4>
 80026ae:	4b5f      	ldr	r3, [pc, #380]	; (800282c <main+0x90c>)
 80026b0:	4a5f      	ldr	r2, [pc, #380]	; (8002830 <main+0x910>)
 80026b2:	681b      	ldr	r3, [r3, #0]
 80026b4:	6812      	ldr	r2, [r2, #0]
 80026b6:	eddf 6a5f 	vldr	s13, [pc, #380]	; 8002834 <main+0x914>
 80026ba:	ed9f 7a5f 	vldr	s14, [pc, #380]	; 8002838 <main+0x918>
 80026be:	4413      	add	r3, r2
 80026c0:	ee07 3a90 	vmov	s15, r3
 80026c4:	eefa 7aef 	vcvt.f32.s32	s15, s15, #1
 80026c8:	eef7 8a00 	vmov.f32	s17, #112	; 0x3f800000  1.0
 80026cc:	ee67 7aa6 	vmul.f32	s15, s15, s13
 80026d0:	eeb0 0a68 	vmov.f32	s0, s17
 80026d4:	eea7 0a87 	vfma.f32	s0, s15, s14
 80026d8:	f009 f89e 	bl	800b818 <logf>
 80026dc:	f8d8 1000 	ldr.w	r1, [r8]
 80026e0:	eeb0 8a40 	vmov.f32	s16, s0
 80026e4:	a832      	add	r0, sp, #200	; 0xc8
 80026e6:	eeb3 0a0e 	vmov.f32	s0, #62	; 0x41f00000  30.0
 80026ea:	f7fe fc35 	bl	8000f58 <hsv2rgb.constprop.0>
 80026ee:	f8bd 20d0 	ldrh.w	r2, [sp, #208]	; 0xd0
 80026f2:	f8bd 10cc 	ldrh.w	r1, [sp, #204]	; 0xcc
 80026f6:	f8bd 00c8 	ldrh.w	r0, [sp, #200]	; 0xc8
 80026fa:	f000 fc57 	bl	8002fac <color_convertRGB_to16d>
 80026fe:	ed9f 7a4f 	vldr	s14, [pc, #316]	; 800283c <main+0x91c>
 8002702:	eef2 7a0e 	vmov.f32	s15, #46	; 0x41700000  15.0
 8002706:	eee8 7a07 	vfma.f32	s15, s16, s14
 800270a:	4602      	mov	r2, r0
 800270c:	ee77 7aa8 	vadd.f32	s15, s15, s17
 8002710:	eefd 7ae7 	vcvt.s32.f32	s15, s15
 8002714:	ee17 3a90 	vmov	r3, s15
 8002718:	2b00      	cmp	r3, #0
 800271a:	f2c0 81b6 	blt.w	8002a8a <main+0xb6a>
 800271e:	f5b3 7f87 	cmp.w	r3, #270	; 0x10e
 8002722:	ee17 1a90 	vmov	r1, s15
 8002726:	bfa8      	it	ge
 8002728:	f44f 7187 	movge.w	r1, #270	; 0x10e
 800272c:	2bff      	cmp	r3, #255	; 0xff
 800272e:	bfa8      	it	ge
 8002730:	23ff      	movge	r3, #255	; 0xff
 8002732:	4d43      	ldr	r5, [pc, #268]	; (8002840 <main+0x920>)
 8002734:	2b1f      	cmp	r3, #31
 8002736:	bfb8      	it	lt
 8002738:	231f      	movlt	r3, #31
 800273a:	fba5 0501 	umull	r0, r5, r5, r1
 800273e:	08ed      	lsrs	r5, r5, #3
 8002740:	1ac9      	subs	r1, r1, r3
 8002742:	f1c3 04ff 	rsb	r4, r3, #255	; 0xff
 8002746:	910e      	str	r1, [sp, #56]	; 0x38
 8002748:	2c02      	cmp	r4, #2
 800274a:	f1c5 0159 	rsb	r1, r5, #89	; 0x59
 800274e:	9112      	str	r1, [sp, #72]	; 0x48
 8002750:	f1a3 0a1e 	sub.w	sl, r3, #30
 8002754:	f3c2 2107 	ubfx	r1, r2, #8, #8
 8002758:	930f      	str	r3, [sp, #60]	; 0x3c
 800275a:	f5c3 7680 	rsb	r6, r3, #256	; 0x100
 800275e:	b2d2      	uxtb	r2, r2
 8002760:	f240 83b7 	bls.w	8002ed2 <main+0xfb2>
 8002764:	2400      	movs	r4, #0
 8002766:	4837      	ldr	r0, [pc, #220]	; (8002844 <main+0x924>)
 8002768:	f361 0407 	bfi	r4, r1, #0, #8
 800276c:	f362 240f 	bfi	r4, r2, #8, #8
 8002770:	eb00 0743 	add.w	r7, r0, r3, lsl #1
 8002774:	f361 4417 	bfi	r4, r1, #16, #8
 8002778:	0870      	lsrs	r0, r6, #1
 800277a:	f362 641f 	bfi	r4, r2, #24, #8
 800277e:	eb07 0080 	add.w	r0, r7, r0, lsl #2
 8002782:	f847 4b04 	str.w	r4, [r7], #4
 8002786:	4287      	cmp	r7, r0
 8002788:	d1fb      	bne.n	8002782 <main+0x862>
 800278a:	f026 0401 	bic.w	r4, r6, #1
 800278e:	42a6      	cmp	r6, r4
 8002790:	eb04 0003 	add.w	r0, r4, r3
 8002794:	461e      	mov	r6, r3
 8002796:	d05b      	beq.n	8002850 <main+0x930>
 8002798:	4603      	mov	r3, r0
 800279a:	4c2a      	ldr	r4, [pc, #168]	; (8002844 <main+0x924>)
 800279c:	eb04 0043 	add.w	r0, r4, r3, lsl #1
 80027a0:	2bff      	cmp	r3, #255	; 0xff
 80027a2:	f804 1013 	strb.w	r1, [r4, r3, lsl #1]
 80027a6:	7042      	strb	r2, [r0, #1]
 80027a8:	d052      	beq.n	8002850 <main+0x930>
 80027aa:	2bfe      	cmp	r3, #254	; 0xfe
 80027ac:	7081      	strb	r1, [r0, #2]
 80027ae:	70c2      	strb	r2, [r0, #3]
 80027b0:	bf1c      	itt	ne
 80027b2:	7101      	strbne	r1, [r0, #4]
 80027b4:	7142      	strbne	r2, [r0, #5]
 80027b6:	e04b      	b.n	8002850 <main+0x930>
 80027b8:	2cddb0d3 	.word	0x2cddb0d3
 80027bc:	41119e4f 	.word	0x41119e4f
 80027c0:	08028ae4 	.word	0x08028ae4
 80027c4:	20000008 	.word	0x20000008
 80027c8:	2000000c 	.word	0x2000000c
 80027cc:	40000400 	.word	0x40000400
 80027d0:	40010000 	.word	0x40010000
 80027d4:	20004608 	.word	0x20004608
 80027d8:	08028b34 	.word	0x08028b34
 80027dc:	08028b44 	.word	0x08028b44
 80027e0:	08028af4 	.word	0x08028af4
 80027e4:	20000014 	.word	0x20000014
 80027e8:	20012808 	.word	0x20012808
 80027ec:	2001280c 	.word	0x2001280c
 80027f0:	20012938 	.word	0x20012938
 80027f4:	08028b04 	.word	0x08028b04
 80027f8:	20003fd0 	.word	0x20003fd0
 80027fc:	48c35000 	.word	0x48c35000
 8002800:	36800000 	.word	0x36800000
 8002804:	16c16c17 	.word	0x16c16c17
 8002808:	20000348 	.word	0x20000348
 800280c:	20003fcc 	.word	0x20003fcc
 8002810:	20000344 	.word	0x20000344
 8002814:	200045ec 	.word	0x200045ec
 8002818:	2000035c 	.word	0x2000035c
 800281c:	40020000 	.word	0x40020000
 8002820:	08028b54 	.word	0x08028b54
 8002824:	66666667 	.word	0x66666667
 8002828:	bada740e 	.word	0xbada740e
 800282c:	20000340 	.word	0x20000340
 8002830:	2000033c 	.word	0x2000033c
 8002834:	3807c3b6 	.word	0x3807c3b6
 8002838:	3fdbf0a8 	.word	0x3fdbf0a8
 800283c:	43520000 	.word	0x43520000
 8002840:	51eb851f 	.word	0x51eb851f
 8002844:	20003fec 	.word	0x20003fec
 8002848:	20000000 	.word	0x20000000
 800284c:	20000004 	.word	0x20000004
 8002850:	f1ba 0f01 	cmp.w	sl, #1
 8002854:	f000 833b 	beq.w	8002ece <main+0xfae>
 8002858:	f1c5 033b 	rsb	r3, r5, #59	; 0x3b
 800285c:	4c92      	ldr	r4, [pc, #584]	; (8002aa8 <main+0xb88>)
 800285e:	ee08 3a10 	vmov	s16, r3
 8002862:	1ea3      	subs	r3, r4, #2
 8002864:	ea4f 074a 	mov.w	r7, sl, lsl #1
 8002868:	eb03 034a 	add.w	r3, r3, sl, lsl #1
 800286c:	eeb8 8ac8 	vcvt.f32.s32	s16, s16
 8002870:	9710      	str	r7, [sp, #64]	; 0x40
 8002872:	4637      	mov	r7, r6
 8002874:	462e      	mov	r6, r5
 8002876:	461d      	mov	r5, r3
 8002878:	f8d8 1000 	ldr.w	r1, [r8]
 800287c:	eeb0 0a48 	vmov.f32	s0, s16
 8002880:	4658      	mov	r0, fp
 8002882:	f7fe fb69 	bl	8000f58 <hsv2rgb.constprop.0>
 8002886:	f8bd 20e8 	ldrh.w	r2, [sp, #232]	; 0xe8
 800288a:	f8bd 10e4 	ldrh.w	r1, [sp, #228]	; 0xe4
 800288e:	f8bd 00e0 	ldrh.w	r0, [sp, #224]	; 0xe0
 8002892:	f000 fb8b 	bl	8002fac <color_convertRGB_to16d>
 8002896:	0a02      	lsrs	r2, r0, #8
 8002898:	70e0      	strb	r0, [r4, #3]
 800289a:	70a2      	strb	r2, [r4, #2]
 800289c:	3402      	adds	r4, #2
 800289e:	42a5      	cmp	r5, r4
 80028a0:	d1ea      	bne.n	8002878 <main+0x958>
 80028a2:	4635      	mov	r5, r6
 80028a4:	463e      	mov	r6, r7
 80028a6:	9f10      	ldr	r7, [sp, #64]	; 0x40
 80028a8:	4b7f      	ldr	r3, [pc, #508]	; (8002aa8 <main+0xb88>)
 80028aa:	9a0f      	ldr	r2, [sp, #60]	; 0x3c
 80028ac:	eddf aa7f 	vldr	s21, [pc, #508]	; 8002aac <main+0xb8c>
 80028b0:	ed9f aa7f 	vldr	s20, [pc, #508]	; 8002ab0 <main+0xb90>
 80028b4:	eddf 9a7f 	vldr	s19, [pc, #508]	; 8002ab4 <main+0xb94>
 80028b8:	ed9f 9a7f 	vldr	s18, [pc, #508]	; 8002ab8 <main+0xb98>
 80028bc:	eddf 8a7f 	vldr	s17, [pc, #508]	; 8002abc <main+0xb9c>
 80028c0:	1c7c      	adds	r4, r7, #1
 80028c2:	441c      	add	r4, r3
 80028c4:	9b12      	ldr	r3, [sp, #72]	; 0x48
 80028c6:	1a9f      	subs	r7, r3, r2
 80028c8:	edd8 7a00 	vldr	s15, [r8]
 80028cc:	eef8 7ae7 	vcvt.f32.s32	s15, s15
 80028d0:	eeb1 7a08 	vmov.f32	s14, #24	; 0x40c00000  6.0
 80028d4:	eec7 ca8a 	vdiv.f32	s25, s15, s20
 80028d8:	eb07 030a 	add.w	r3, r7, sl
 80028dc:	ee08 3a10 	vmov	s16, r3
 80028e0:	ee6c ca87 	vmul.f32	s25, s25, s14
 80028e4:	eeb8 8ac8 	vcvt.f32.s32	s16, s16
 80028e8:	eeb0 0a6c 	vmov.f32	s0, s25
 80028ec:	f008 fea0 	bl	800b630 <floorf>
 80028f0:	eefd 7ac0 	vcvt.s32.f32	s15, s0
 80028f4:	4a72      	ldr	r2, [pc, #456]	; (8002ac0 <main+0xba0>)
 80028f6:	ee17 3a90 	vmov	r3, s15
 80028fa:	ee07 3a10 	vmov	s14, r3
 80028fe:	eeb8 7ac7 	vcvt.f32.s32	s14, s14
 8002902:	eef7 7a00 	vmov.f32	s15, #112	; 0x3f800000  1.0
 8002906:	ee7c cac7 	vsub.f32	s25, s25, s14
 800290a:	eeb0 7a67 	vmov.f32	s14, s15
 800290e:	ee77 6aec 	vsub.f32	s13, s15, s25
 8002912:	eeac 7ac9 	vfms.f32	s14, s25, s18
 8002916:	fb82 1203 	smull	r1, r2, r2, r3
 800291a:	eba2 72e3 	sub.w	r2, r2, r3, asr #31
 800291e:	eee6 7ac9 	vfms.f32	s15, s13, s18
 8002922:	eb02 0242 	add.w	r2, r2, r2, lsl #1
 8002926:	eba3 0342 	sub.w	r3, r3, r2, lsl #1
 800292a:	ee28 8a2a 	vmul.f32	s16, s16, s21
 800292e:	ee68 6a07 	vmul.f32	s13, s16, s14
 8002932:	ee68 7a27 	vmul.f32	s15, s16, s15
 8002936:	ee28 7a29 	vmul.f32	s14, s16, s19
 800293a:	2b05      	cmp	r3, #5
 800293c:	d804      	bhi.n	8002948 <main+0xa28>
 800293e:	e8df f003 	tbb	[pc, r3]
 8002942:	9f09      	.short	0x9f09
 8002944:	7f848d96 	.word	0x7f848d96
 8002948:	ed9f 7a5e 	vldr	s14, [pc, #376]	; 8002ac4 <main+0xba4>
 800294c:	eef0 7a47 	vmov.f32	s15, s14
 8002950:	eeb0 8a47 	vmov.f32	s16, s14
 8002954:	ee67 6a28 	vmul.f32	s13, s14, s17
 8002958:	ee27 7aa8 	vmul.f32	s14, s15, s17
 800295c:	eefd 6ae6 	vcvt.s32.f32	s13, s13
 8002960:	eebd 7ac7 	vcvt.s32.f32	s14, s14
 8002964:	ee16 3a90 	vmov	r3, s13
 8002968:	ee68 7a28 	vmul.f32	s15, s16, s17
 800296c:	b29a      	uxth	r2, r3
 800296e:	eefd 7ae7 	vcvt.s32.f32	s15, s15
 8002972:	ee17 3a10 	vmov	r3, s14
 8002976:	b299      	uxth	r1, r3
 8002978:	ee17 3a90 	vmov	r3, s15
 800297c:	b298      	uxth	r0, r3
 800297e:	f000 fb15 	bl	8002fac <color_convertRGB_to16d>
 8002982:	f10a 0a01 	add.w	sl, sl, #1
 8002986:	0a03      	lsrs	r3, r0, #8
 8002988:	45b2      	cmp	sl, r6
 800298a:	f804 3c01 	strb.w	r3, [r4, #-1]
 800298e:	f804 0b02 	strb.w	r0, [r4], #2
 8002992:	db99      	blt.n	80028c8 <main+0x9a8>
 8002994:	9b0e      	ldr	r3, [sp, #56]	; 0x38
 8002996:	2b00      	cmp	r3, #0
 8002998:	dd20      	ble.n	80029dc <main+0xabc>
 800299a:	f1c3 04ff 	rsb	r4, r3, #255	; 0xff
 800299e:	1b65      	subs	r5, r4, r5
 80029a0:	3564      	adds	r5, #100	; 0x64
 80029a2:	1b2b      	subs	r3, r5, r4
 80029a4:	ee00 3a10 	vmov	s0, r3
 80029a8:	f8d8 1000 	ldr.w	r1, [r8]
 80029ac:	eeb8 0ac0 	vcvt.f32.s32	s0, s0
 80029b0:	4658      	mov	r0, fp
 80029b2:	f7fe fad1 	bl	8000f58 <hsv2rgb.constprop.0>
 80029b6:	f8bd 20e8 	ldrh.w	r2, [sp, #232]	; 0xe8
 80029ba:	f8bd 10e4 	ldrh.w	r1, [sp, #228]	; 0xe4
 80029be:	f8bd 00e0 	ldrh.w	r0, [sp, #224]	; 0xe0
 80029c2:	f000 faf3 	bl	8002fac <color_convertRGB_to16d>
 80029c6:	4a40      	ldr	r2, [pc, #256]	; (8002ac8 <main+0xba8>)
 80029c8:	f802 0014 	strb.w	r0, [r2, r4, lsl #1]
 80029cc:	3a01      	subs	r2, #1
 80029ce:	0a03      	lsrs	r3, r0, #8
 80029d0:	f802 3014 	strb.w	r3, [r2, r4, lsl #1]
 80029d4:	3401      	adds	r4, #1
 80029d6:	f5b4 7f80 	cmp.w	r4, #256	; 0x100
 80029da:	d1e2      	bne.n	80029a2 <main+0xa82>
 80029dc:	f000 fba0 	bl	8003120 <LCD_getWidth>
 80029e0:	4604      	mov	r4, r0
 80029e2:	f000 fb9f 	bl	8003124 <LCD_getHeight>
 80029e6:	3850      	subs	r0, #80	; 0x50
 80029e8:	b283      	uxth	r3, r0
 80029ea:	482f      	ldr	r0, [pc, #188]	; (8002aa8 <main+0xb88>)
 80029ec:	9001      	str	r0, [sp, #4]
 80029ee:	f1a4 0250 	sub.w	r2, r4, #80	; 0x50
 80029f2:	4836      	ldr	r0, [pc, #216]	; (8002acc <main+0xbac>)
 80029f4:	9000      	str	r0, [sp, #0]
 80029f6:	2128      	movs	r1, #40	; 0x28
 80029f8:	b292      	uxth	r2, r2
 80029fa:	4608      	mov	r0, r1
 80029fc:	f000 fd98 	bl	8003530 <LCD_fillRectDataTable>
 8002a00:	f001 fa3c 	bl	8003e7c <HAL_GetTick>
 8002a04:	9a16      	ldr	r2, [sp, #88]	; 0x58
 8002a06:	4603      	mov	r3, r0
 8002a08:	1a9b      	subs	r3, r3, r2
 8002a0a:	201e      	movs	r0, #30
 8002a0c:	930e      	str	r3, [sp, #56]	; 0x38
 8002a0e:	f001 fa3b 	bl	8003e88 <HAL_Delay>
 8002a12:	4b2f      	ldr	r3, [pc, #188]	; (8002ad0 <main+0xbb0>)
 8002a14:	edd3 7a00 	vldr	s15, [r3]
 8002a18:	eef8 7ae7 	vcvt.f32.s32	s15, s15
 8002a1c:	ee67 7a8b 	vmul.f32	s15, s15, s22
 8002a20:	eefd 7ae7 	vcvt.s32.f32	s15, s15
 8002a24:	edc3 7a00 	vstr	s15, [r3]
 8002a28:	4b2a      	ldr	r3, [pc, #168]	; (8002ad4 <main+0xbb4>)
 8002a2a:	edd3 7a00 	vldr	s15, [r3]
 8002a2e:	eef8 7ae7 	vcvt.f32.s32	s15, s15
 8002a32:	ee27 ba8b 	vmul.f32	s22, s15, s22
 8002a36:	eebd bacb 	vcvt.s32.f32	s22, s22
 8002a3a:	ed83 ba00 	vstr	s22, [r3]
 8002a3e:	e59d      	b.n	800257c <main+0x65c>
 8002a40:	eef0 7a47 	vmov.f32	s15, s14
 8002a44:	eeb0 7a66 	vmov.f32	s14, s13
 8002a48:	e784      	b.n	8002954 <main+0xa34>
 8002a4a:	eef0 6a48 	vmov.f32	s13, s16
 8002a4e:	eeb0 8a67 	vmov.f32	s16, s15
 8002a52:	eef0 7a47 	vmov.f32	s15, s14
 8002a56:	eeb0 7a66 	vmov.f32	s14, s13
 8002a5a:	e77b      	b.n	8002954 <main+0xa34>
 8002a5c:	eeb0 6a48 	vmov.f32	s12, s16
 8002a60:	eef0 7a66 	vmov.f32	s15, s13
 8002a64:	eeb0 8a47 	vmov.f32	s16, s14
 8002a68:	eeb0 7a46 	vmov.f32	s14, s12
 8002a6c:	e772      	b.n	8002954 <main+0xa34>
 8002a6e:	eef0 6a48 	vmov.f32	s13, s16
 8002a72:	eeb0 8a47 	vmov.f32	s16, s14
 8002a76:	eeb0 7a67 	vmov.f32	s14, s15
 8002a7a:	eef0 7a66 	vmov.f32	s15, s13
 8002a7e:	e769      	b.n	8002954 <main+0xa34>
 8002a80:	eef0 7a48 	vmov.f32	s15, s16
 8002a84:	eeb0 8a66 	vmov.f32	s16, s13
 8002a88:	e764      	b.n	8002954 <main+0xa34>
 8002a8a:	f3c0 2107 	ubfx	r1, r0, #8, #8
 8002a8e:	b2c2      	uxtb	r2, r0
 8002a90:	2059      	movs	r0, #89	; 0x59
 8002a92:	231f      	movs	r3, #31
 8002a94:	9012      	str	r0, [sp, #72]	; 0x48
 8002a96:	f06f 001e 	mvn.w	r0, #30
 8002a9a:	930f      	str	r3, [sp, #60]	; 0x3c
 8002a9c:	f04f 0a01 	mov.w	sl, #1
 8002aa0:	26e1      	movs	r6, #225	; 0xe1
 8002aa2:	2500      	movs	r5, #0
 8002aa4:	900e      	str	r0, [sp, #56]	; 0x38
 8002aa6:	e65d      	b.n	8002764 <main+0x844>
 8002aa8:	20003fec 	.word	0x20003fec
 8002aac:	3c23d70a 	.word	0x3c23d70a
 8002ab0:	43b40000 	.word	0x43b40000
 8002ab4:	3d4cccd0 	.word	0x3d4cccd0
 8002ab8:	3f733333 	.word	0x3f733333
 8002abc:	437f0000 	.word	0x437f0000
 8002ac0:	2aaaaaab 	.word	0x2aaaaaab
 8002ac4:	00000000 	.word	0x00000000
 8002ac8:	20003fed 	.word	0x20003fed
 8002acc:	20004708 	.word	0x20004708
 8002ad0:	2000033c 	.word	0x2000033c
 8002ad4:	20000340 	.word	0x20000340
 8002ad8:	3807c3b6 	.word	0x3807c3b6
 8002adc:	3fdbf0a8 	.word	0x3fdbf0a8
 8002ae0:	42a80000 	.word	0x42a80000
 8002ae4:	42b40000 	.word	0x42b40000
 8002ae8:	43040000 	.word	0x43040000
 8002aec:	43070000 	.word	0x43070000
 8002af0:	42f40000 	.word	0x42f40000
 8002af4:	ab2c      	add	r3, sp, #176	; 0xb0
 8002af6:	9313      	str	r3, [sp, #76]	; 0x4c
 8002af8:	ab22      	add	r3, sp, #136	; 0x88
 8002afa:	9310      	str	r3, [sp, #64]	; 0x40
 8002afc:	f8d9 3000 	ldr.w	r3, [r9]
 8002b00:	ed5f aa0b 	vldr	s21, [pc, #-44]	; 8002ad8 <main+0xbb8>
 8002b04:	ed1f aa0b 	vldr	s20, [pc, #-44]	; 8002adc <main+0xbbc>
 8002b08:	ed5f 9a08 	vldr	s19, [pc, #-32]	; 8002aec <main+0xbcc>
 8002b0c:	ed1f 9a0a 	vldr	s18, [pc, #-40]	; 8002ae8 <main+0xbc8>
 8002b10:	ed5f 8a0c 	vldr	s17, [pc, #-48]	; 8002ae4 <main+0xbc4>
 8002b14:	ed1f 8a0e 	vldr	s16, [pc, #-56]	; 8002ae0 <main+0xbc0>
 8002b18:	f10d 0a90 	add.w	sl, sp, #144	; 0x90
 8002b1c:	2600      	movs	r6, #0
 8002b1e:	2b00      	cmp	r3, #0
 8002b20:	f000 80cb 	beq.w	8002cba <main+0xd9a>
 8002b24:	2e00      	cmp	r6, #0
 8002b26:	f000 813f 	beq.w	8002da8 <main+0xe88>
 8002b2a:	ed5f ca0f 	vldr	s25, [pc, #-60]	; 8002af0 <main+0xbd0>
 8002b2e:	f44f 748c 	mov.w	r4, #280	; 0x118
 8002b32:	4bcb      	ldr	r3, [pc, #812]	; (8002e60 <main+0xf40>)
 8002b34:	edd3 7a00 	vldr	s15, [r3]
 8002b38:	eef8 7ae7 	vcvt.f32.s32	s15, s15
 8002b3c:	eeb7 da00 	vmov.f32	s26, #112	; 0x3f800000  1.0
 8002b40:	ee67 7aaa 	vmul.f32	s15, s15, s21
 8002b44:	eeb0 0a4d 	vmov.f32	s0, s26
 8002b48:	eea7 0a8a 	vfma.f32	s0, s15, s20
 8002b4c:	f008 fe64 	bl	800b818 <logf>
 8002b50:	f8d9 5000 	ldr.w	r5, [r9]
 8002b54:	ed9f 6ac3 	vldr	s12, [pc, #780]	; 8002e64 <main+0xf44>
 8002b58:	eddf 6ac3 	vldr	s13, [pc, #780]	; 8002e68 <main+0xf48>
 8002b5c:	eeb4 0a4d 	vcmp.f32	s0, s26
 8002b60:	eef1 fa10 	vmrs	APSR_nzcv, fpscr
 8002b64:	eef0 7a40 	vmov.f32	s15, s0
 8002b68:	bfc8      	it	gt
 8002b6a:	eef0 7a4d 	vmovgt.f32	s15, s26
 8002b6e:	2d00      	cmp	r5, #0
 8002b70:	bf0c      	ite	eq
 8002b72:	eef0 5a48 	vmoveq.f32	s11, s16
 8002b76:	eef0 5a68 	vmovne.f32	s11, s17
 8002b7a:	bf0c      	ite	eq
 8002b7c:	eeb0 7a49 	vmoveq.f32	s14, s18
 8002b80:	eeb0 7a69 	vmovne.f32	s14, s19
 8002b84:	eea7 7ae5 	vfms.f32	s14, s15, s11
 8002b88:	eec7 da06 	vdiv.f32	s27, s14, s12
 8002b8c:	ee6d daa6 	vmul.f32	s27, s27, s13
 8002b90:	eeb0 0a6d 	vmov.f32	s0, s27
 8002b94:	f008 fd0c 	bl	800b5b0 <cosf>
 8002b98:	eeb0 da40 	vmov.f32	s26, s0
 8002b9c:	eeb0 0a6d 	vmov.f32	s0, s27
 8002ba0:	f008 fd88 	bl	800b6b4 <sinf>
 8002ba4:	eddf 7ab1 	vldr	s15, [pc, #708]	; 8002e6c <main+0xf4c>
 8002ba8:	eddf 6ab1 	vldr	s13, [pc, #708]	; 8002e70 <main+0xf50>
 8002bac:	ee2d 6a27 	vmul.f32	s12, s26, s15
 8002bb0:	ee60 7a67 	vnmul.f32	s15, s0, s15
 8002bb4:	eea0 6a2c 	vfma.f32	s12, s0, s25
 8002bb8:	eeed 7a2c 	vfma.f32	s15, s26, s25
 8002bbc:	eeb0 7a67 	vmov.f32	s14, s15
 8002bc0:	ee07 4a90 	vmov	s15, r4
 8002bc4:	eef8 7ae7 	vcvt.f32.s32	s15, s15
 8002bc8:	ee37 5a26 	vadd.f32	s10, s14, s13
 8002bcc:	ee77 5ac6 	vsub.f32	s11, s15, s12
 8002bd0:	eebd 5ac5 	vcvt.s32.f32	s10, s10
 8002bd4:	eefd 5ae5 	vcvt.s32.f32	s11, s11
 8002bd8:	ed8d 5a12 	vstr	s10, [sp, #72]	; 0x48
 8002bdc:	eeb0 da65 	vmov.f32	s26, s11
 8002be0:	2d00      	cmp	r5, #0
 8002be2:	f040 8087 	bne.w	8002cf4 <main+0xdd4>
 8002be6:	eddf 5aa3 	vldr	s11, [pc, #652]	; 8002e74 <main+0xf54>
 8002bea:	9b10      	ldr	r3, [sp, #64]	; 0x40
 8002bec:	eee7 6a25 	vfma.f32	s13, s14, s11
 8002bf0:	681c      	ldr	r4, [r3, #0]
 8002bf2:	eee6 7a65 	vfms.f32	s15, s12, s11
 8002bf6:	2c00      	cmp	r4, #0
 8002bf8:	eebd 7ae6 	vcvt.s32.f32	s14, s13
 8002bfc:	eefd 7ae7 	vcvt.s32.f32	s15, s15
 8002c00:	ed8d 7a0e 	vstr	s14, [sp, #56]	; 0x38
 8002c04:	edcd 7a0f 	vstr	s15, [sp, #60]	; 0x3c
 8002c08:	f300 808d 	bgt.w	8002d26 <main+0xe06>
 8002c0c:	9b0e      	ldr	r3, [sp, #56]	; 0x38
 8002c0e:	1fdd      	subs	r5, r3, #7
 8002c10:	9b12      	ldr	r3, [sp, #72]	; 0x48
 8002c12:	1fdf      	subs	r7, r3, #7
 8002c14:	f001 f8ba 	bl	8003d8c <getImageData>
 8002c18:	463a      	mov	r2, r7
 8002c1a:	9f0f      	ldr	r7, [sp, #60]	; 0x3c
 8002c1c:	9002      	str	r0, [sp, #8]
 8002c1e:	2404      	movs	r4, #4
 8002c20:	23f0      	movs	r3, #240	; 0xf0
 8002c22:	e9cd 3400 	strd	r3, r4, [sp]
 8002c26:	4639      	mov	r1, r7
 8002c28:	ee1d 3a10 	vmov	r3, s26
 8002c2c:	4628      	mov	r0, r5
 8002c2e:	f000 fdd3 	bl	80037d8 <LCD_Draw_LinePNXShadow>
 8002c32:	2243      	movs	r2, #67	; 0x43
 8002c34:	213b      	movs	r1, #59	; 0x3b
 8002c36:	2052      	movs	r0, #82	; 0x52
 8002c38:	f000 f9b8 	bl	8002fac <color_convertRGB_to16d>
 8002c3c:	2232      	movs	r2, #50	; 0x32
 8002c3e:	4603      	mov	r3, r0
 8002c40:	2113      	movs	r1, #19
 8002c42:	2068      	movs	r0, #104	; 0x68
 8002c44:	f8ad 30e0 	strh.w	r3, [sp, #224]	; 0xe0
 8002c48:	f000 f9b0 	bl	8002fac <color_convertRGB_to16d>
 8002c4c:	2264      	movs	r2, #100	; 0x64
 8002c4e:	4603      	mov	r3, r0
 8002c50:	2126      	movs	r1, #38	; 0x26
 8002c52:	20d1      	movs	r0, #209	; 0xd1
 8002c54:	f8ad 30e2 	strh.w	r3, [sp, #226]	; 0xe2
 8002c58:	f000 f9a8 	bl	8002fac <color_convertRGB_to16d>
 8002c5c:	222f      	movs	r2, #47	; 0x2f
 8002c5e:	4603      	mov	r3, r0
 8002c60:	2127      	movs	r1, #39	; 0x27
 8002c62:	203e      	movs	r0, #62	; 0x3e
 8002c64:	f8ad 30e4 	strh.w	r3, [sp, #228]	; 0xe4
 8002c68:	f000 f9a0 	bl	8002fac <color_convertRGB_to16d>
 8002c6c:	e9cd 4b00 	strd	r4, fp, [sp]
 8002c70:	970f      	str	r7, [sp, #60]	; 0x3c
 8002c72:	9c12      	ldr	r4, [sp, #72]	; 0x48
 8002c74:	4639      	mov	r1, r7
 8002c76:	9f0e      	ldr	r7, [sp, #56]	; 0x38
 8002c78:	4605      	mov	r5, r0
 8002c7a:	1ea2      	subs	r2, r4, #2
 8002c7c:	ee1d 3a10 	vmov	r3, s26
 8002c80:	1eb8      	subs	r0, r7, #2
 8002c82:	f8ad 50e6 	strh.w	r5, [sp, #230]	; 0xe6
 8002c86:	f000 fcad 	bl	80035e4 <LCD_Draw_LineNX>
 8002c8a:	9a13      	ldr	r2, [sp, #76]	; 0x4c
 8002c8c:	ecaa da01 	vstmia	sl!, {s26}
 8002c90:	a826      	add	r0, sp, #152	; 0x98
 8002c92:	f840 7026 	str.w	r7, [r0, r6, lsl #2]
 8002c96:	4610      	mov	r0, r2
 8002c98:	9a0f      	ldr	r2, [sp, #60]	; 0x3c
 8002c9a:	f840 2b04 	str.w	r2, [r0], #4
 8002c9e:	9a10      	ldr	r2, [sp, #64]	; 0x40
 8002ca0:	9013      	str	r0, [sp, #76]	; 0x4c
 8002ca2:	f842 4b04 	str.w	r4, [r2], #4
 8002ca6:	9210      	str	r2, [sp, #64]	; 0x40
 8002ca8:	2e00      	cmp	r6, #0
 8002caa:	f47f aea9 	bne.w	8002a00 <main+0xae0>
 8002cae:	f8d9 3000 	ldr.w	r3, [r9]
 8002cb2:	2601      	movs	r6, #1
 8002cb4:	2b00      	cmp	r3, #0
 8002cb6:	f47f af35 	bne.w	8002b24 <main+0xc04>
 8002cba:	4630      	mov	r0, r6
 8002cbc:	f000 f93c 	bl	8002f38 <setLCD>
 8002cc0:	f8d9 3000 	ldr.w	r3, [r9]
 8002cc4:	2b00      	cmp	r3, #0
 8002cc6:	f040 808c 	bne.w	8002de2 <main+0xec2>
 8002cca:	2e00      	cmp	r6, #0
 8002ccc:	d063      	beq.n	8002d96 <main+0xe76>
 8002cce:	eddf ca6a 	vldr	s25, [pc, #424]	; 8002e78 <main+0xf58>
 8002cd2:	24a7      	movs	r4, #167	; 0xa7
 8002cd4:	e72d      	b.n	8002b32 <main+0xc12>
 8002cd6:	4614      	mov	r4, r2
 8002cd8:	4868      	ldr	r0, [pc, #416]	; (8002e7c <main+0xf5c>)
 8002cda:	f44f 7100 	mov.w	r1, #512	; 0x200
 8002cde:	f001 fbd5 	bl	800448c <HAL_GPIO_WritePin>
 8002ce2:	f000 fa99 	bl	8003218 <LCD_reset>
 8002ce6:	4865      	ldr	r0, [pc, #404]	; (8002e7c <main+0xf5c>)
 8002ce8:	4622      	mov	r2, r4
 8002cea:	f44f 7100 	mov.w	r1, #512	; 0x200
 8002cee:	f001 fbcd 	bl	800448c <HAL_GPIO_WritePin>
 8002cf2:	e4be      	b.n	8002672 <main+0x752>
 8002cf4:	eddf 5a62 	vldr	s11, [pc, #392]	; 8002e80 <main+0xf60>
 8002cf8:	9b10      	ldr	r3, [sp, #64]	; 0x40
 8002cfa:	eee7 6a25 	vfma.f32	s13, s14, s11
 8002cfe:	681c      	ldr	r4, [r3, #0]
 8002d00:	eee6 7a65 	vfms.f32	s15, s12, s11
 8002d04:	2c00      	cmp	r4, #0
 8002d06:	eebd 7ae6 	vcvt.s32.f32	s14, s13
 8002d0a:	eefd 7ae7 	vcvt.s32.f32	s15, s15
 8002d0e:	ed8d 7a0e 	vstr	s14, [sp, #56]	; 0x38
 8002d12:	edcd 7a0f 	vstr	s15, [sp, #60]	; 0x3c
 8002d16:	dc51      	bgt.n	8002dbc <main+0xe9c>
 8002d18:	9b0e      	ldr	r3, [sp, #56]	; 0x38
 8002d1a:	1fdd      	subs	r5, r3, #7
 8002d1c:	9b12      	ldr	r3, [sp, #72]	; 0x48
 8002d1e:	1fdf      	subs	r7, r3, #7
 8002d20:	f7fe f916 	bl	8000f50 <getImageDataDual>
 8002d24:	e778      	b.n	8002c18 <main+0xcf8>
 8002d26:	ab26      	add	r3, sp, #152	; 0x98
 8002d28:	f8da 7000 	ldr.w	r7, [sl]
 8002d2c:	f853 5026 	ldr.w	r5, [r3, r6, lsl #2]
 8002d30:	9b13      	ldr	r3, [sp, #76]	; 0x4c
 8002d32:	681b      	ldr	r3, [r3, #0]
 8002d34:	ee0c 3a90 	vmov	s25, r3
 8002d38:	f001 f828 	bl	8003d8c <getImageData>
 8002d3c:	f1a5 0e07 	sub.w	lr, r5, #7
 8002d40:	1fe2      	subs	r2, r4, #7
 8002d42:	2104      	movs	r1, #4
 8002d44:	23f0      	movs	r3, #240	; 0xf0
 8002d46:	e9cd 3100 	strd	r3, r1, [sp]
 8002d4a:	9002      	str	r0, [sp, #8]
 8002d4c:	463b      	mov	r3, r7
 8002d4e:	ee1c 1a90 	vmov	r1, s25
 8002d52:	4670      	mov	r0, lr
 8002d54:	f000 fcc0 	bl	80036d8 <LCD_Draw_LinePNX>
 8002d58:	f8d9 3000 	ldr.w	r3, [r9]
 8002d5c:	1ea2      	subs	r2, r4, #2
 8002d5e:	3d02      	subs	r5, #2
 8002d60:	9217      	str	r2, [sp, #92]	; 0x5c
 8002d62:	2b00      	cmp	r3, #0
 8002d64:	d140      	bne.n	8002de8 <main+0xec8>
 8002d66:	f001 f811 	bl	8003d8c <getImageData>
 8002d6a:	9a17      	ldr	r2, [sp, #92]	; 0x5c
 8002d6c:	9002      	str	r0, [sp, #8]
 8002d6e:	f04f 0c04 	mov.w	ip, #4
 8002d72:	24f0      	movs	r4, #240	; 0xf0
 8002d74:	463b      	mov	r3, r7
 8002d76:	4628      	mov	r0, r5
 8002d78:	e9cd 4c00 	strd	r4, ip, [sp]
 8002d7c:	ee1c 1a90 	vmov	r1, s25
 8002d80:	f000 fcaa 	bl	80036d8 <LCD_Draw_LinePNX>
 8002d84:	9a0e      	ldr	r2, [sp, #56]	; 0x38
 8002d86:	f8d9 3000 	ldr.w	r3, [r9]
 8002d8a:	1fd5      	subs	r5, r2, #7
 8002d8c:	9a12      	ldr	r2, [sp, #72]	; 0x48
 8002d8e:	1fd7      	subs	r7, r2, #7
 8002d90:	2b00      	cmp	r3, #0
 8002d92:	d1c5      	bne.n	8002d20 <main+0xe00>
 8002d94:	e73e      	b.n	8002c14 <main+0xcf4>
 8002d96:	eddf ca38 	vldr	s25, [pc, #224]	; 8002e78 <main+0xf58>
 8002d9a:	24a7      	movs	r4, #167	; 0xa7
 8002d9c:	4b39      	ldr	r3, [pc, #228]	; (8002e84 <main+0xf64>)
 8002d9e:	edd3 7a00 	vldr	s15, [r3]
 8002da2:	eef8 7ae7 	vcvt.f32.s32	s15, s15
 8002da6:	e6c9      	b.n	8002b3c <main+0xc1c>
 8002da8:	4630      	mov	r0, r6
 8002daa:	f000 f8c5 	bl	8002f38 <setLCD>
 8002dae:	f8d9 3000 	ldr.w	r3, [r9]
 8002db2:	b193      	cbz	r3, 8002dda <main+0xeba>
 8002db4:	eddf ca34 	vldr	s25, [pc, #208]	; 8002e88 <main+0xf68>
 8002db8:	2496      	movs	r4, #150	; 0x96
 8002dba:	e7ef      	b.n	8002d9c <main+0xe7c>
 8002dbc:	ab26      	add	r3, sp, #152	; 0x98
 8002dbe:	f8da 7000 	ldr.w	r7, [sl]
 8002dc2:	f853 5026 	ldr.w	r5, [r3, r6, lsl #2]
 8002dc6:	9b13      	ldr	r3, [sp, #76]	; 0x4c
 8002dc8:	681b      	ldr	r3, [r3, #0]
 8002dca:	ee0c 3a90 	vmov	s25, r3
 8002dce:	f7fe f8bf 	bl	8000f50 <getImageDataDual>
 8002dd2:	f1a5 0e07 	sub.w	lr, r5, #7
 8002dd6:	1fe2      	subs	r2, r4, #7
 8002dd8:	e7b3      	b.n	8002d42 <main+0xe22>
 8002dda:	eddf ca27 	vldr	s25, [pc, #156]	; 8002e78 <main+0xf58>
 8002dde:	24a7      	movs	r4, #167	; 0xa7
 8002de0:	e7dc      	b.n	8002d9c <main+0xe7c>
 8002de2:	2e00      	cmp	r6, #0
 8002de4:	d0e6      	beq.n	8002db4 <main+0xe94>
 8002de6:	e6a0      	b.n	8002b2a <main+0xc0a>
 8002de8:	f7fe f8b2 	bl	8000f50 <getImageDataDual>
 8002dec:	9a17      	ldr	r2, [sp, #92]	; 0x5c
 8002dee:	e7bd      	b.n	8002d6c <main+0xe4c>
 8002df0:	f04f 32ff 	mov.w	r2, #4294967295	; 0xffffffff
 8002df4:	f8c9 0000 	str.w	r0, [r9]
 8002df8:	9222      	str	r2, [sp, #136]	; 0x88
 8002dfa:	f000 f89d 	bl	8002f38 <setLCD>
 8002dfe:	f000 fa33 	bl	8003268 <LCD_init>
 8002e02:	2002      	movs	r0, #2
 8002e04:	f000 f8e0 	bl	8002fc8 <LCD_setRotation>
 8002e08:	f000 f98a 	bl	8003120 <LCD_getWidth>
 8002e0c:	4604      	mov	r4, r0
 8002e0e:	f000 f989 	bl	8003124 <LCD_getHeight>
 8002e12:	f8d9 3000 	ldr.w	r3, [r9]
 8002e16:	4605      	mov	r5, r0
 8002e18:	2b00      	cmp	r3, #0
 8002e1a:	d152      	bne.n	8002ec2 <main+0xfa2>
 8002e1c:	f000 ffb6 	bl	8003d8c <getImageData>
 8002e20:	2100      	movs	r1, #0
 8002e22:	9000      	str	r0, [sp, #0]
 8002e24:	462b      	mov	r3, r5
 8002e26:	4622      	mov	r2, r4
 8002e28:	4608      	mov	r0, r1
 8002e2a:	f000 fb59 	bl	80034e0 <LCD_fillRectData>
 8002e2e:	f8d9 3000 	ldr.w	r3, [r9]
 8002e32:	f04f 32ff 	mov.w	r2, #4294967295	; 0xffffffff
 8002e36:	9223      	str	r2, [sp, #140]	; 0x8c
 8002e38:	b343      	cbz	r3, 8002e8c <main+0xf6c>
 8002e3a:	4810      	ldr	r0, [pc, #64]	; (8002e7c <main+0xf5c>)
 8002e3c:	2201      	movs	r2, #1
 8002e3e:	f44f 7100 	mov.w	r1, #512	; 0x200
 8002e42:	f001 fb23 	bl	800448c <HAL_GPIO_WritePin>
 8002e46:	e414      	b.n	8002672 <main+0x752>
 8002e48:	f7fe fea2 	bl	8001b90 <tableSetup>
 8002e4c:	f7fe f91e 	bl	800108c <paintLevels.constprop.0>
 8002e50:	e40f      	b.n	8002672 <main+0x752>
 8002e52:	2201      	movs	r2, #1
 8002e54:	f04f 33ff 	mov.w	r3, #4294967295	; 0xffffffff
 8002e58:	f8c9 2000 	str.w	r2, [r9]
 8002e5c:	9322      	str	r3, [sp, #136]	; 0x88
 8002e5e:	e7cc      	b.n	8002dfa <main+0xeda>
 8002e60:	20000340 	.word	0x20000340
 8002e64:	43340000 	.word	0x43340000
 8002e68:	40490fdb 	.word	0x40490fdb
 8002e6c:	00000000 	.word	0x00000000
 8002e70:	42f20000 	.word	0x42f20000
 8002e74:	3e6147ae 	.word	0x3e6147ae
 8002e78:	42cc0000 	.word	0x42cc0000
 8002e7c:	40020400 	.word	0x40020400
 8002e80:	3eb33333 	.word	0x3eb33333
 8002e84:	2000033c 	.word	0x2000033c
 8002e88:	42f40000 	.word	0x42f40000
 8002e8c:	2001      	movs	r0, #1
 8002e8e:	f000 f853 	bl	8002f38 <setLCD>
 8002e92:	f000 f9e9 	bl	8003268 <LCD_init>
 8002e96:	2002      	movs	r0, #2
 8002e98:	f000 f896 	bl	8002fc8 <LCD_setRotation>
 8002e9c:	f000 f940 	bl	8003120 <LCD_getWidth>
 8002ea0:	4604      	mov	r4, r0
 8002ea2:	f000 f93f 	bl	8003124 <LCD_getHeight>
 8002ea6:	f8d9 3000 	ldr.w	r3, [r9]
 8002eaa:	4605      	mov	r5, r0
 8002eac:	b963      	cbnz	r3, 8002ec8 <main+0xfa8>
 8002eae:	f000 ff6d 	bl	8003d8c <getImageData>
 8002eb2:	2100      	movs	r1, #0
 8002eb4:	9000      	str	r0, [sp, #0]
 8002eb6:	462b      	mov	r3, r5
 8002eb8:	4622      	mov	r2, r4
 8002eba:	4608      	mov	r0, r1
 8002ebc:	f000 fb10 	bl	80034e0 <LCD_fillRectData>
 8002ec0:	e7bb      	b.n	8002e3a <main+0xf1a>
 8002ec2:	f7fe f845 	bl	8000f50 <getImageDataDual>
 8002ec6:	e7ab      	b.n	8002e20 <main+0xf00>
 8002ec8:	f7fe f842 	bl	8000f50 <getImageDataDual>
 8002ecc:	e7f1      	b.n	8002eb2 <main+0xf92>
 8002ece:	2702      	movs	r7, #2
 8002ed0:	e4ea      	b.n	80028a8 <main+0x988>
 8002ed2:	461e      	mov	r6, r3
 8002ed4:	e461      	b.n	800279a <main+0x87a>
 8002ed6:	f000 f82f 	bl	8002f38 <setLCD>
 8002eda:	f000 f9c5 	bl	8003268 <LCD_init>
 8002ede:	2002      	movs	r0, #2
 8002ee0:	f000 f872 	bl	8002fc8 <LCD_setRotation>
 8002ee4:	f000 ffca 	bl	8003e7c <HAL_GetTick>
 8002ee8:	4605      	mov	r5, r0
 8002eea:	f000 f919 	bl	8003120 <LCD_getWidth>
 8002eee:	900e      	str	r0, [sp, #56]	; 0x38
 8002ef0:	f000 f918 	bl	8003124 <LCD_getHeight>
 8002ef4:	900d      	str	r0, [sp, #52]	; 0x34
 8002ef6:	f7fe fe41 	bl	8001b7c <getLCD_Data>
 8002efa:	2100      	movs	r1, #0
 8002efc:	e9dd 320d 	ldrd	r3, r2, [sp, #52]	; 0x34
 8002f00:	9000      	str	r0, [sp, #0]
 8002f02:	4608      	mov	r0, r1
 8002f04:	f000 faec 	bl	80034e0 <LCD_fillRectData>
 8002f08:	f000 ffb8 	bl	8003e7c <HAL_GetTick>
 8002f0c:	f44f 717a 	mov.w	r1, #1000	; 0x3e8
 8002f10:	1b40      	subs	r0, r0, r5
 8002f12:	fb01 f100 	mul.w	r1, r1, r0
 8002f16:	4630      	mov	r0, r6
 8002f18:	f006 fa64 	bl	80093e4 <iprintf>
 8002f1c:	2c00      	cmp	r4, #0
 8002f1e:	f47f ab13 	bne.w	8002548 <main+0x628>
 8002f22:	2401      	movs	r4, #1
 8002f24:	f7ff bb03 	b.w	800252e <main+0x60e>
 8002f28:	f7fe feb6 	bl	8001c98 <tableSetup1>
 8002f2c:	f7fe f8ae 	bl	800108c <paintLevels.constprop.0>
 8002f30:	f7ff bb9f 	b.w	8002672 <main+0x752>

08002f34 <Error_Handler>:
 8002f34:	b672      	cpsid	i
 8002f36:	e7fe      	b.n	8002f36 <Error_Handler+0x2>

08002f38 <setLCD>:
 8002f38:	b530      	push	{r4, r5, lr}
 8002f3a:	4d14      	ldr	r5, [pc, #80]	; (8002f8c <setLCD+0x54>)
 8002f3c:	682b      	ldr	r3, [r5, #0]
 8002f3e:	4283      	cmp	r3, r0
 8002f40:	b097      	sub	sp, #92	; 0x5c
 8002f42:	d012      	beq.n	8002f6a <setLCD+0x32>
 8002f44:	4604      	mov	r4, r0
 8002f46:	2258      	movs	r2, #88	; 0x58
 8002f48:	4668      	mov	r0, sp
 8002f4a:	b184      	cbz	r4, 8002f6e <setLCD+0x36>
 8002f4c:	4910      	ldr	r1, [pc, #64]	; (8002f90 <setLCD+0x58>)
 8002f4e:	f005 fdc9 	bl	8008ae4 <memcpy>
 8002f52:	4669      	mov	r1, sp
 8002f54:	2258      	movs	r2, #88	; 0x58
 8002f56:	480f      	ldr	r0, [pc, #60]	; (8002f94 <setLCD+0x5c>)
 8002f58:	f005 fdc4 	bl	8008ae4 <memcpy>
 8002f5c:	4a0e      	ldr	r2, [pc, #56]	; (8002f98 <setLCD+0x60>)
 8002f5e:	4b0f      	ldr	r3, [pc, #60]	; (8002f9c <setLCD+0x64>)
 8002f60:	490f      	ldr	r1, [pc, #60]	; (8002fa0 <setLCD+0x68>)
 8002f62:	6011      	str	r1, [r2, #0]
 8002f64:	2210      	movs	r2, #16
 8002f66:	601a      	str	r2, [r3, #0]
 8002f68:	602c      	str	r4, [r5, #0]
 8002f6a:	b017      	add	sp, #92	; 0x5c
 8002f6c:	bd30      	pop	{r4, r5, pc}
 8002f6e:	490d      	ldr	r1, [pc, #52]	; (8002fa4 <setLCD+0x6c>)
 8002f70:	f005 fdb8 	bl	8008ae4 <memcpy>
 8002f74:	4669      	mov	r1, sp
 8002f76:	2258      	movs	r2, #88	; 0x58
 8002f78:	4806      	ldr	r0, [pc, #24]	; (8002f94 <setLCD+0x5c>)
 8002f7a:	f005 fdb3 	bl	8008ae4 <memcpy>
 8002f7e:	4a06      	ldr	r2, [pc, #24]	; (8002f98 <setLCD+0x60>)
 8002f80:	4b06      	ldr	r3, [pc, #24]	; (8002f9c <setLCD+0x64>)
 8002f82:	4909      	ldr	r1, [pc, #36]	; (8002fa8 <setLCD+0x70>)
 8002f84:	6011      	str	r1, [r2, #0]
 8002f86:	2210      	movs	r2, #16
 8002f88:	601a      	str	r2, [r3, #0]
 8002f8a:	e7ed      	b.n	8002f68 <setLCD+0x30>
 8002f8c:	20000018 	.word	0x20000018
 8002f90:	20012810 	.word	0x20012810
 8002f94:	20012998 	.word	0x20012998
 8002f98:	20012990 	.word	0x20012990
 8002f9c:	200129f0 	.word	0x200129f0
 8002fa0:	40020000 	.word	0x40020000
 8002fa4:	20004650 	.word	0x20004650
 8002fa8:	40020400 	.word	0x40020400

08002fac <color_convertRGB_to16d>:
 8002fac:	4b05      	ldr	r3, [pc, #20]	; (8002fc4 <color_convertRGB_to16d+0x18>)
 8002fae:	00c9      	lsls	r1, r1, #3
 8002fb0:	f3c2 02c4 	ubfx	r2, r2, #3, #5
 8002fb4:	f401 61fc 	and.w	r1, r1, #2016	; 0x7e0
 8002fb8:	4311      	orrs	r1, r2
 8002fba:	ea03 2000 	and.w	r0, r3, r0, lsl #8
 8002fbe:	4308      	orrs	r0, r1
 8002fc0:	b280      	uxth	r0, r0
 8002fc2:	4770      	bx	lr
 8002fc4:	fffff800 	.word	0xfffff800

08002fc8 <LCD_setRotation>:
 8002fc8:	b5f0      	push	{r4, r5, r6, r7, lr}
 8002fca:	4e50      	ldr	r6, [pc, #320]	; (800310c <LCD_setRotation+0x144>)
 8002fcc:	4f50      	ldr	r7, [pc, #320]	; (8003110 <LCD_setRotation+0x148>)
 8002fce:	6833      	ldr	r3, [r6, #0]
 8002fd0:	683a      	ldr	r2, [r7, #0]
 8002fd2:	4c50      	ldr	r4, [pc, #320]	; (8003114 <LCD_setRotation+0x14c>)
 8002fd4:	041b      	lsls	r3, r3, #16
 8002fd6:	b085      	sub	sp, #20
 8002fd8:	6193      	str	r3, [r2, #24]
 8002fda:	2336      	movs	r3, #54	; 0x36
 8002fdc:	4605      	mov	r5, r0
 8002fde:	f88d 300e 	strb.w	r3, [sp, #14]
 8002fe2:	f894 2051 	ldrb.w	r2, [r4, #81]	; 0x51
 8002fe6:	2a01      	cmp	r2, #1
 8002fe8:	b2d3      	uxtb	r3, r2
 8002fea:	d1fa      	bne.n	8002fe2 <LCD_setRotation+0x1a>
 8002fec:	f44f 707a 	mov.w	r0, #1000	; 0x3e8
 8002ff0:	9000      	str	r0, [sp, #0]
 8002ff2:	f10d 020f 	add.w	r2, sp, #15
 8002ff6:	4847      	ldr	r0, [pc, #284]	; (8003114 <LCD_setRotation+0x14c>)
 8002ff8:	f10d 010e 	add.w	r1, sp, #14
 8002ffc:	f002 ff66 	bl	8005ecc <HAL_SPI_TransmitReceive>
 8003000:	f894 3051 	ldrb.w	r3, [r4, #81]	; 0x51
 8003004:	2b01      	cmp	r3, #1
 8003006:	d1fb      	bne.n	8003000 <LCD_setRotation+0x38>
 8003008:	683b      	ldr	r3, [r7, #0]
 800300a:	6832      	ldr	r2, [r6, #0]
 800300c:	619a      	str	r2, [r3, #24]
 800300e:	f005 0003 	and.w	r0, r5, #3
 8003012:	2802      	cmp	r0, #2
 8003014:	d05c      	beq.n	80030d0 <LCD_setRotation+0x108>
 8003016:	2803      	cmp	r0, #3
 8003018:	d03d      	beq.n	8003096 <LCD_setRotation+0xce>
 800301a:	2801      	cmp	r0, #1
 800301c:	d01d      	beq.n	800305a <LCD_setRotation+0x92>
 800301e:	23c0      	movs	r3, #192	; 0xc0
 8003020:	f88d 300e 	strb.w	r3, [sp, #14]
 8003024:	f894 2051 	ldrb.w	r2, [r4, #81]	; 0x51
 8003028:	2a01      	cmp	r2, #1
 800302a:	b2d3      	uxtb	r3, r2
 800302c:	d1fa      	bne.n	8003024 <LCD_setRotation+0x5c>
 800302e:	f44f 707a 	mov.w	r0, #1000	; 0x3e8
 8003032:	9000      	str	r0, [sp, #0]
 8003034:	f10d 020f 	add.w	r2, sp, #15
 8003038:	4836      	ldr	r0, [pc, #216]	; (8003114 <LCD_setRotation+0x14c>)
 800303a:	f10d 010e 	add.w	r1, sp, #14
 800303e:	f002 ff45 	bl	8005ecc <HAL_SPI_TransmitReceive>
 8003042:	f894 3051 	ldrb.w	r3, [r4, #81]	; 0x51
 8003046:	2b01      	cmp	r3, #1
 8003048:	d1fb      	bne.n	8003042 <LCD_setRotation+0x7a>
 800304a:	4933      	ldr	r1, [pc, #204]	; (8003118 <LCD_setRotation+0x150>)
 800304c:	4b33      	ldr	r3, [pc, #204]	; (800311c <LCD_setRotation+0x154>)
 800304e:	2000      	movs	r0, #0
 8003050:	2250      	movs	r2, #80	; 0x50
 8003052:	7008      	strb	r0, [r1, #0]
 8003054:	701a      	strb	r2, [r3, #0]
 8003056:	b005      	add	sp, #20
 8003058:	bdf0      	pop	{r4, r5, r6, r7, pc}
 800305a:	23a0      	movs	r3, #160	; 0xa0
 800305c:	f88d 300e 	strb.w	r3, [sp, #14]
 8003060:	f894 2051 	ldrb.w	r2, [r4, #81]	; 0x51
 8003064:	2a01      	cmp	r2, #1
 8003066:	b2d3      	uxtb	r3, r2
 8003068:	d1fa      	bne.n	8003060 <LCD_setRotation+0x98>
 800306a:	f44f 707a 	mov.w	r0, #1000	; 0x3e8
 800306e:	9000      	str	r0, [sp, #0]
 8003070:	f10d 020f 	add.w	r2, sp, #15
 8003074:	4827      	ldr	r0, [pc, #156]	; (8003114 <LCD_setRotation+0x14c>)
 8003076:	f10d 010e 	add.w	r1, sp, #14
 800307a:	f002 ff27 	bl	8005ecc <HAL_SPI_TransmitReceive>
 800307e:	f894 3051 	ldrb.w	r3, [r4, #81]	; 0x51
 8003082:	2b01      	cmp	r3, #1
 8003084:	d1fb      	bne.n	800307e <LCD_setRotation+0xb6>
 8003086:	4925      	ldr	r1, [pc, #148]	; (800311c <LCD_setRotation+0x154>)
 8003088:	4b23      	ldr	r3, [pc, #140]	; (8003118 <LCD_setRotation+0x150>)
 800308a:	2000      	movs	r0, #0
 800308c:	2250      	movs	r2, #80	; 0x50
 800308e:	7008      	strb	r0, [r1, #0]
 8003090:	701a      	strb	r2, [r3, #0]
 8003092:	b005      	add	sp, #20
 8003094:	bdf0      	pop	{r4, r5, r6, r7, pc}
 8003096:	2360      	movs	r3, #96	; 0x60
 8003098:	f88d 300e 	strb.w	r3, [sp, #14]
 800309c:	f894 2051 	ldrb.w	r2, [r4, #81]	; 0x51
 80030a0:	2a01      	cmp	r2, #1
 80030a2:	b2d3      	uxtb	r3, r2
 80030a4:	d1fa      	bne.n	800309c <LCD_setRotation+0xd4>
 80030a6:	f44f 707a 	mov.w	r0, #1000	; 0x3e8
 80030aa:	9000      	str	r0, [sp, #0]
 80030ac:	f10d 020f 	add.w	r2, sp, #15
 80030b0:	4818      	ldr	r0, [pc, #96]	; (8003114 <LCD_setRotation+0x14c>)
 80030b2:	f10d 010e 	add.w	r1, sp, #14
 80030b6:	f002 ff09 	bl	8005ecc <HAL_SPI_TransmitReceive>
 80030ba:	f894 3051 	ldrb.w	r3, [r4, #81]	; 0x51
 80030be:	2b01      	cmp	r3, #1
 80030c0:	d1fb      	bne.n	80030ba <LCD_setRotation+0xf2>
 80030c2:	4916      	ldr	r1, [pc, #88]	; (800311c <LCD_setRotation+0x154>)
 80030c4:	4a14      	ldr	r2, [pc, #80]	; (8003118 <LCD_setRotation+0x150>)
 80030c6:	2300      	movs	r3, #0
 80030c8:	700b      	strb	r3, [r1, #0]
 80030ca:	7013      	strb	r3, [r2, #0]
 80030cc:	b005      	add	sp, #20
 80030ce:	bdf0      	pop	{r4, r5, r6, r7, pc}
 80030d0:	2300      	movs	r3, #0
 80030d2:	f88d 300e 	strb.w	r3, [sp, #14]
 80030d6:	f894 2051 	ldrb.w	r2, [r4, #81]	; 0x51
 80030da:	2a01      	cmp	r2, #1
 80030dc:	b2d3      	uxtb	r3, r2
 80030de:	d1fa      	bne.n	80030d6 <LCD_setRotation+0x10e>
 80030e0:	f44f 707a 	mov.w	r0, #1000	; 0x3e8
 80030e4:	9000      	str	r0, [sp, #0]
 80030e6:	f10d 020f 	add.w	r2, sp, #15
 80030ea:	480a      	ldr	r0, [pc, #40]	; (8003114 <LCD_setRotation+0x14c>)
 80030ec:	f10d 010e 	add.w	r1, sp, #14
 80030f0:	f002 feec 	bl	8005ecc <HAL_SPI_TransmitReceive>
 80030f4:	f894 3051 	ldrb.w	r3, [r4, #81]	; 0x51
 80030f8:	2b01      	cmp	r3, #1
 80030fa:	d1fb      	bne.n	80030f4 <LCD_setRotation+0x12c>
 80030fc:	4906      	ldr	r1, [pc, #24]	; (8003118 <LCD_setRotation+0x150>)
 80030fe:	4a07      	ldr	r2, [pc, #28]	; (800311c <LCD_setRotation+0x154>)
 8003100:	2300      	movs	r3, #0
 8003102:	700b      	strb	r3, [r1, #0]
 8003104:	7013      	strb	r3, [r2, #0]
 8003106:	b005      	add	sp, #20
 8003108:	bdf0      	pop	{r4, r5, r6, r7, pc}
 800310a:	bf00      	nop
 800310c:	200129f0 	.word	0x200129f0
 8003110:	20012990 	.word	0x20012990
 8003114:	20012998 	.word	0x20012998
 8003118:	2001298c 	.word	0x2001298c
 800311c:	20012994 	.word	0x20012994

08003120 <LCD_getWidth>:
 8003120:	20f0      	movs	r0, #240	; 0xf0
 8003122:	4770      	bx	lr

08003124 <LCD_getHeight>:
 8003124:	20f0      	movs	r0, #240	; 0xf0
 8003126:	4770      	bx	lr

08003128 <displayInit>:
 8003128:	e92d 4ff0 	stmdb	sp!, {r4, r5, r6, r7, r8, r9, sl, fp, lr}
 800312c:	4606      	mov	r6, r0
 800312e:	b089      	sub	sp, #36	; 0x24
 8003130:	f816 3b01 	ldrb.w	r3, [r6], #1
 8003134:	2b00      	cmp	r3, #0
 8003136:	d063      	beq.n	8003200 <displayInit+0xd8>
 8003138:	4c34      	ldr	r4, [pc, #208]	; (800320c <displayInit+0xe4>)
 800313a:	f8df a0d4 	ldr.w	sl, [pc, #212]	; 8003210 <displayInit+0xe8>
 800313e:	f8df 90d4 	ldr.w	r9, [pc, #212]	; 8003214 <displayInit+0xec>
 8003142:	1e5a      	subs	r2, r3, #1
 8003144:	fa5f fb82 	uxtb.w	fp, r2
 8003148:	46a0      	mov	r8, r4
 800314a:	f44f 777a 	mov.w	r7, #1000	; 0x3e8
 800314e:	f8da 3000 	ldr.w	r3, [sl]
 8003152:	f8d9 1000 	ldr.w	r1, [r9]
 8003156:	7832      	ldrb	r2, [r6, #0]
 8003158:	041b      	lsls	r3, r3, #16
 800315a:	618b      	str	r3, [r1, #24]
 800315c:	f88d 201e 	strb.w	r2, [sp, #30]
 8003160:	f894 2051 	ldrb.w	r2, [r4, #81]	; 0x51
 8003164:	2a01      	cmp	r2, #1
 8003166:	b2d3      	uxtb	r3, r2
 8003168:	d1fa      	bne.n	8003160 <displayInit+0x38>
 800316a:	9700      	str	r7, [sp, #0]
 800316c:	f10d 021f 	add.w	r2, sp, #31
 8003170:	f10d 011e 	add.w	r1, sp, #30
 8003174:	4640      	mov	r0, r8
 8003176:	f002 fea9 	bl	8005ecc <HAL_SPI_TransmitReceive>
 800317a:	f894 3051 	ldrb.w	r3, [r4, #81]	; 0x51
 800317e:	2b01      	cmp	r3, #1
 8003180:	d1fb      	bne.n	800317a <displayInit+0x52>
 8003182:	7873      	ldrb	r3, [r6, #1]
 8003184:	9303      	str	r3, [sp, #12]
 8003186:	f003 037f 	and.w	r3, r3, #127	; 0x7f
 800318a:	1e5a      	subs	r2, r3, #1
 800318c:	b2d2      	uxtb	r2, r2
 800318e:	1cb5      	adds	r5, r6, #2
 8003190:	9205      	str	r2, [sp, #20]
 8003192:	9504      	str	r5, [sp, #16]
 8003194:	b3bb      	cbz	r3, 8003206 <displayInit+0xde>
 8003196:	1cd3      	adds	r3, r2, #3
 8003198:	441e      	add	r6, r3
 800319a:	f8d9 2000 	ldr.w	r2, [r9]
 800319e:	f815 3b01 	ldrb.w	r3, [r5], #1
 80031a2:	f8da 1000 	ldr.w	r1, [sl]
 80031a6:	6191      	str	r1, [r2, #24]
 80031a8:	f88d 301e 	strb.w	r3, [sp, #30]
 80031ac:	f894 2051 	ldrb.w	r2, [r4, #81]	; 0x51
 80031b0:	2a01      	cmp	r2, #1
 80031b2:	b2d3      	uxtb	r3, r2
 80031b4:	d1fa      	bne.n	80031ac <displayInit+0x84>
 80031b6:	9700      	str	r7, [sp, #0]
 80031b8:	f10d 021f 	add.w	r2, sp, #31
 80031bc:	f10d 011e 	add.w	r1, sp, #30
 80031c0:	4640      	mov	r0, r8
 80031c2:	f002 fe83 	bl	8005ecc <HAL_SPI_TransmitReceive>
 80031c6:	f894 3051 	ldrb.w	r3, [r4, #81]	; 0x51
 80031ca:	2b01      	cmp	r3, #1
 80031cc:	d1fb      	bne.n	80031c6 <displayInit+0x9e>
 80031ce:	42ae      	cmp	r6, r5
 80031d0:	d1e3      	bne.n	800319a <displayInit+0x72>
 80031d2:	9e05      	ldr	r6, [sp, #20]
 80031d4:	9b04      	ldr	r3, [sp, #16]
 80031d6:	3601      	adds	r6, #1
 80031d8:	4433      	add	r3, r6
 80031da:	461e      	mov	r6, r3
 80031dc:	9b03      	ldr	r3, [sp, #12]
 80031de:	061b      	lsls	r3, r3, #24
 80031e0:	d507      	bpl.n	80031f2 <displayInit+0xca>
 80031e2:	f816 0b01 	ldrb.w	r0, [r6], #1
 80031e6:	28ff      	cmp	r0, #255	; 0xff
 80031e8:	bf08      	it	eq
 80031ea:	f44f 70fa 	moveq.w	r0, #500	; 0x1f4
 80031ee:	f000 fe4b 	bl	8003e88 <HAL_Delay>
 80031f2:	f10b 3bff 	add.w	fp, fp, #4294967295	; 0xffffffff
 80031f6:	fa5f fb8b 	uxtb.w	fp, fp
 80031fa:	f1bb 0fff 	cmp.w	fp, #255	; 0xff
 80031fe:	d1a6      	bne.n	800314e <displayInit+0x26>
 8003200:	b009      	add	sp, #36	; 0x24
 8003202:	e8bd 8ff0 	ldmia.w	sp!, {r4, r5, r6, r7, r8, r9, sl, fp, pc}
 8003206:	462e      	mov	r6, r5
 8003208:	e7e8      	b.n	80031dc <displayInit+0xb4>
 800320a:	bf00      	nop
 800320c:	20012998 	.word	0x20012998
 8003210:	200129f0 	.word	0x200129f0
 8003214:	20012990 	.word	0x20012990

08003218 <LCD_reset>:
 8003218:	b510      	push	{r4, lr}
 800321a:	4c12      	ldr	r4, [pc, #72]	; (8003264 <LCD_reset+0x4c>)
 800321c:	2201      	movs	r2, #1
 800321e:	4620      	mov	r0, r4
 8003220:	f44f 7100 	mov.w	r1, #512	; 0x200
 8003224:	f001 f932 	bl	800448c <HAL_GPIO_WritePin>
 8003228:	4620      	mov	r0, r4
 800322a:	2201      	movs	r2, #1
 800322c:	f44f 7180 	mov.w	r1, #256	; 0x100
 8003230:	f001 f92c 	bl	800448c <HAL_GPIO_WritePin>
 8003234:	2005      	movs	r0, #5
 8003236:	f000 fe27 	bl	8003e88 <HAL_Delay>
 800323a:	4620      	mov	r0, r4
 800323c:	2200      	movs	r2, #0
 800323e:	f44f 7180 	mov.w	r1, #256	; 0x100
 8003242:	f001 f923 	bl	800448c <HAL_GPIO_WritePin>
 8003246:	200f      	movs	r0, #15
 8003248:	f000 fe1e 	bl	8003e88 <HAL_Delay>
 800324c:	4620      	mov	r0, r4
 800324e:	2201      	movs	r2, #1
 8003250:	f44f 7180 	mov.w	r1, #256	; 0x100
 8003254:	f001 f91a 	bl	800448c <HAL_GPIO_WritePin>
 8003258:	e8bd 4010 	ldmia.w	sp!, {r4, lr}
 800325c:	2096      	movs	r0, #150	; 0x96
 800325e:	f000 be13 	b.w	8003e88 <HAL_Delay>
 8003262:	bf00      	nop
 8003264:	40020400 	.word	0x40020400

08003268 <LCD_init>:
 8003268:	b570      	push	{r4, r5, r6, lr}
 800326a:	4d20      	ldr	r5, [pc, #128]	; (80032ec <LCD_init+0x84>)
 800326c:	4820      	ldr	r0, [pc, #128]	; (80032f0 <LCD_init+0x88>)
 800326e:	4e21      	ldr	r6, [pc, #132]	; (80032f4 <LCD_init+0x8c>)
 8003270:	4c21      	ldr	r4, [pc, #132]	; (80032f8 <LCD_init+0x90>)
 8003272:	b084      	sub	sp, #16
 8003274:	f7ff ff58 	bl	8003128 <displayInit>
 8003278:	682b      	ldr	r3, [r5, #0]
 800327a:	6831      	ldr	r1, [r6, #0]
 800327c:	041b      	lsls	r3, r3, #16
 800327e:	2236      	movs	r2, #54	; 0x36
 8003280:	618b      	str	r3, [r1, #24]
 8003282:	f88d 200e 	strb.w	r2, [sp, #14]
 8003286:	f894 2051 	ldrb.w	r2, [r4, #81]	; 0x51
 800328a:	2a01      	cmp	r2, #1
 800328c:	b2d3      	uxtb	r3, r2
 800328e:	d1fa      	bne.n	8003286 <LCD_init+0x1e>
 8003290:	f44f 707a 	mov.w	r0, #1000	; 0x3e8
 8003294:	9000      	str	r0, [sp, #0]
 8003296:	f10d 020f 	add.w	r2, sp, #15
 800329a:	4817      	ldr	r0, [pc, #92]	; (80032f8 <LCD_init+0x90>)
 800329c:	f10d 010e 	add.w	r1, sp, #14
 80032a0:	f002 fe14 	bl	8005ecc <HAL_SPI_TransmitReceive>
 80032a4:	f894 3051 	ldrb.w	r3, [r4, #81]	; 0x51
 80032a8:	2b01      	cmp	r3, #1
 80032aa:	d1fb      	bne.n	80032a4 <LCD_init+0x3c>
 80032ac:	6833      	ldr	r3, [r6, #0]
 80032ae:	682a      	ldr	r2, [r5, #0]
 80032b0:	619a      	str	r2, [r3, #24]
 80032b2:	2300      	movs	r3, #0
 80032b4:	f88d 300e 	strb.w	r3, [sp, #14]
 80032b8:	f894 2051 	ldrb.w	r2, [r4, #81]	; 0x51
 80032bc:	2a01      	cmp	r2, #1
 80032be:	b2d3      	uxtb	r3, r2
 80032c0:	d1fa      	bne.n	80032b8 <LCD_init+0x50>
 80032c2:	f44f 707a 	mov.w	r0, #1000	; 0x3e8
 80032c6:	9000      	str	r0, [sp, #0]
 80032c8:	f10d 020f 	add.w	r2, sp, #15
 80032cc:	480a      	ldr	r0, [pc, #40]	; (80032f8 <LCD_init+0x90>)
 80032ce:	f10d 010e 	add.w	r1, sp, #14
 80032d2:	f002 fdfb 	bl	8005ecc <HAL_SPI_TransmitReceive>
 80032d6:	f894 3051 	ldrb.w	r3, [r4, #81]	; 0x51
 80032da:	2b01      	cmp	r3, #1
 80032dc:	d1fb      	bne.n	80032d6 <LCD_init+0x6e>
 80032de:	4907      	ldr	r1, [pc, #28]	; (80032fc <LCD_init+0x94>)
 80032e0:	4a07      	ldr	r2, [pc, #28]	; (8003300 <LCD_init+0x98>)
 80032e2:	2300      	movs	r3, #0
 80032e4:	700b      	strb	r3, [r1, #0]
 80032e6:	7013      	strb	r3, [r2, #0]
 80032e8:	b004      	add	sp, #16
 80032ea:	bd70      	pop	{r4, r5, r6, pc}
 80032ec:	200129f0 	.word	0x200129f0
 80032f0:	08028be0 	.word	0x08028be0
 80032f4:	20012990 	.word	0x20012990
 80032f8:	20012998 	.word	0x20012998
 80032fc:	2001298c 	.word	0x2001298c
 8003300:	20012994 	.word	0x20012994

08003304 <setAddrWindow>:
 8003304:	e92d 4ff0 	stmdb	sp!, {r4, r5, r6, r7, r8, r9, sl, fp, lr}
 8003308:	4c70      	ldr	r4, [pc, #448]	; (80034cc <setAddrWindow+0x1c8>)
 800330a:	4e71      	ldr	r6, [pc, #452]	; (80034d0 <setAddrWindow+0x1cc>)
 800330c:	4d71      	ldr	r5, [pc, #452]	; (80034d4 <setAddrWindow+0x1d0>)
 800330e:	f8d4 e000 	ldr.w	lr, [r4]
 8003312:	f8df c1c8 	ldr.w	ip, [pc, #456]	; 80034dc <setAddrWindow+0x1d8>
 8003316:	7836      	ldrb	r6, [r6, #0]
 8003318:	782d      	ldrb	r5, [r5, #0]
 800331a:	4f6f      	ldr	r7, [pc, #444]	; (80034d8 <setAddrWindow+0x1d4>)
 800331c:	f89e e00c 	ldrb.w	lr, [lr, #12]
 8003320:	f8dc e000 	ldr.w	lr, [ip]
 8003324:	683f      	ldr	r7, [r7, #0]
 8003326:	b083      	sub	sp, #12
 8003328:	eb06 0900 	add.w	r9, r6, r0
 800332c:	9001      	str	r0, [sp, #4]
 800332e:	18e8      	adds	r0, r5, r3
 8003330:	ea4f 4e0e 	mov.w	lr, lr, lsl #16
 8003334:	9000      	str	r0, [sp, #0]
 8003336:	9801      	ldr	r0, [sp, #4]
 8003338:	f8c7 e018 	str.w	lr, [r7, #24]
 800333c:	eb06 0802 	add.w	r8, r6, r2
 8003340:	eb05 0e01 	add.w	lr, r5, r1
 8003344:	469a      	mov	sl, r3
 8003346:	6823      	ldr	r3, [r4, #0]
 8003348:	689b      	ldr	r3, [r3, #8]
 800334a:	079b      	lsls	r3, r3, #30
 800334c:	d5fb      	bpl.n	8003346 <setAddrWindow+0x42>
 800334e:	4653      	mov	r3, sl
 8003350:	f8d4 a000 	ldr.w	sl, [r4]
 8003354:	f04f 0b2a 	mov.w	fp, #42	; 0x2a
 8003358:	f88a b00c 	strb.w	fp, [sl, #12]
 800335c:	469a      	mov	sl, r3
 800335e:	6823      	ldr	r3, [r4, #0]
 8003360:	689b      	ldr	r3, [r3, #8]
 8003362:	07db      	lsls	r3, r3, #31
 8003364:	d5fb      	bpl.n	800335e <setAddrWindow+0x5a>
 8003366:	4653      	mov	r3, sl
 8003368:	f8d4 a000 	ldr.w	sl, [r4]
 800336c:	f89a a00c 	ldrb.w	sl, [sl, #12]
 8003370:	f8dc a000 	ldr.w	sl, [ip]
 8003374:	f8c7 a018 	str.w	sl, [r7, #24]
 8003378:	469a      	mov	sl, r3
 800337a:	6823      	ldr	r3, [r4, #0]
 800337c:	689b      	ldr	r3, [r3, #8]
 800337e:	079b      	lsls	r3, r3, #30
 8003380:	d5fb      	bpl.n	800337a <setAddrWindow+0x76>
 8003382:	4653      	mov	r3, sl
 8003384:	f8d4 a000 	ldr.w	sl, [r4]
 8003388:	ea4f 2919 	mov.w	r9, r9, lsr #8
 800338c:	f88a 900c 	strb.w	r9, [sl, #12]
 8003390:	4699      	mov	r9, r3
 8003392:	6823      	ldr	r3, [r4, #0]
 8003394:	689b      	ldr	r3, [r3, #8]
 8003396:	07db      	lsls	r3, r3, #31
 8003398:	d5fb      	bpl.n	8003392 <setAddrWindow+0x8e>
 800339a:	464b      	mov	r3, r9
 800339c:	f8d4 9000 	ldr.w	r9, [r4]
 80033a0:	f899 900c 	ldrb.w	r9, [r9, #12]
 80033a4:	4699      	mov	r9, r3
 80033a6:	6823      	ldr	r3, [r4, #0]
 80033a8:	689b      	ldr	r3, [r3, #8]
 80033aa:	079b      	lsls	r3, r3, #30
 80033ac:	d5fb      	bpl.n	80033a6 <setAddrWindow+0xa2>
 80033ae:	464b      	mov	r3, r9
 80033b0:	4430      	add	r0, r6
 80033b2:	f8d4 9000 	ldr.w	r9, [r4]
 80033b6:	b2c0      	uxtb	r0, r0
 80033b8:	f889 000c 	strb.w	r0, [r9, #12]
 80033bc:	6820      	ldr	r0, [r4, #0]
 80033be:	6880      	ldr	r0, [r0, #8]
 80033c0:	07c0      	lsls	r0, r0, #31
 80033c2:	d5fb      	bpl.n	80033bc <setAddrWindow+0xb8>
 80033c4:	6820      	ldr	r0, [r4, #0]
 80033c6:	7b00      	ldrb	r0, [r0, #12]
 80033c8:	6820      	ldr	r0, [r4, #0]
 80033ca:	6880      	ldr	r0, [r0, #8]
 80033cc:	0780      	lsls	r0, r0, #30
 80033ce:	d5fb      	bpl.n	80033c8 <setAddrWindow+0xc4>
 80033d0:	6820      	ldr	r0, [r4, #0]
 80033d2:	ea4f 2818 	mov.w	r8, r8, lsr #8
 80033d6:	f880 800c 	strb.w	r8, [r0, #12]
 80033da:	6820      	ldr	r0, [r4, #0]
 80033dc:	6880      	ldr	r0, [r0, #8]
 80033de:	07c0      	lsls	r0, r0, #31
 80033e0:	d5fb      	bpl.n	80033da <setAddrWindow+0xd6>
 80033e2:	6820      	ldr	r0, [r4, #0]
 80033e4:	7b00      	ldrb	r0, [r0, #12]
 80033e6:	6820      	ldr	r0, [r4, #0]
 80033e8:	6880      	ldr	r0, [r0, #8]
 80033ea:	0780      	lsls	r0, r0, #30
 80033ec:	d5fb      	bpl.n	80033e6 <setAddrWindow+0xe2>
 80033ee:	4416      	add	r6, r2
 80033f0:	6822      	ldr	r2, [r4, #0]
 80033f2:	b2f6      	uxtb	r6, r6
 80033f4:	7316      	strb	r6, [r2, #12]
 80033f6:	6822      	ldr	r2, [r4, #0]
 80033f8:	6892      	ldr	r2, [r2, #8]
 80033fa:	07d2      	lsls	r2, r2, #31
 80033fc:	d5fb      	bpl.n	80033f6 <setAddrWindow+0xf2>
 80033fe:	6822      	ldr	r2, [r4, #0]
 8003400:	7b12      	ldrb	r2, [r2, #12]
 8003402:	f8dc 2000 	ldr.w	r2, [ip]
 8003406:	0412      	lsls	r2, r2, #16
 8003408:	61ba      	str	r2, [r7, #24]
 800340a:	6822      	ldr	r2, [r4, #0]
 800340c:	6892      	ldr	r2, [r2, #8]
 800340e:	0796      	lsls	r6, r2, #30
 8003410:	d5fb      	bpl.n	800340a <setAddrWindow+0x106>
 8003412:	6822      	ldr	r2, [r4, #0]
 8003414:	202b      	movs	r0, #43	; 0x2b
 8003416:	7310      	strb	r0, [r2, #12]
 8003418:	6822      	ldr	r2, [r4, #0]
 800341a:	6892      	ldr	r2, [r2, #8]
 800341c:	07d0      	lsls	r0, r2, #31
 800341e:	d5fb      	bpl.n	8003418 <setAddrWindow+0x114>
 8003420:	6822      	ldr	r2, [r4, #0]
 8003422:	7b12      	ldrb	r2, [r2, #12]
 8003424:	f8dc 2000 	ldr.w	r2, [ip]
 8003428:	61ba      	str	r2, [r7, #24]
 800342a:	6822      	ldr	r2, [r4, #0]
 800342c:	6892      	ldr	r2, [r2, #8]
 800342e:	0792      	lsls	r2, r2, #30
 8003430:	d5fb      	bpl.n	800342a <setAddrWindow+0x126>
 8003432:	6822      	ldr	r2, [r4, #0]
 8003434:	ea4f 2e1e 	mov.w	lr, lr, lsr #8
 8003438:	f882 e00c 	strb.w	lr, [r2, #12]
 800343c:	6822      	ldr	r2, [r4, #0]
 800343e:	6892      	ldr	r2, [r2, #8]
 8003440:	07d6      	lsls	r6, r2, #31
 8003442:	d5fb      	bpl.n	800343c <setAddrWindow+0x138>
 8003444:	6822      	ldr	r2, [r4, #0]
 8003446:	7b12      	ldrb	r2, [r2, #12]
 8003448:	6822      	ldr	r2, [r4, #0]
 800344a:	6892      	ldr	r2, [r2, #8]
 800344c:	0790      	lsls	r0, r2, #30
 800344e:	d5fb      	bpl.n	8003448 <setAddrWindow+0x144>
 8003450:	6822      	ldr	r2, [r4, #0]
 8003452:	4429      	add	r1, r5
 8003454:	b2c9      	uxtb	r1, r1
 8003456:	7311      	strb	r1, [r2, #12]
 8003458:	6822      	ldr	r2, [r4, #0]
 800345a:	6892      	ldr	r2, [r2, #8]
 800345c:	07d1      	lsls	r1, r2, #31
 800345e:	d5fb      	bpl.n	8003458 <setAddrWindow+0x154>
 8003460:	6822      	ldr	r2, [r4, #0]
 8003462:	7b12      	ldrb	r2, [r2, #12]
 8003464:	6822      	ldr	r2, [r4, #0]
 8003466:	6892      	ldr	r2, [r2, #8]
 8003468:	0792      	lsls	r2, r2, #30
 800346a:	d5fb      	bpl.n	8003464 <setAddrWindow+0x160>
 800346c:	9a00      	ldr	r2, [sp, #0]
 800346e:	6821      	ldr	r1, [r4, #0]
 8003470:	0a12      	lsrs	r2, r2, #8
 8003472:	730a      	strb	r2, [r1, #12]
 8003474:	6822      	ldr	r2, [r4, #0]
 8003476:	6892      	ldr	r2, [r2, #8]
 8003478:	07d6      	lsls	r6, r2, #31
 800347a:	d5fb      	bpl.n	8003474 <setAddrWindow+0x170>
 800347c:	6822      	ldr	r2, [r4, #0]
 800347e:	7b12      	ldrb	r2, [r2, #12]
 8003480:	6822      	ldr	r2, [r4, #0]
 8003482:	6892      	ldr	r2, [r2, #8]
 8003484:	0790      	lsls	r0, r2, #30
 8003486:	d5fb      	bpl.n	8003480 <setAddrWindow+0x17c>
 8003488:	441d      	add	r5, r3
 800348a:	6823      	ldr	r3, [r4, #0]
 800348c:	b2ed      	uxtb	r5, r5
 800348e:	731d      	strb	r5, [r3, #12]
 8003490:	6823      	ldr	r3, [r4, #0]
 8003492:	689b      	ldr	r3, [r3, #8]
 8003494:	07d9      	lsls	r1, r3, #31
 8003496:	d5fb      	bpl.n	8003490 <setAddrWindow+0x18c>
 8003498:	6823      	ldr	r3, [r4, #0]
 800349a:	7b1b      	ldrb	r3, [r3, #12]
 800349c:	f8dc 3000 	ldr.w	r3, [ip]
 80034a0:	041b      	lsls	r3, r3, #16
 80034a2:	61bb      	str	r3, [r7, #24]
 80034a4:	6823      	ldr	r3, [r4, #0]
 80034a6:	689b      	ldr	r3, [r3, #8]
 80034a8:	079a      	lsls	r2, r3, #30
 80034aa:	d5fb      	bpl.n	80034a4 <setAddrWindow+0x1a0>
 80034ac:	6823      	ldr	r3, [r4, #0]
 80034ae:	222c      	movs	r2, #44	; 0x2c
 80034b0:	731a      	strb	r2, [r3, #12]
 80034b2:	6823      	ldr	r3, [r4, #0]
 80034b4:	689b      	ldr	r3, [r3, #8]
 80034b6:	07db      	lsls	r3, r3, #31
 80034b8:	d5fb      	bpl.n	80034b2 <setAddrWindow+0x1ae>
 80034ba:	6823      	ldr	r3, [r4, #0]
 80034bc:	7b1b      	ldrb	r3, [r3, #12]
 80034be:	f8dc 3000 	ldr.w	r3, [ip]
 80034c2:	61bb      	str	r3, [r7, #24]
 80034c4:	b003      	add	sp, #12
 80034c6:	e8bd 8ff0 	ldmia.w	sp!, {r4, r5, r6, r7, r8, r9, sl, fp, pc}
 80034ca:	bf00      	nop
 80034cc:	20012998 	.word	0x20012998
 80034d0:	2001298c 	.word	0x2001298c
 80034d4:	20012994 	.word	0x20012994
 80034d8:	20012990 	.word	0x20012990
 80034dc:	200129f0 	.word	0x200129f0

080034e0 <LCD_fillRectData>:
 80034e0:	b2c0      	uxtb	r0, r0
 80034e2:	b2c9      	uxtb	r1, r1
 80034e4:	b538      	push	{r3, r4, r5, lr}
 80034e6:	461c      	mov	r4, r3
 80034e8:	1e45      	subs	r5, r0, #1
 80034ea:	1e4b      	subs	r3, r1, #1
 80034ec:	4423      	add	r3, r4
 80034ee:	4415      	add	r5, r2
 80034f0:	fb04 f402 	mul.w	r4, r4, r2
 80034f4:	b2db      	uxtb	r3, r3
 80034f6:	b2ea      	uxtb	r2, r5
 80034f8:	f7ff ff04 	bl	8003304 <setAddrWindow>
 80034fc:	b1a4      	cbz	r4, 8003528 <LCD_fillRectData+0x48>
 80034fe:	9904      	ldr	r1, [sp, #16]
 8003500:	4b0a      	ldr	r3, [pc, #40]	; (800352c <LCD_fillRectData+0x4c>)
 8003502:	eb01 0044 	add.w	r0, r1, r4, lsl #1
 8003506:	681a      	ldr	r2, [r3, #0]
 8003508:	6892      	ldr	r2, [r2, #8]
 800350a:	0794      	lsls	r4, r2, #30
 800350c:	d5fb      	bpl.n	8003506 <LCD_fillRectData+0x26>
 800350e:	681a      	ldr	r2, [r3, #0]
 8003510:	784c      	ldrb	r4, [r1, #1]
 8003512:	7314      	strb	r4, [r2, #12]
 8003514:	681a      	ldr	r2, [r3, #0]
 8003516:	6892      	ldr	r2, [r2, #8]
 8003518:	0792      	lsls	r2, r2, #30
 800351a:	d5fb      	bpl.n	8003514 <LCD_fillRectData+0x34>
 800351c:	f811 4b02 	ldrb.w	r4, [r1], #2
 8003520:	681a      	ldr	r2, [r3, #0]
 8003522:	4288      	cmp	r0, r1
 8003524:	7314      	strb	r4, [r2, #12]
 8003526:	d1ee      	bne.n	8003506 <LCD_fillRectData+0x26>
 8003528:	bd38      	pop	{r3, r4, r5, pc}
 800352a:	bf00      	nop
 800352c:	20012998 	.word	0x20012998

08003530 <LCD_fillRectDataTable>:
 8003530:	e92d 4ff0 	stmdb	sp!, {r4, r5, r6, r7, r8, r9, sl, fp, lr}
 8003534:	4688      	mov	r8, r1
 8003536:	b087      	sub	sp, #28
 8003538:	1859      	adds	r1, r3, r1
 800353a:	4588      	cmp	r8, r1
 800353c:	f04f 03ff 	mov.w	r3, #255	; 0xff
 8003540:	f88d 3017 	strb.w	r3, [sp, #23]
 8003544:	9101      	str	r1, [sp, #4]
 8003546:	e9dd 3510 	ldrd	r3, r5, [sp, #64]	; 0x40
 800354a:	da46      	bge.n	80035da <LCD_fillRectDataTable+0xaa>
 800354c:	1e5e      	subs	r6, r3, #1
 800354e:	1813      	adds	r3, r2, r0
 8003550:	f102 39ff 	add.w	r9, r2, #4294967295	; 0xffffffff
 8003554:	441e      	add	r6, r3
 8003556:	461a      	mov	r2, r3
 8003558:	9302      	str	r3, [sp, #8]
 800355a:	fa5f fb80 	uxtb.w	fp, r0
 800355e:	ebc8 1308 	rsb	r3, r8, r8, lsl #4
 8003562:	44d9      	add	r9, fp
 8003564:	eb06 1603 	add.w	r6, r6, r3, lsl #4
 8003568:	4c1d      	ldr	r4, [pc, #116]	; (80035e0 <LCD_fillRectDataTable+0xb0>)
 800356a:	1a83      	subs	r3, r0, r2
 800356c:	4682      	mov	sl, r0
 800356e:	fa5f f989 	uxtb.w	r9, r9
 8003572:	9303      	str	r3, [sp, #12]
 8003574:	2702      	movs	r7, #2
 8003576:	fa5f f388 	uxtb.w	r3, r8
 800357a:	4619      	mov	r1, r3
 800357c:	464a      	mov	r2, r9
 800357e:	4658      	mov	r0, fp
 8003580:	f7ff fec0 	bl	8003304 <setAddrWindow>
 8003584:	9b02      	ldr	r3, [sp, #8]
 8003586:	459a      	cmp	sl, r3
 8003588:	da18      	bge.n	80035bc <LCD_fillRectDataTable+0x8c>
 800358a:	9b03      	ldr	r3, [sp, #12]
 800358c:	2001      	movs	r0, #1
 800358e:	199a      	adds	r2, r3, r6
 8003590:	f812 3f01 	ldrb.w	r3, [r2, #1]!
 8003594:	fb17 0103 	smlabb	r1, r7, r3, r0
 8003598:	f815 c013 	ldrb.w	ip, [r5, r3, lsl #1]
 800359c:	5c69      	ldrb	r1, [r5, r1]
 800359e:	6823      	ldr	r3, [r4, #0]
 80035a0:	689b      	ldr	r3, [r3, #8]
 80035a2:	079b      	lsls	r3, r3, #30
 80035a4:	d5fb      	bpl.n	800359e <LCD_fillRectDataTable+0x6e>
 80035a6:	6823      	ldr	r3, [r4, #0]
 80035a8:	f883 c00c 	strb.w	ip, [r3, #12]
 80035ac:	6823      	ldr	r3, [r4, #0]
 80035ae:	689b      	ldr	r3, [r3, #8]
 80035b0:	079b      	lsls	r3, r3, #30
 80035b2:	d5fb      	bpl.n	80035ac <LCD_fillRectDataTable+0x7c>
 80035b4:	6823      	ldr	r3, [r4, #0]
 80035b6:	4296      	cmp	r6, r2
 80035b8:	7319      	strb	r1, [r3, #12]
 80035ba:	d1e9      	bne.n	8003590 <LCD_fillRectDataTable+0x60>
 80035bc:	f44f 737a 	mov.w	r3, #1000	; 0x3e8
 80035c0:	2201      	movs	r2, #1
 80035c2:	f10d 0117 	add.w	r1, sp, #23
 80035c6:	4620      	mov	r0, r4
 80035c8:	f002 fb5c 	bl	8005c84 <HAL_SPI_Transmit>
 80035cc:	9b01      	ldr	r3, [sp, #4]
 80035ce:	f108 0801 	add.w	r8, r8, #1
 80035d2:	4598      	cmp	r8, r3
 80035d4:	f106 06f0 	add.w	r6, r6, #240	; 0xf0
 80035d8:	d1cd      	bne.n	8003576 <LCD_fillRectDataTable+0x46>
 80035da:	b007      	add	sp, #28
 80035dc:	e8bd 8ff0 	ldmia.w	sp!, {r4, r5, r6, r7, r8, r9, sl, fp, pc}
 80035e0:	20012998 	.word	0x20012998

080035e4 <LCD_Draw_LineNX>:
 80035e4:	e92d 4ff0 	stmdb	sp!, {r4, r5, r6, r7, r8, r9, sl, fp, lr}
 80035e8:	b089      	sub	sp, #36	; 0x24
 80035ea:	4692      	mov	sl, r2
 80035ec:	9307      	str	r3, [sp, #28]
 80035ee:	461a      	mov	r2, r3
 80035f0:	ebaa 0300 	sub.w	r3, sl, r0
 80035f4:	eba2 0901 	sub.w	r9, r2, r1
 80035f8:	2b00      	cmp	r3, #0
 80035fa:	bfb8      	it	lt
 80035fc:	425b      	neglt	r3, r3
 80035fe:	f1b9 0f00 	cmp.w	r9, #0
 8003602:	bfb8      	it	lt
 8003604:	f1c9 0900 	rsblt	r9, r9, #0
 8003608:	4688      	mov	r8, r1
 800360a:	4542      	cmp	r2, r8
 800360c:	bfcc      	ite	gt
 800360e:	2201      	movgt	r2, #1
 8003610:	f04f 32ff 	movle.w	r2, #4294967295	; 0xffffffff
 8003614:	4582      	cmp	sl, r0
 8003616:	bfcc      	ite	gt
 8003618:	2101      	movgt	r1, #1
 800361a:	f04f 31ff 	movle.w	r1, #4294967295	; 0xffffffff
 800361e:	454b      	cmp	r3, r9
 8003620:	4607      	mov	r7, r0
 8003622:	9304      	str	r3, [sp, #16]
 8003624:	9105      	str	r1, [sp, #20]
 8003626:	9206      	str	r2, [sp, #24]
 8003628:	dc52      	bgt.n	80036d0 <LCD_Draw_LineNX+0xec>
 800362a:	eb09 76d9 	add.w	r6, r9, r9, lsr #31
 800362e:	1076      	asrs	r6, r6, #1
 8003630:	4276      	negs	r6, r6
 8003632:	9b12      	ldr	r3, [sp, #72]	; 0x48
 8003634:	4c27      	ldr	r4, [pc, #156]	; (80036d4 <LCD_Draw_LineNX+0xf0>)
 8003636:	f103 3bff 	add.w	fp, r3, #4294967295	; 0xffffffff
 800363a:	fa5f f38b 	uxtb.w	r3, fp
 800363e:	9302      	str	r3, [sp, #8]
 8003640:	e9dd 2312 	ldrd	r2, r3, [sp, #72]	; 0x48
 8003644:	eb03 0542 	add.w	r5, r3, r2, lsl #1
 8003648:	9a04      	ldr	r2, [sp, #16]
 800364a:	4252      	negs	r2, r2
 800364c:	fa5f fb87 	uxtb.w	fp, r7
 8003650:	fa5f f388 	uxtb.w	r3, r8
 8003654:	9203      	str	r2, [sp, #12]
 8003656:	9a02      	ldr	r2, [sp, #8]
 8003658:	9301      	str	r3, [sp, #4]
 800365a:	445a      	add	r2, fp
 800365c:	4619      	mov	r1, r3
 800365e:	b2d2      	uxtb	r2, r2
 8003660:	4658      	mov	r0, fp
 8003662:	f7ff fe4f 	bl	8003304 <setAddrWindow>
 8003666:	9b12      	ldr	r3, [sp, #72]	; 0x48
 8003668:	2b00      	cmp	r3, #0
 800366a:	9b01      	ldr	r3, [sp, #4]
 800366c:	dd11      	ble.n	8003692 <LCD_Draw_LineNX+0xae>
 800366e:	9913      	ldr	r1, [sp, #76]	; 0x4c
 8003670:	6822      	ldr	r2, [r4, #0]
 8003672:	6892      	ldr	r2, [r2, #8]
 8003674:	0790      	lsls	r0, r2, #30
 8003676:	d5fb      	bpl.n	8003670 <LCD_Draw_LineNX+0x8c>
 8003678:	6822      	ldr	r2, [r4, #0]
 800367a:	7848      	ldrb	r0, [r1, #1]
 800367c:	7310      	strb	r0, [r2, #12]
 800367e:	6822      	ldr	r2, [r4, #0]
 8003680:	6892      	ldr	r2, [r2, #8]
 8003682:	0792      	lsls	r2, r2, #30
 8003684:	d5fb      	bpl.n	800367e <LCD_Draw_LineNX+0x9a>
 8003686:	f811 0b02 	ldrb.w	r0, [r1], #2
 800368a:	6822      	ldr	r2, [r4, #0]
 800368c:	428d      	cmp	r5, r1
 800368e:	7310      	strb	r0, [r2, #12]
 8003690:	d1ee      	bne.n	8003670 <LCD_Draw_LineNX+0x8c>
 8003692:	4557      	cmp	r7, sl
 8003694:	d016      	beq.n	80036c4 <LCD_Draw_LineNX+0xe0>
 8003696:	9a03      	ldr	r2, [sp, #12]
 8003698:	42b2      	cmp	r2, r6
 800369a:	da0e      	bge.n	80036ba <LCD_Draw_LineNX+0xd6>
 800369c:	9a05      	ldr	r2, [sp, #20]
 800369e:	454e      	cmp	r6, r9
 80036a0:	4417      	add	r7, r2
 80036a2:	fa5f fb87 	uxtb.w	fp, r7
 80036a6:	eba6 0209 	sub.w	r2, r6, r9
 80036aa:	da09      	bge.n	80036c0 <LCD_Draw_LineNX+0xdc>
 80036ac:	9b06      	ldr	r3, [sp, #24]
 80036ae:	4498      	add	r8, r3
 80036b0:	9b04      	ldr	r3, [sp, #16]
 80036b2:	18d6      	adds	r6, r2, r3
 80036b4:	fa5f f388 	uxtb.w	r3, r8
 80036b8:	e7cd      	b.n	8003656 <LCD_Draw_LineNX+0x72>
 80036ba:	454e      	cmp	r6, r9
 80036bc:	4632      	mov	r2, r6
 80036be:	dbf5      	blt.n	80036ac <LCD_Draw_LineNX+0xc8>
 80036c0:	4616      	mov	r6, r2
 80036c2:	e7c8      	b.n	8003656 <LCD_Draw_LineNX+0x72>
 80036c4:	9a07      	ldr	r2, [sp, #28]
 80036c6:	4590      	cmp	r8, r2
 80036c8:	d1e5      	bne.n	8003696 <LCD_Draw_LineNX+0xb2>
 80036ca:	b009      	add	sp, #36	; 0x24
 80036cc:	e8bd 8ff0 	ldmia.w	sp!, {r4, r5, r6, r7, r8, r9, sl, fp, pc}
 80036d0:	105e      	asrs	r6, r3, #1
 80036d2:	e7ae      	b.n	8003632 <LCD_Draw_LineNX+0x4e>
 80036d4:	20012998 	.word	0x20012998

080036d8 <LCD_Draw_LinePNX>:
 80036d8:	e92d 4ff0 	stmdb	sp!, {r4, r5, r6, r7, r8, r9, sl, fp, lr}
 80036dc:	b089      	sub	sp, #36	; 0x24
 80036de:	460f      	mov	r7, r1
 80036e0:	9307      	str	r3, [sp, #28]
 80036e2:	4619      	mov	r1, r3
 80036e4:	1a13      	subs	r3, r2, r0
 80036e6:	eba1 0907 	sub.w	r9, r1, r7
 80036ea:	2b00      	cmp	r3, #0
 80036ec:	bfb8      	it	lt
 80036ee:	425b      	neglt	r3, r3
 80036f0:	f1b9 0f00 	cmp.w	r9, #0
 80036f4:	bfb8      	it	lt
 80036f6:	f1c9 0900 	rsblt	r9, r9, #0
 80036fa:	9202      	str	r2, [sp, #8]
 80036fc:	4282      	cmp	r2, r0
 80036fe:	bfcc      	ite	gt
 8003700:	2201      	movgt	r2, #1
 8003702:	f04f 32ff 	movle.w	r2, #4294967295	; 0xffffffff
 8003706:	9205      	str	r2, [sp, #20]
 8003708:	42b9      	cmp	r1, r7
 800370a:	bfcc      	ite	gt
 800370c:	2201      	movgt	r2, #1
 800370e:	f04f 32ff 	movle.w	r2, #4294967295	; 0xffffffff
 8003712:	454b      	cmp	r3, r9
 8003714:	e9dd 8a13 	ldrd	r8, sl, [sp, #76]	; 0x4c
 8003718:	4606      	mov	r6, r0
 800371a:	9304      	str	r3, [sp, #16]
 800371c:	9206      	str	r2, [sp, #24]
 800371e:	dc56      	bgt.n	80037ce <LCD_Draw_LinePNX+0xf6>
 8003720:	eb09 75d9 	add.w	r5, r9, r9, lsr #31
 8003724:	106d      	asrs	r5, r5, #1
 8003726:	426d      	negs	r5, r5
 8003728:	461a      	mov	r2, r3
 800372a:	f108 33ff 	add.w	r3, r8, #4294967295	; 0xffffffff
 800372e:	b2db      	uxtb	r3, r3
 8003730:	4252      	negs	r2, r2
 8003732:	4c28      	ldr	r4, [pc, #160]	; (80037d4 <LCD_Draw_LinePNX+0xfc>)
 8003734:	9301      	str	r3, [sp, #4]
 8003736:	fa5f fb86 	uxtb.w	fp, r6
 800373a:	b2fb      	uxtb	r3, r7
 800373c:	9203      	str	r2, [sp, #12]
 800373e:	9a01      	ldr	r2, [sp, #4]
 8003740:	9300      	str	r3, [sp, #0]
 8003742:	445a      	add	r2, fp
 8003744:	4619      	mov	r1, r3
 8003746:	b2d2      	uxtb	r2, r2
 8003748:	4658      	mov	r0, fp
 800374a:	f7ff fddb 	bl	8003304 <setAddrWindow>
 800374e:	f1b8 0f00 	cmp.w	r8, #0
 8003752:	9b00      	ldr	r3, [sp, #0]
 8003754:	dd1c      	ble.n	8003790 <LCD_Draw_LinePNX+0xb8>
 8003756:	9a12      	ldr	r2, [sp, #72]	; 0x48
 8003758:	fb02 6107 	mla	r1, r2, r7, r6
 800375c:	eb08 0001 	add.w	r0, r8, r1
 8003760:	eb0a 0040 	add.w	r0, sl, r0, lsl #1
 8003764:	eb0a 0141 	add.w	r1, sl, r1, lsl #1
 8003768:	6822      	ldr	r2, [r4, #0]
 800376a:	6892      	ldr	r2, [r2, #8]
 800376c:	0792      	lsls	r2, r2, #30
 800376e:	d5fb      	bpl.n	8003768 <LCD_Draw_LinePNX+0x90>
 8003770:	6822      	ldr	r2, [r4, #0]
 8003772:	f891 c001 	ldrb.w	ip, [r1, #1]
 8003776:	f882 c00c 	strb.w	ip, [r2, #12]
 800377a:	6822      	ldr	r2, [r4, #0]
 800377c:	6892      	ldr	r2, [r2, #8]
 800377e:	0792      	lsls	r2, r2, #30
 8003780:	d5fb      	bpl.n	800377a <LCD_Draw_LinePNX+0xa2>
 8003782:	f811 cb02 	ldrb.w	ip, [r1], #2
 8003786:	6822      	ldr	r2, [r4, #0]
 8003788:	4288      	cmp	r0, r1
 800378a:	f882 c00c 	strb.w	ip, [r2, #12]
 800378e:	d1eb      	bne.n	8003768 <LCD_Draw_LinePNX+0x90>
 8003790:	9a02      	ldr	r2, [sp, #8]
 8003792:	4296      	cmp	r6, r2
 8003794:	d015      	beq.n	80037c2 <LCD_Draw_LinePNX+0xea>
 8003796:	9a03      	ldr	r2, [sp, #12]
 8003798:	42aa      	cmp	r2, r5
 800379a:	da0d      	bge.n	80037b8 <LCD_Draw_LinePNX+0xe0>
 800379c:	9a05      	ldr	r2, [sp, #20]
 800379e:	454d      	cmp	r5, r9
 80037a0:	4416      	add	r6, r2
 80037a2:	fa5f fb86 	uxtb.w	fp, r6
 80037a6:	eba5 0209 	sub.w	r2, r5, r9
 80037aa:	da08      	bge.n	80037be <LCD_Draw_LinePNX+0xe6>
 80037ac:	9b06      	ldr	r3, [sp, #24]
 80037ae:	441f      	add	r7, r3
 80037b0:	9b04      	ldr	r3, [sp, #16]
 80037b2:	18d5      	adds	r5, r2, r3
 80037b4:	b2fb      	uxtb	r3, r7
 80037b6:	e7c2      	b.n	800373e <LCD_Draw_LinePNX+0x66>
 80037b8:	454d      	cmp	r5, r9
 80037ba:	462a      	mov	r2, r5
 80037bc:	dbf6      	blt.n	80037ac <LCD_Draw_LinePNX+0xd4>
 80037be:	4615      	mov	r5, r2
 80037c0:	e7bd      	b.n	800373e <LCD_Draw_LinePNX+0x66>
 80037c2:	9a07      	ldr	r2, [sp, #28]
 80037c4:	4297      	cmp	r7, r2
 80037c6:	d1e6      	bne.n	8003796 <LCD_Draw_LinePNX+0xbe>
 80037c8:	b009      	add	sp, #36	; 0x24
 80037ca:	e8bd 8ff0 	ldmia.w	sp!, {r4, r5, r6, r7, r8, r9, sl, fp, pc}
 80037ce:	105d      	asrs	r5, r3, #1
 80037d0:	461a      	mov	r2, r3
 80037d2:	e7aa      	b.n	800372a <LCD_Draw_LinePNX+0x52>
 80037d4:	20012998 	.word	0x20012998

080037d8 <LCD_Draw_LinePNXShadow>:
 80037d8:	e92d 4ff0 	stmdb	sp!, {r4, r5, r6, r7, r8, r9, sl, fp, lr}
 80037dc:	b089      	sub	sp, #36	; 0x24
 80037de:	460f      	mov	r7, r1
 80037e0:	9307      	str	r3, [sp, #28]
 80037e2:	4619      	mov	r1, r3
 80037e4:	1a13      	subs	r3, r2, r0
 80037e6:	eba1 0907 	sub.w	r9, r1, r7
 80037ea:	2b00      	cmp	r3, #0
 80037ec:	bfb8      	it	lt
 80037ee:	425b      	neglt	r3, r3
 80037f0:	f1b9 0f00 	cmp.w	r9, #0
 80037f4:	bfb8      	it	lt
 80037f6:	f1c9 0900 	rsblt	r9, r9, #0
 80037fa:	9202      	str	r2, [sp, #8]
 80037fc:	4282      	cmp	r2, r0
 80037fe:	bfcc      	ite	gt
 8003800:	2201      	movgt	r2, #1
 8003802:	f04f 32ff 	movle.w	r2, #4294967295	; 0xffffffff
 8003806:	9205      	str	r2, [sp, #20]
 8003808:	42b9      	cmp	r1, r7
 800380a:	bfcc      	ite	gt
 800380c:	2201      	movgt	r2, #1
 800380e:	f04f 32ff 	movle.w	r2, #4294967295	; 0xffffffff
 8003812:	454b      	cmp	r3, r9
 8003814:	e9dd 8a13 	ldrd	r8, sl, [sp, #76]	; 0x4c
 8003818:	4606      	mov	r6, r0
 800381a:	9304      	str	r3, [sp, #16]
 800381c:	9206      	str	r2, [sp, #24]
 800381e:	dc70      	bgt.n	8003902 <LCD_Draw_LinePNXShadow+0x12a>
 8003820:	eb09 75d9 	add.w	r5, r9, r9, lsr #31
 8003824:	106d      	asrs	r5, r5, #1
 8003826:	426d      	negs	r5, r5
 8003828:	461a      	mov	r2, r3
 800382a:	f108 33ff 	add.w	r3, r8, #4294967295	; 0xffffffff
 800382e:	b2db      	uxtb	r3, r3
 8003830:	4252      	negs	r2, r2
 8003832:	4c35      	ldr	r4, [pc, #212]	; (8003908 <LCD_Draw_LinePNXShadow+0x130>)
 8003834:	9301      	str	r3, [sp, #4]
 8003836:	fa5f fb86 	uxtb.w	fp, r6
 800383a:	b2fb      	uxtb	r3, r7
 800383c:	9203      	str	r2, [sp, #12]
 800383e:	9a01      	ldr	r2, [sp, #4]
 8003840:	9300      	str	r3, [sp, #0]
 8003842:	445a      	add	r2, fp
 8003844:	4619      	mov	r1, r3
 8003846:	b2d2      	uxtb	r2, r2
 8003848:	4658      	mov	r0, fp
 800384a:	f7ff fd5b 	bl	8003304 <setAddrWindow>
 800384e:	f1b8 0f00 	cmp.w	r8, #0
 8003852:	9b00      	ldr	r3, [sp, #0]
 8003854:	dd36      	ble.n	80038c4 <LCD_Draw_LinePNXShadow+0xec>
 8003856:	9a12      	ldr	r2, [sp, #72]	; 0x48
 8003858:	fb02 6007 	mla	r0, r2, r7, r6
 800385c:	eb08 0c00 	add.w	ip, r8, r0
 8003860:	ee07 3a90 	vmov	s15, r3
 8003864:	eb0a 0c4c 	add.w	ip, sl, ip, lsl #1
 8003868:	eb0a 0040 	add.w	r0, sl, r0, lsl #1
 800386c:	f830 1b02 	ldrh.w	r1, [r0], #2
 8003870:	ea4f 2ed1 	mov.w	lr, r1, lsr #11
 8003874:	f001 021f 	and.w	r2, r1, #31
 8003878:	ebce 0ece 	rsb	lr, lr, lr, lsl #3
 800387c:	ebc2 02c2 	rsb	r2, r2, r2, lsl #3
 8003880:	f3c1 1145 	ubfx	r1, r1, #5, #6
 8003884:	ea4f 0eee 	mov.w	lr, lr, asr #3
 8003888:	10d2      	asrs	r2, r2, #3
 800388a:	ebc1 01c1 	rsb	r1, r1, r1, lsl #3
 800388e:	ea42 22ce 	orr.w	r2, r2, lr, lsl #11
 8003892:	10c9      	asrs	r1, r1, #3
 8003894:	ea42 1241 	orr.w	r2, r2, r1, lsl #5
 8003898:	b211      	sxth	r1, r2
 800389a:	fa1f fe82 	uxth.w	lr, r2
 800389e:	6823      	ldr	r3, [r4, #0]
 80038a0:	689b      	ldr	r3, [r3, #8]
 80038a2:	079a      	lsls	r2, r3, #30
 80038a4:	d5fb      	bpl.n	800389e <LCD_Draw_LinePNXShadow+0xc6>
 80038a6:	6823      	ldr	r3, [r4, #0]
 80038a8:	f3ce 2207 	ubfx	r2, lr, #8, #8
 80038ac:	731a      	strb	r2, [r3, #12]
 80038ae:	6823      	ldr	r3, [r4, #0]
 80038b0:	689b      	ldr	r3, [r3, #8]
 80038b2:	079b      	lsls	r3, r3, #30
 80038b4:	d5fb      	bpl.n	80038ae <LCD_Draw_LinePNXShadow+0xd6>
 80038b6:	6822      	ldr	r2, [r4, #0]
 80038b8:	b2c9      	uxtb	r1, r1
 80038ba:	4584      	cmp	ip, r0
 80038bc:	7311      	strb	r1, [r2, #12]
 80038be:	d1d5      	bne.n	800386c <LCD_Draw_LinePNXShadow+0x94>
 80038c0:	ee17 3a90 	vmov	r3, s15
 80038c4:	9a02      	ldr	r2, [sp, #8]
 80038c6:	4296      	cmp	r6, r2
 80038c8:	d015      	beq.n	80038f6 <LCD_Draw_LinePNXShadow+0x11e>
 80038ca:	9a03      	ldr	r2, [sp, #12]
 80038cc:	42aa      	cmp	r2, r5
 80038ce:	da0d      	bge.n	80038ec <LCD_Draw_LinePNXShadow+0x114>
 80038d0:	9a05      	ldr	r2, [sp, #20]
 80038d2:	454d      	cmp	r5, r9
 80038d4:	4416      	add	r6, r2
 80038d6:	fa5f fb86 	uxtb.w	fp, r6
 80038da:	eba5 0209 	sub.w	r2, r5, r9
 80038de:	da08      	bge.n	80038f2 <LCD_Draw_LinePNXShadow+0x11a>
 80038e0:	9b06      	ldr	r3, [sp, #24]
 80038e2:	441f      	add	r7, r3
 80038e4:	9b04      	ldr	r3, [sp, #16]
 80038e6:	18d5      	adds	r5, r2, r3
 80038e8:	b2fb      	uxtb	r3, r7
 80038ea:	e7a8      	b.n	800383e <LCD_Draw_LinePNXShadow+0x66>
 80038ec:	454d      	cmp	r5, r9
 80038ee:	462a      	mov	r2, r5
 80038f0:	dbf6      	blt.n	80038e0 <LCD_Draw_LinePNXShadow+0x108>
 80038f2:	4615      	mov	r5, r2
 80038f4:	e7a3      	b.n	800383e <LCD_Draw_LinePNXShadow+0x66>
 80038f6:	9a07      	ldr	r2, [sp, #28]
 80038f8:	4297      	cmp	r7, r2
 80038fa:	d1e6      	bne.n	80038ca <LCD_Draw_LinePNXShadow+0xf2>
 80038fc:	b009      	add	sp, #36	; 0x24
 80038fe:	e8bd 8ff0 	ldmia.w	sp!, {r4, r5, r6, r7, r8, r9, sl, fp, pc}
 8003902:	105d      	asrs	r5, r3, #1
 8003904:	461a      	mov	r2, r3
 8003906:	e790      	b.n	800382a <LCD_Draw_LinePNXShadow+0x52>
 8003908:	20012998 	.word	0x20012998

0800390c <HAL_MspInit>:
 800390c:	b082      	sub	sp, #8
 800390e:	4b0c      	ldr	r3, [pc, #48]	; (8003940 <HAL_MspInit+0x34>)
 8003910:	2100      	movs	r1, #0
 8003912:	9100      	str	r1, [sp, #0]
 8003914:	6c5a      	ldr	r2, [r3, #68]	; 0x44
 8003916:	f442 4280 	orr.w	r2, r2, #16384	; 0x4000
 800391a:	645a      	str	r2, [r3, #68]	; 0x44
 800391c:	6c5a      	ldr	r2, [r3, #68]	; 0x44
 800391e:	f402 4280 	and.w	r2, r2, #16384	; 0x4000
 8003922:	9200      	str	r2, [sp, #0]
 8003924:	9a00      	ldr	r2, [sp, #0]
 8003926:	9101      	str	r1, [sp, #4]
 8003928:	6c1a      	ldr	r2, [r3, #64]	; 0x40
 800392a:	f042 5280 	orr.w	r2, r2, #268435456	; 0x10000000
 800392e:	641a      	str	r2, [r3, #64]	; 0x40
 8003930:	6c1b      	ldr	r3, [r3, #64]	; 0x40
 8003932:	f003 5380 	and.w	r3, r3, #268435456	; 0x10000000
 8003936:	9301      	str	r3, [sp, #4]
 8003938:	9b01      	ldr	r3, [sp, #4]
 800393a:	b002      	add	sp, #8
 800393c:	4770      	bx	lr
 800393e:	bf00      	nop
 8003940:	40023800 	.word	0x40023800

08003944 <HAL_I2S_MspInit>:
 8003944:	b5f0      	push	{r4, r5, r6, r7, lr}
 8003946:	6801      	ldr	r1, [r0, #0]
 8003948:	4a35      	ldr	r2, [pc, #212]	; (8003a20 <HAL_I2S_MspInit+0xdc>)
 800394a:	b08f      	sub	sp, #60	; 0x3c
 800394c:	2300      	movs	r3, #0
 800394e:	4291      	cmp	r1, r2
 8003950:	e9cd 3302 	strd	r3, r3, [sp, #8]
 8003954:	e9cd 3304 	strd	r3, r3, [sp, #16]
 8003958:	e9cd 330b 	strd	r3, r3, [sp, #44]	; 0x2c
 800395c:	9306      	str	r3, [sp, #24]
 800395e:	d001      	beq.n	8003964 <HAL_I2S_MspInit+0x20>
 8003960:	b00f      	add	sp, #60	; 0x3c
 8003962:	bdf0      	pop	{r4, r5, r6, r7, pc}
 8003964:	4604      	mov	r4, r0
 8003966:	2601      	movs	r6, #1
 8003968:	27c0      	movs	r7, #192	; 0xc0
 800396a:	2302      	movs	r3, #2
 800396c:	a808      	add	r0, sp, #32
 800396e:	e9cd 6708 	strd	r6, r7, [sp, #32]
 8003972:	930a      	str	r3, [sp, #40]	; 0x28
 8003974:	f001 fff6 	bl	8005964 <HAL_RCCEx_PeriphCLKConfig>
 8003978:	2800      	cmp	r0, #0
 800397a:	d14a      	bne.n	8003a12 <HAL_I2S_MspInit+0xce>
 800397c:	4b29      	ldr	r3, [pc, #164]	; (8003a24 <HAL_I2S_MspInit+0xe0>)
 800397e:	4d2a      	ldr	r5, [pc, #168]	; (8003a28 <HAL_I2S_MspInit+0xe4>)
 8003980:	2600      	movs	r6, #0
 8003982:	9600      	str	r6, [sp, #0]
 8003984:	6c1a      	ldr	r2, [r3, #64]	; 0x40
 8003986:	f442 4280 	orr.w	r2, r2, #16384	; 0x4000
 800398a:	641a      	str	r2, [r3, #64]	; 0x40
 800398c:	6c1a      	ldr	r2, [r3, #64]	; 0x40
 800398e:	f402 4280 	and.w	r2, r2, #16384	; 0x4000
 8003992:	9200      	str	r2, [sp, #0]
 8003994:	9a00      	ldr	r2, [sp, #0]
 8003996:	9601      	str	r6, [sp, #4]
 8003998:	6b1a      	ldr	r2, [r3, #48]	; 0x30
 800399a:	f042 0202 	orr.w	r2, r2, #2
 800399e:	631a      	str	r2, [r3, #48]	; 0x30
 80039a0:	6b1b      	ldr	r3, [r3, #48]	; 0x30
 80039a2:	f003 0302 	and.w	r3, r3, #2
 80039a6:	9301      	str	r3, [sp, #4]
 80039a8:	f44f 4214 	mov.w	r2, #37888	; 0x9400
 80039ac:	2302      	movs	r3, #2
 80039ae:	e9cd 2302 	strd	r2, r3, [sp, #8]
 80039b2:	2200      	movs	r2, #0
 80039b4:	2300      	movs	r3, #0
 80039b6:	e9cd 2304 	strd	r2, r3, [sp, #16]
 80039ba:	9801      	ldr	r0, [sp, #4]
 80039bc:	481b      	ldr	r0, [pc, #108]	; (8003a2c <HAL_I2S_MspInit+0xe8>)
 80039be:	2305      	movs	r3, #5
 80039c0:	a902      	add	r1, sp, #8
 80039c2:	9306      	str	r3, [sp, #24]
 80039c4:	f000 fc70 	bl	80042a8 <HAL_GPIO_Init>
 80039c8:	4a19      	ldr	r2, [pc, #100]	; (8003a30 <HAL_I2S_MspInit+0xec>)
 80039ca:	602a      	str	r2, [r5, #0]
 80039cc:	2340      	movs	r3, #64	; 0x40
 80039ce:	f44f 6080 	mov.w	r0, #1024	; 0x400
 80039d2:	f44f 6100 	mov.w	r1, #2048	; 0x800
 80039d6:	f44f 5200 	mov.w	r2, #8192	; 0x2000
 80039da:	60ab      	str	r3, [r5, #8]
 80039dc:	6128      	str	r0, [r5, #16]
 80039de:	f44f 7380 	mov.w	r3, #256	; 0x100
 80039e2:	f44f 3000 	mov.w	r0, #131072	; 0x20000
 80039e6:	6169      	str	r1, [r5, #20]
 80039e8:	61aa      	str	r2, [r5, #24]
 80039ea:	2104      	movs	r1, #4
 80039ec:	2203      	movs	r2, #3
 80039ee:	61eb      	str	r3, [r5, #28]
 80039f0:	6228      	str	r0, [r5, #32]
 80039f2:	f04f 7380 	mov.w	r3, #16777216	; 0x1000000
 80039f6:	4628      	mov	r0, r5
 80039f8:	e9c5 1209 	strd	r1, r2, [r5, #36]	; 0x24
 80039fc:	606e      	str	r6, [r5, #4]
 80039fe:	60ee      	str	r6, [r5, #12]
 8003a00:	632e      	str	r6, [r5, #48]	; 0x30
 8003a02:	62eb      	str	r3, [r5, #44]	; 0x2c
 8003a04:	f000 fac6 	bl	8003f94 <HAL_DMA_Init>
 8003a08:	b930      	cbnz	r0, 8003a18 <HAL_I2S_MspInit+0xd4>
 8003a0a:	63a5      	str	r5, [r4, #56]	; 0x38
 8003a0c:	63ac      	str	r4, [r5, #56]	; 0x38
 8003a0e:	b00f      	add	sp, #60	; 0x3c
 8003a10:	bdf0      	pop	{r4, r5, r6, r7, pc}
 8003a12:	f7ff fa8f 	bl	8002f34 <Error_Handler>
 8003a16:	e7b1      	b.n	800397c <HAL_I2S_MspInit+0x38>
 8003a18:	f7ff fa8c 	bl	8002f34 <Error_Handler>
 8003a1c:	e7f5      	b.n	8003a0a <HAL_I2S_MspInit+0xc6>
 8003a1e:	bf00      	nop
 8003a20:	40003800 	.word	0x40003800
 8003a24:	40023800 	.word	0x40023800
 8003a28:	200128bc 	.word	0x200128bc
 8003a2c:	40020400 	.word	0x40020400
 8003a30:	40026070 	.word	0x40026070

08003a34 <HAL_SPI_MspInit>:
 8003a34:	b530      	push	{r4, r5, lr}
 8003a36:	6802      	ldr	r2, [r0, #0]
 8003a38:	4927      	ldr	r1, [pc, #156]	; (8003ad8 <HAL_SPI_MspInit+0xa4>)
 8003a3a:	b08b      	sub	sp, #44	; 0x2c
 8003a3c:	2300      	movs	r3, #0
 8003a3e:	428a      	cmp	r2, r1
 8003a40:	e9cd 3304 	strd	r3, r3, [sp, #16]
 8003a44:	e9cd 3306 	strd	r3, r3, [sp, #24]
 8003a48:	9308      	str	r3, [sp, #32]
 8003a4a:	d004      	beq.n	8003a56 <HAL_SPI_MspInit+0x22>
 8003a4c:	4923      	ldr	r1, [pc, #140]	; (8003adc <HAL_SPI_MspInit+0xa8>)
 8003a4e:	428a      	cmp	r2, r1
 8003a50:	d026      	beq.n	8003aa0 <HAL_SPI_MspInit+0x6c>
 8003a52:	b00b      	add	sp, #44	; 0x2c
 8003a54:	bd30      	pop	{r4, r5, pc}
 8003a56:	4a22      	ldr	r2, [pc, #136]	; (8003ae0 <HAL_SPI_MspInit+0xac>)
 8003a58:	9300      	str	r3, [sp, #0]
 8003a5a:	6c51      	ldr	r1, [r2, #68]	; 0x44
 8003a5c:	4821      	ldr	r0, [pc, #132]	; (8003ae4 <HAL_SPI_MspInit+0xb0>)
 8003a5e:	f441 5180 	orr.w	r1, r1, #4096	; 0x1000
 8003a62:	6451      	str	r1, [r2, #68]	; 0x44
 8003a64:	6c51      	ldr	r1, [r2, #68]	; 0x44
 8003a66:	f401 5180 	and.w	r1, r1, #4096	; 0x1000
 8003a6a:	9100      	str	r1, [sp, #0]
 8003a6c:	9900      	ldr	r1, [sp, #0]
 8003a6e:	9301      	str	r3, [sp, #4]
 8003a70:	6b13      	ldr	r3, [r2, #48]	; 0x30
 8003a72:	f043 0301 	orr.w	r3, r3, #1
 8003a76:	6313      	str	r3, [r2, #48]	; 0x30
 8003a78:	6b13      	ldr	r3, [r2, #48]	; 0x30
 8003a7a:	f003 0301 	and.w	r3, r3, #1
 8003a7e:	9301      	str	r3, [sp, #4]
 8003a80:	9a01      	ldr	r2, [sp, #4]
 8003a82:	a904      	add	r1, sp, #16
 8003a84:	24a0      	movs	r4, #160	; 0xa0
 8003a86:	2502      	movs	r5, #2
 8003a88:	2305      	movs	r3, #5
 8003a8a:	9308      	str	r3, [sp, #32]
 8003a8c:	2200      	movs	r2, #0
 8003a8e:	2303      	movs	r3, #3
 8003a90:	e9cd 4504 	strd	r4, r5, [sp, #16]
 8003a94:	e9cd 2306 	strd	r2, r3, [sp, #24]
 8003a98:	f000 fc06 	bl	80042a8 <HAL_GPIO_Init>
 8003a9c:	b00b      	add	sp, #44	; 0x2c
 8003a9e:	bd30      	pop	{r4, r5, pc}
 8003aa0:	4a0f      	ldr	r2, [pc, #60]	; (8003ae0 <HAL_SPI_MspInit+0xac>)
 8003aa2:	9302      	str	r3, [sp, #8]
 8003aa4:	6c11      	ldr	r1, [r2, #64]	; 0x40
 8003aa6:	4810      	ldr	r0, [pc, #64]	; (8003ae8 <HAL_SPI_MspInit+0xb4>)
 8003aa8:	f441 4100 	orr.w	r1, r1, #32768	; 0x8000
 8003aac:	6411      	str	r1, [r2, #64]	; 0x40
 8003aae:	6c11      	ldr	r1, [r2, #64]	; 0x40
 8003ab0:	f401 4100 	and.w	r1, r1, #32768	; 0x8000
 8003ab4:	9102      	str	r1, [sp, #8]
 8003ab6:	9902      	ldr	r1, [sp, #8]
 8003ab8:	9303      	str	r3, [sp, #12]
 8003aba:	6b13      	ldr	r3, [r2, #48]	; 0x30
 8003abc:	f043 0302 	orr.w	r3, r3, #2
 8003ac0:	6313      	str	r3, [r2, #48]	; 0x30
 8003ac2:	6b13      	ldr	r3, [r2, #48]	; 0x30
 8003ac4:	f003 0302 	and.w	r3, r3, #2
 8003ac8:	9303      	str	r3, [sp, #12]
 8003aca:	9a03      	ldr	r2, [sp, #12]
 8003acc:	a904      	add	r1, sp, #16
 8003ace:	2428      	movs	r4, #40	; 0x28
 8003ad0:	2502      	movs	r5, #2
 8003ad2:	2306      	movs	r3, #6
 8003ad4:	e7d9      	b.n	8003a8a <HAL_SPI_MspInit+0x56>
 8003ad6:	bf00      	nop
 8003ad8:	40013000 	.word	0x40013000
 8003adc:	40003c00 	.word	0x40003c00
 8003ae0:	40023800 	.word	0x40023800
 8003ae4:	40020000 	.word	0x40020000
 8003ae8:	40020400 	.word	0x40020400

08003aec <HAL_TIM_Encoder_MspInit>:
 8003aec:	b530      	push	{r4, r5, lr}
 8003aee:	6802      	ldr	r2, [r0, #0]
 8003af0:	b089      	sub	sp, #36	; 0x24
 8003af2:	2300      	movs	r3, #0
 8003af4:	f1b2 4f80 	cmp.w	r2, #1073741824	; 0x40000000
 8003af8:	e9cd 3302 	strd	r3, r3, [sp, #8]
 8003afc:	e9cd 3304 	strd	r3, r3, [sp, #16]
 8003b00:	9306      	str	r3, [sp, #24]
 8003b02:	d001      	beq.n	8003b08 <HAL_TIM_Encoder_MspInit+0x1c>
 8003b04:	b009      	add	sp, #36	; 0x24
 8003b06:	bd30      	pop	{r4, r5, pc}
 8003b08:	f502 320e 	add.w	r2, r2, #145408	; 0x23800
 8003b0c:	9300      	str	r3, [sp, #0]
 8003b0e:	6c11      	ldr	r1, [r2, #64]	; 0x40
 8003b10:	4810      	ldr	r0, [pc, #64]	; (8003b54 <HAL_TIM_Encoder_MspInit+0x68>)
 8003b12:	f041 0101 	orr.w	r1, r1, #1
 8003b16:	6411      	str	r1, [r2, #64]	; 0x40
 8003b18:	6c11      	ldr	r1, [r2, #64]	; 0x40
 8003b1a:	f001 0101 	and.w	r1, r1, #1
 8003b1e:	9100      	str	r1, [sp, #0]
 8003b20:	9900      	ldr	r1, [sp, #0]
 8003b22:	9301      	str	r3, [sp, #4]
 8003b24:	6b13      	ldr	r3, [r2, #48]	; 0x30
 8003b26:	f043 0301 	orr.w	r3, r3, #1
 8003b2a:	6313      	str	r3, [r2, #48]	; 0x30
 8003b2c:	6b13      	ldr	r3, [r2, #48]	; 0x30
 8003b2e:	f003 0301 	and.w	r3, r3, #1
 8003b32:	9301      	str	r3, [sp, #4]
 8003b34:	2301      	movs	r3, #1
 8003b36:	9a01      	ldr	r2, [sp, #4]
 8003b38:	9306      	str	r3, [sp, #24]
 8003b3a:	2201      	movs	r2, #1
 8003b3c:	2300      	movs	r3, #0
 8003b3e:	a902      	add	r1, sp, #8
 8003b40:	2403      	movs	r4, #3
 8003b42:	2502      	movs	r5, #2
 8003b44:	e9cd 4502 	strd	r4, r5, [sp, #8]
 8003b48:	e9cd 2304 	strd	r2, r3, [sp, #16]
 8003b4c:	f000 fbac 	bl	80042a8 <HAL_GPIO_Init>
 8003b50:	b009      	add	sp, #36	; 0x24
 8003b52:	bd30      	pop	{r4, r5, pc}
 8003b54:	40020000 	.word	0x40020000

08003b58 <HAL_TIM_Base_MspInit>:
 8003b58:	4b0a      	ldr	r3, [pc, #40]	; (8003b84 <HAL_TIM_Base_MspInit+0x2c>)
 8003b5a:	6802      	ldr	r2, [r0, #0]
 8003b5c:	429a      	cmp	r2, r3
 8003b5e:	d000      	beq.n	8003b62 <HAL_TIM_Base_MspInit+0xa>
 8003b60:	4770      	bx	lr
 8003b62:	b082      	sub	sp, #8
 8003b64:	f503 330d 	add.w	r3, r3, #144384	; 0x23400
 8003b68:	2200      	movs	r2, #0
 8003b6a:	9201      	str	r2, [sp, #4]
 8003b6c:	6c1a      	ldr	r2, [r3, #64]	; 0x40
 8003b6e:	f042 0202 	orr.w	r2, r2, #2
 8003b72:	641a      	str	r2, [r3, #64]	; 0x40
 8003b74:	6c1b      	ldr	r3, [r3, #64]	; 0x40
 8003b76:	f003 0302 	and.w	r3, r3, #2
 8003b7a:	9301      	str	r3, [sp, #4]
 8003b7c:	9b01      	ldr	r3, [sp, #4]
 8003b7e:	b002      	add	sp, #8
 8003b80:	4770      	bx	lr
 8003b82:	bf00      	nop
 8003b84:	40000400 	.word	0x40000400

08003b88 <HAL_UART_MspInit>:
 8003b88:	b530      	push	{r4, r5, lr}
 8003b8a:	6801      	ldr	r1, [r0, #0]
 8003b8c:	4a18      	ldr	r2, [pc, #96]	; (8003bf0 <HAL_UART_MspInit+0x68>)
 8003b8e:	b089      	sub	sp, #36	; 0x24
 8003b90:	2300      	movs	r3, #0
 8003b92:	4291      	cmp	r1, r2
 8003b94:	e9cd 3302 	strd	r3, r3, [sp, #8]
 8003b98:	e9cd 3304 	strd	r3, r3, [sp, #16]
 8003b9c:	9306      	str	r3, [sp, #24]
 8003b9e:	d001      	beq.n	8003ba4 <HAL_UART_MspInit+0x1c>
 8003ba0:	b009      	add	sp, #36	; 0x24
 8003ba2:	bd30      	pop	{r4, r5, pc}
 8003ba4:	f502 3294 	add.w	r2, r2, #75776	; 0x12800
 8003ba8:	9300      	str	r3, [sp, #0]
 8003baa:	6c51      	ldr	r1, [r2, #68]	; 0x44
 8003bac:	4811      	ldr	r0, [pc, #68]	; (8003bf4 <HAL_UART_MspInit+0x6c>)
 8003bae:	f041 0110 	orr.w	r1, r1, #16
 8003bb2:	6451      	str	r1, [r2, #68]	; 0x44
 8003bb4:	6c51      	ldr	r1, [r2, #68]	; 0x44
 8003bb6:	f001 0110 	and.w	r1, r1, #16
 8003bba:	9100      	str	r1, [sp, #0]
 8003bbc:	9900      	ldr	r1, [sp, #0]
 8003bbe:	9301      	str	r3, [sp, #4]
 8003bc0:	6b13      	ldr	r3, [r2, #48]	; 0x30
 8003bc2:	f043 0302 	orr.w	r3, r3, #2
 8003bc6:	6313      	str	r3, [r2, #48]	; 0x30
 8003bc8:	6b13      	ldr	r3, [r2, #48]	; 0x30
 8003bca:	f003 0302 	and.w	r3, r3, #2
 8003bce:	9301      	str	r3, [sp, #4]
 8003bd0:	2307      	movs	r3, #7
 8003bd2:	9a01      	ldr	r2, [sp, #4]
 8003bd4:	9306      	str	r3, [sp, #24]
 8003bd6:	2200      	movs	r2, #0
 8003bd8:	2303      	movs	r3, #3
 8003bda:	a902      	add	r1, sp, #8
 8003bdc:	24c0      	movs	r4, #192	; 0xc0
 8003bde:	2502      	movs	r5, #2
 8003be0:	e9cd 4502 	strd	r4, r5, [sp, #8]
 8003be4:	e9cd 2304 	strd	r2, r3, [sp, #16]
 8003be8:	f000 fb5e 	bl	80042a8 <HAL_GPIO_Init>
 8003bec:	b009      	add	sp, #36	; 0x24
 8003bee:	bd30      	pop	{r4, r5, pc}
 8003bf0:	40011000 	.word	0x40011000
 8003bf4:	40020400 	.word	0x40020400

08003bf8 <NMI_Handler>:
 8003bf8:	e7fe      	b.n	8003bf8 <NMI_Handler>
 8003bfa:	bf00      	nop

08003bfc <HardFault_Handler>:
 8003bfc:	e7fe      	b.n	8003bfc <HardFault_Handler>
 8003bfe:	bf00      	nop

08003c00 <MemManage_Handler>:
 8003c00:	e7fe      	b.n	8003c00 <MemManage_Handler>
 8003c02:	bf00      	nop

08003c04 <BusFault_Handler>:
 8003c04:	e7fe      	b.n	8003c04 <BusFault_Handler>
 8003c06:	bf00      	nop

08003c08 <UsageFault_Handler>:
 8003c08:	e7fe      	b.n	8003c08 <UsageFault_Handler>
 8003c0a:	bf00      	nop

08003c0c <SVC_Handler>:
 8003c0c:	4770      	bx	lr
 8003c0e:	bf00      	nop

08003c10 <DebugMon_Handler>:
 8003c10:	4770      	bx	lr
 8003c12:	bf00      	nop

08003c14 <PendSV_Handler>:
 8003c14:	4770      	bx	lr
 8003c16:	bf00      	nop

08003c18 <SysTick_Handler>:
 8003c18:	f000 b924 	b.w	8003e64 <HAL_IncTick>

08003c1c <DMA1_Stream4_IRQHandler>:
 8003c1c:	4801      	ldr	r0, [pc, #4]	; (8003c24 <DMA1_Stream4_IRQHandler+0x8>)
 8003c1e:	f000 ba53 	b.w	80040c8 <HAL_DMA_IRQHandler>
 8003c22:	bf00      	nop
 8003c24:	200128bc 	.word	0x200128bc

08003c28 <DMA2_Stream1_IRQHandler>:
 8003c28:	b508      	push	{r3, lr}
 8003c2a:	4b13      	ldr	r3, [pc, #76]	; (8003c78 <DMA2_Stream1_IRQHandler+0x50>)
 8003c2c:	681a      	ldr	r2, [r3, #0]
 8003c2e:	0510      	lsls	r0, r2, #20
 8003c30:	d408      	bmi.n	8003c44 <DMA2_Stream1_IRQHandler+0x1c>
 8003c32:	4b11      	ldr	r3, [pc, #68]	; (8003c78 <DMA2_Stream1_IRQHandler+0x50>)
 8003c34:	681a      	ldr	r2, [r3, #0]
 8003c36:	0551      	lsls	r1, r2, #21
 8003c38:	d40d      	bmi.n	8003c56 <DMA2_Stream1_IRQHandler+0x2e>
 8003c3a:	4b0f      	ldr	r3, [pc, #60]	; (8003c78 <DMA2_Stream1_IRQHandler+0x50>)
 8003c3c:	681a      	ldr	r2, [r3, #0]
 8003c3e:	0592      	lsls	r2, r2, #22
 8003c40:	d412      	bmi.n	8003c68 <DMA2_Stream1_IRQHandler+0x40>
 8003c42:	bd08      	pop	{r3, pc}
 8003c44:	f44f 6200 	mov.w	r2, #2048	; 0x800
 8003c48:	609a      	str	r2, [r3, #8]
 8003c4a:	f7fd fe63 	bl	8001914 <TIM1_TC1>
 8003c4e:	4b0a      	ldr	r3, [pc, #40]	; (8003c78 <DMA2_Stream1_IRQHandler+0x50>)
 8003c50:	681a      	ldr	r2, [r3, #0]
 8003c52:	0551      	lsls	r1, r2, #21
 8003c54:	d5f1      	bpl.n	8003c3a <DMA2_Stream1_IRQHandler+0x12>
 8003c56:	f44f 6280 	mov.w	r2, #1024	; 0x400
 8003c5a:	609a      	str	r2, [r3, #8]
 8003c5c:	f7fd feb4 	bl	80019c8 <TIM1_HT1>
 8003c60:	4b05      	ldr	r3, [pc, #20]	; (8003c78 <DMA2_Stream1_IRQHandler+0x50>)
 8003c62:	681a      	ldr	r2, [r3, #0]
 8003c64:	0592      	lsls	r2, r2, #22
 8003c66:	d5ec      	bpl.n	8003c42 <DMA2_Stream1_IRQHandler+0x1a>
 8003c68:	f44f 7200 	mov.w	r2, #512	; 0x200
 8003c6c:	609a      	str	r2, [r3, #8]
 8003c6e:	e8bd 4008 	ldmia.w	sp!, {r3, lr}
 8003c72:	f7fd bafd 	b.w	8001270 <TIM1_TE1>
 8003c76:	bf00      	nop
 8003c78:	40026400 	.word	0x40026400

08003c7c <DMA2_Stream2_IRQHandler>:
 8003c7c:	b508      	push	{r3, lr}
 8003c7e:	4b13      	ldr	r3, [pc, #76]	; (8003ccc <DMA2_Stream2_IRQHandler+0x50>)
 8003c80:	681a      	ldr	r2, [r3, #0]
 8003c82:	0290      	lsls	r0, r2, #10
 8003c84:	d408      	bmi.n	8003c98 <DMA2_Stream2_IRQHandler+0x1c>
 8003c86:	4b11      	ldr	r3, [pc, #68]	; (8003ccc <DMA2_Stream2_IRQHandler+0x50>)
 8003c88:	681a      	ldr	r2, [r3, #0]
 8003c8a:	02d1      	lsls	r1, r2, #11
 8003c8c:	d40d      	bmi.n	8003caa <DMA2_Stream2_IRQHandler+0x2e>
 8003c8e:	4b0f      	ldr	r3, [pc, #60]	; (8003ccc <DMA2_Stream2_IRQHandler+0x50>)
 8003c90:	681a      	ldr	r2, [r3, #0]
 8003c92:	0312      	lsls	r2, r2, #12
 8003c94:	d412      	bmi.n	8003cbc <DMA2_Stream2_IRQHandler+0x40>
 8003c96:	bd08      	pop	{r3, pc}
 8003c98:	f44f 1200 	mov.w	r2, #2097152	; 0x200000
 8003c9c:	609a      	str	r2, [r3, #8]
 8003c9e:	f7fd fae9 	bl	8001274 <TIM1_TC2>
 8003ca2:	4b0a      	ldr	r3, [pc, #40]	; (8003ccc <DMA2_Stream2_IRQHandler+0x50>)
 8003ca4:	681a      	ldr	r2, [r3, #0]
 8003ca6:	02d1      	lsls	r1, r2, #11
 8003ca8:	d5f1      	bpl.n	8003c8e <DMA2_Stream2_IRQHandler+0x12>
 8003caa:	f44f 1280 	mov.w	r2, #1048576	; 0x100000
 8003cae:	609a      	str	r2, [r3, #8]
 8003cb0:	f7fd fae2 	bl	8001278 <TIM1_HT2>
 8003cb4:	4b05      	ldr	r3, [pc, #20]	; (8003ccc <DMA2_Stream2_IRQHandler+0x50>)
 8003cb6:	681a      	ldr	r2, [r3, #0]
 8003cb8:	0312      	lsls	r2, r2, #12
 8003cba:	d5ec      	bpl.n	8003c96 <DMA2_Stream2_IRQHandler+0x1a>
 8003cbc:	f44f 2200 	mov.w	r2, #524288	; 0x80000
 8003cc0:	609a      	str	r2, [r3, #8]
 8003cc2:	e8bd 4008 	ldmia.w	sp!, {r3, lr}
 8003cc6:	f7fd bad9 	b.w	800127c <TIM1_TE2>
 8003cca:	bf00      	nop
 8003ccc:	40026400 	.word	0x40026400

08003cd0 <OTG_FS_IRQHandler>:
 8003cd0:	4801      	ldr	r0, [pc, #4]	; (8003cd8 <OTG_FS_IRQHandler+0x8>)
 8003cd2:	f000 bed9 	b.w	8004a88 <HAL_PCD_IRQHandler>
 8003cd6:	bf00      	nop
 8003cd8:	200130c8 	.word	0x200130c8

08003cdc <_getpid>:
 8003cdc:	2001      	movs	r0, #1
 8003cde:	4770      	bx	lr

08003ce0 <_kill>:
 8003ce0:	b508      	push	{r3, lr}
 8003ce2:	f004 fed5 	bl	8008a90 <__errno>
 8003ce6:	2316      	movs	r3, #22
 8003ce8:	6003      	str	r3, [r0, #0]
 8003cea:	f04f 30ff 	mov.w	r0, #4294967295	; 0xffffffff
 8003cee:	bd08      	pop	{r3, pc}

08003cf0 <_exit>:
 8003cf0:	b508      	push	{r3, lr}
 8003cf2:	f004 fecd 	bl	8008a90 <__errno>
 8003cf6:	2316      	movs	r3, #22
 8003cf8:	6003      	str	r3, [r0, #0]
 8003cfa:	e7fe      	b.n	8003cfa <_exit+0xa>

08003cfc <_read>:
 8003cfc:	b570      	push	{r4, r5, r6, lr}
 8003cfe:	1e16      	subs	r6, r2, #0
 8003d00:	dd07      	ble.n	8003d12 <_read+0x16>
 8003d02:	460c      	mov	r4, r1
 8003d04:	198d      	adds	r5, r1, r6
 8003d06:	f3af 8000 	nop.w
 8003d0a:	f804 0b01 	strb.w	r0, [r4], #1
 8003d0e:	42a5      	cmp	r5, r4
 8003d10:	d1f9      	bne.n	8003d06 <_read+0xa>
 8003d12:	4630      	mov	r0, r6
 8003d14:	bd70      	pop	{r4, r5, r6, pc}
 8003d16:	bf00      	nop

08003d18 <_close>:
 8003d18:	f04f 30ff 	mov.w	r0, #4294967295	; 0xffffffff
 8003d1c:	4770      	bx	lr
 8003d1e:	bf00      	nop

08003d20 <_fstat>:
 8003d20:	f44f 5300 	mov.w	r3, #8192	; 0x2000
 8003d24:	604b      	str	r3, [r1, #4]
 8003d26:	2000      	movs	r0, #0
 8003d28:	4770      	bx	lr
 8003d2a:	bf00      	nop

08003d2c <_isatty>:
 8003d2c:	2001      	movs	r0, #1
 8003d2e:	4770      	bx	lr

08003d30 <_lseek>:
 8003d30:	2000      	movs	r0, #0
 8003d32:	4770      	bx	lr

08003d34 <_sbrk>:
 8003d34:	490c      	ldr	r1, [pc, #48]	; (8003d68 <_sbrk+0x34>)
 8003d36:	4a0d      	ldr	r2, [pc, #52]	; (8003d6c <_sbrk+0x38>)
 8003d38:	680b      	ldr	r3, [r1, #0]
 8003d3a:	b510      	push	{r4, lr}
 8003d3c:	4c0c      	ldr	r4, [pc, #48]	; (8003d70 <_sbrk+0x3c>)
 8003d3e:	1b12      	subs	r2, r2, r4
 8003d40:	b12b      	cbz	r3, 8003d4e <_sbrk+0x1a>
 8003d42:	4418      	add	r0, r3
 8003d44:	4290      	cmp	r0, r2
 8003d46:	d807      	bhi.n	8003d58 <_sbrk+0x24>
 8003d48:	6008      	str	r0, [r1, #0]
 8003d4a:	4618      	mov	r0, r3
 8003d4c:	bd10      	pop	{r4, pc}
 8003d4e:	4b09      	ldr	r3, [pc, #36]	; (8003d74 <_sbrk+0x40>)
 8003d50:	600b      	str	r3, [r1, #0]
 8003d52:	4418      	add	r0, r3
 8003d54:	4290      	cmp	r0, r2
 8003d56:	d9f7      	bls.n	8003d48 <_sbrk+0x14>
 8003d58:	f004 fe9a 	bl	8008a90 <__errno>
 8003d5c:	230c      	movs	r3, #12
 8003d5e:	6003      	str	r3, [r0, #0]
 8003d60:	f04f 33ff 	mov.w	r3, #4294967295	; 0xffffffff
 8003d64:	4618      	mov	r0, r3
 8003d66:	bd10      	pop	{r4, pc}
 8003d68:	20000368 	.word	0x20000368
 8003d6c:	20018000 	.word	0x20018000
 8003d70:	00000400 	.word	0x00000400
 8003d74:	200134e0 	.word	0x200134e0

08003d78 <SystemInit>:
 8003d78:	4a03      	ldr	r2, [pc, #12]	; (8003d88 <SystemInit+0x10>)
 8003d7a:	f8d2 3088 	ldr.w	r3, [r2, #136]	; 0x88
 8003d7e:	f443 0370 	orr.w	r3, r3, #15728640	; 0xf00000
 8003d82:	f8c2 3088 	str.w	r3, [r2, #136]	; 0x88
 8003d86:	4770      	bx	lr
 8003d88:	e000ed00 	.word	0xe000ed00

08003d8c <getImageData>:
 8003d8c:	4800      	ldr	r0, [pc, #0]	; (8003d90 <getImageData+0x4>)
 8003d8e:	4770      	bx	lr
 8003d90:	08028c24 	.word	0x08028c24

08003d94 <Reset_Handler>:
 8003d94:	f8df d034 	ldr.w	sp, [pc, #52]	; 8003dcc <LoopFillZerobss+0x12>
 8003d98:	480d      	ldr	r0, [pc, #52]	; (8003dd0 <LoopFillZerobss+0x16>)
 8003d9a:	490e      	ldr	r1, [pc, #56]	; (8003dd4 <LoopFillZerobss+0x1a>)
 8003d9c:	4a0e      	ldr	r2, [pc, #56]	; (8003dd8 <LoopFillZerobss+0x1e>)
 8003d9e:	2300      	movs	r3, #0
 8003da0:	e002      	b.n	8003da8 <LoopCopyDataInit>

08003da2 <CopyDataInit>:
 8003da2:	58d4      	ldr	r4, [r2, r3]
 8003da4:	50c4      	str	r4, [r0, r3]
 8003da6:	3304      	adds	r3, #4

08003da8 <LoopCopyDataInit>:
 8003da8:	18c4      	adds	r4, r0, r3
 8003daa:	428c      	cmp	r4, r1
 8003dac:	d3f9      	bcc.n	8003da2 <CopyDataInit>
 8003dae:	4a0b      	ldr	r2, [pc, #44]	; (8003ddc <LoopFillZerobss+0x22>)
 8003db0:	4c0b      	ldr	r4, [pc, #44]	; (8003de0 <LoopFillZerobss+0x26>)
 8003db2:	2300      	movs	r3, #0
 8003db4:	e001      	b.n	8003dba <LoopFillZerobss>

08003db6 <FillZerobss>:
 8003db6:	6013      	str	r3, [r2, #0]
 8003db8:	3204      	adds	r2, #4

08003dba <LoopFillZerobss>:
 8003dba:	42a2      	cmp	r2, r4
 8003dbc:	d3fb      	bcc.n	8003db6 <FillZerobss>
 8003dbe:	f7ff ffdb 	bl	8003d78 <SystemInit>
 8003dc2:	f004 fe6b 	bl	8008a9c <__libc_init_array>
 8003dc6:	f7fe f8ab 	bl	8001f20 <main>
 8003dca:	4770      	bx	lr
 8003dcc:	20018000 	.word	0x20018000
 8003dd0:	20000000 	.word	0x20000000
 8003dd4:	2000031c 	.word	0x2000031c
 8003dd8:	08045654 	.word	0x08045654
 8003ddc:	2000031c 	.word	0x2000031c
 8003de0:	200134e0 	.word	0x200134e0

08003de4 <ADC_IRQHandler>:
 8003de4:	e7fe      	b.n	8003de4 <ADC_IRQHandler>
	...

08003de8 <HAL_InitTick>:
 8003de8:	b538      	push	{r3, r4, r5, lr}
 8003dea:	4a0e      	ldr	r2, [pc, #56]	; (8003e24 <HAL_InitTick+0x3c>)
 8003dec:	4b0e      	ldr	r3, [pc, #56]	; (8003e28 <HAL_InitTick+0x40>)
 8003dee:	7812      	ldrb	r2, [r2, #0]
 8003df0:	681b      	ldr	r3, [r3, #0]
 8003df2:	4605      	mov	r5, r0
 8003df4:	f44f 707a 	mov.w	r0, #1000	; 0x3e8
 8003df8:	fbb0 f0f2 	udiv	r0, r0, r2
 8003dfc:	fbb3 f0f0 	udiv	r0, r3, r0
 8003e00:	f000 f8ae 	bl	8003f60 <HAL_SYSTICK_Config>
 8003e04:	b908      	cbnz	r0, 8003e0a <HAL_InitTick+0x22>
 8003e06:	2d0f      	cmp	r5, #15
 8003e08:	d901      	bls.n	8003e0e <HAL_InitTick+0x26>
 8003e0a:	2001      	movs	r0, #1
 8003e0c:	bd38      	pop	{r3, r4, r5, pc}
 8003e0e:	4604      	mov	r4, r0
 8003e10:	4602      	mov	r2, r0
 8003e12:	4629      	mov	r1, r5
 8003e14:	f04f 30ff 	mov.w	r0, #4294967295	; 0xffffffff
 8003e18:	f000 f85c 	bl	8003ed4 <HAL_NVIC_SetPriority>
 8003e1c:	4b03      	ldr	r3, [pc, #12]	; (8003e2c <HAL_InitTick+0x44>)
 8003e1e:	4620      	mov	r0, r4
 8003e20:	601d      	str	r5, [r3, #0]
 8003e22:	bd38      	pop	{r3, r4, r5, pc}
 8003e24:	20000020 	.word	0x20000020
 8003e28:	2000001c 	.word	0x2000001c
 8003e2c:	20000024 	.word	0x20000024

08003e30 <HAL_Init>:
 8003e30:	b508      	push	{r3, lr}
 8003e32:	4b0b      	ldr	r3, [pc, #44]	; (8003e60 <HAL_Init+0x30>)
 8003e34:	681a      	ldr	r2, [r3, #0]
 8003e36:	f442 7200 	orr.w	r2, r2, #512	; 0x200
 8003e3a:	601a      	str	r2, [r3, #0]
 8003e3c:	681a      	ldr	r2, [r3, #0]
 8003e3e:	f442 6280 	orr.w	r2, r2, #1024	; 0x400
 8003e42:	601a      	str	r2, [r3, #0]
 8003e44:	681a      	ldr	r2, [r3, #0]
 8003e46:	f442 7280 	orr.w	r2, r2, #256	; 0x100
 8003e4a:	601a      	str	r2, [r3, #0]
 8003e4c:	2003      	movs	r0, #3
 8003e4e:	f000 f82d 	bl	8003eac <HAL_NVIC_SetPriorityGrouping>
 8003e52:	200f      	movs	r0, #15
 8003e54:	f7ff ffc8 	bl	8003de8 <HAL_InitTick>
 8003e58:	f7ff fd58 	bl	800390c <HAL_MspInit>
 8003e5c:	2000      	movs	r0, #0
 8003e5e:	bd08      	pop	{r3, pc}
 8003e60:	40023c00 	.word	0x40023c00

08003e64 <HAL_IncTick>:
 8003e64:	4a03      	ldr	r2, [pc, #12]	; (8003e74 <HAL_IncTick+0x10>)
 8003e66:	4b04      	ldr	r3, [pc, #16]	; (8003e78 <HAL_IncTick+0x14>)
 8003e68:	6811      	ldr	r1, [r2, #0]
 8003e6a:	781b      	ldrb	r3, [r3, #0]
 8003e6c:	440b      	add	r3, r1
 8003e6e:	6013      	str	r3, [r2, #0]
 8003e70:	4770      	bx	lr
 8003e72:	bf00      	nop
 8003e74:	20012bf4 	.word	0x20012bf4
 8003e78:	20000020 	.word	0x20000020

08003e7c <HAL_GetTick>:
 8003e7c:	4b01      	ldr	r3, [pc, #4]	; (8003e84 <HAL_GetTick+0x8>)
 8003e7e:	6818      	ldr	r0, [r3, #0]
 8003e80:	4770      	bx	lr
 8003e82:	bf00      	nop
 8003e84:	20012bf4 	.word	0x20012bf4

08003e88 <HAL_Delay>:
 8003e88:	b538      	push	{r3, r4, r5, lr}
 8003e8a:	4604      	mov	r4, r0
 8003e8c:	f7ff fff6 	bl	8003e7c <HAL_GetTick>
 8003e90:	1c63      	adds	r3, r4, #1
 8003e92:	4605      	mov	r5, r0
 8003e94:	d002      	beq.n	8003e9c <HAL_Delay+0x14>
 8003e96:	4b04      	ldr	r3, [pc, #16]	; (8003ea8 <HAL_Delay+0x20>)
 8003e98:	781b      	ldrb	r3, [r3, #0]
 8003e9a:	441c      	add	r4, r3
 8003e9c:	f7ff ffee 	bl	8003e7c <HAL_GetTick>
 8003ea0:	1b43      	subs	r3, r0, r5
 8003ea2:	42a3      	cmp	r3, r4
 8003ea4:	d3fa      	bcc.n	8003e9c <HAL_Delay+0x14>
 8003ea6:	bd38      	pop	{r3, r4, r5, pc}
 8003ea8:	20000020 	.word	0x20000020

08003eac <HAL_NVIC_SetPriorityGrouping>:
 8003eac:	4908      	ldr	r1, [pc, #32]	; (8003ed0 <HAL_NVIC_SetPriorityGrouping+0x24>)
 8003eae:	68ca      	ldr	r2, [r1, #12]
 8003eb0:	b410      	push	{r4}
 8003eb2:	0200      	lsls	r0, r0, #8
 8003eb4:	f64f 04ff 	movw	r4, #63743	; 0xf8ff
 8003eb8:	4022      	ands	r2, r4
 8003eba:	f400 63e0 	and.w	r3, r0, #1792	; 0x700
 8003ebe:	4313      	orrs	r3, r2
 8003ec0:	f043 63bf 	orr.w	r3, r3, #100139008	; 0x5f80000
 8003ec4:	f443 3300 	orr.w	r3, r3, #131072	; 0x20000
 8003ec8:	f85d 4b04 	ldr.w	r4, [sp], #4
 8003ecc:	60cb      	str	r3, [r1, #12]
 8003ece:	4770      	bx	lr
 8003ed0:	e000ed00 	.word	0xe000ed00

08003ed4 <HAL_NVIC_SetPriority>:
 8003ed4:	4b19      	ldr	r3, [pc, #100]	; (8003f3c <HAL_NVIC_SetPriority+0x68>)
 8003ed6:	68db      	ldr	r3, [r3, #12]
 8003ed8:	f3c3 2302 	ubfx	r3, r3, #8, #3
 8003edc:	b430      	push	{r4, r5}
 8003ede:	f1c3 0507 	rsb	r5, r3, #7
 8003ee2:	2d04      	cmp	r5, #4
 8003ee4:	f103 0404 	add.w	r4, r3, #4
 8003ee8:	bf28      	it	cs
 8003eea:	2504      	movcs	r5, #4
 8003eec:	2c06      	cmp	r4, #6
 8003eee:	d919      	bls.n	8003f24 <HAL_NVIC_SetPriority+0x50>
 8003ef0:	3b03      	subs	r3, #3
 8003ef2:	f04f 34ff 	mov.w	r4, #4294967295	; 0xffffffff
 8003ef6:	409c      	lsls	r4, r3
 8003ef8:	ea22 0204 	bic.w	r2, r2, r4
 8003efc:	f04f 34ff 	mov.w	r4, #4294967295	; 0xffffffff
 8003f00:	40ac      	lsls	r4, r5
 8003f02:	ea21 0104 	bic.w	r1, r1, r4
 8003f06:	4099      	lsls	r1, r3
 8003f08:	2800      	cmp	r0, #0
 8003f0a:	ea41 0102 	orr.w	r1, r1, r2
 8003f0e:	db0c      	blt.n	8003f2a <HAL_NVIC_SetPriority+0x56>
 8003f10:	f100 4060 	add.w	r0, r0, #3758096384	; 0xe0000000
 8003f14:	f500 4061 	add.w	r0, r0, #57600	; 0xe100
 8003f18:	0109      	lsls	r1, r1, #4
 8003f1a:	b2c9      	uxtb	r1, r1
 8003f1c:	f880 1300 	strb.w	r1, [r0, #768]	; 0x300
 8003f20:	bc30      	pop	{r4, r5}
 8003f22:	4770      	bx	lr
 8003f24:	2200      	movs	r2, #0
 8003f26:	4613      	mov	r3, r2
 8003f28:	e7e8      	b.n	8003efc <HAL_NVIC_SetPriority+0x28>
 8003f2a:	4b05      	ldr	r3, [pc, #20]	; (8003f40 <HAL_NVIC_SetPriority+0x6c>)
 8003f2c:	f000 000f 	and.w	r0, r0, #15
 8003f30:	0109      	lsls	r1, r1, #4
 8003f32:	4403      	add	r3, r0
 8003f34:	b2c9      	uxtb	r1, r1
 8003f36:	7619      	strb	r1, [r3, #24]
 8003f38:	bc30      	pop	{r4, r5}
 8003f3a:	4770      	bx	lr
 8003f3c:	e000ed00 	.word	0xe000ed00
 8003f40:	e000ecfc 	.word	0xe000ecfc

08003f44 <HAL_NVIC_EnableIRQ>:
 8003f44:	2800      	cmp	r0, #0
 8003f46:	db07      	blt.n	8003f58 <HAL_NVIC_EnableIRQ+0x14>
 8003f48:	f000 011f 	and.w	r1, r0, #31
 8003f4c:	4a03      	ldr	r2, [pc, #12]	; (8003f5c <HAL_NVIC_EnableIRQ+0x18>)
 8003f4e:	0940      	lsrs	r0, r0, #5
 8003f50:	2301      	movs	r3, #1
 8003f52:	408b      	lsls	r3, r1
 8003f54:	f842 3020 	str.w	r3, [r2, r0, lsl #2]
 8003f58:	4770      	bx	lr
 8003f5a:	bf00      	nop
 8003f5c:	e000e100 	.word	0xe000e100

08003f60 <HAL_SYSTICK_Config>:
 8003f60:	3801      	subs	r0, #1
 8003f62:	f1b0 7f80 	cmp.w	r0, #16777216	; 0x1000000
 8003f66:	d20e      	bcs.n	8003f86 <HAL_SYSTICK_Config+0x26>
 8003f68:	4b08      	ldr	r3, [pc, #32]	; (8003f8c <HAL_SYSTICK_Config+0x2c>)
 8003f6a:	b410      	push	{r4}
 8003f6c:	4c08      	ldr	r4, [pc, #32]	; (8003f90 <HAL_SYSTICK_Config+0x30>)
 8003f6e:	6058      	str	r0, [r3, #4]
 8003f70:	20f0      	movs	r0, #240	; 0xf0
 8003f72:	f884 0023 	strb.w	r0, [r4, #35]	; 0x23
 8003f76:	2200      	movs	r2, #0
 8003f78:	2107      	movs	r1, #7
 8003f7a:	4610      	mov	r0, r2
 8003f7c:	609a      	str	r2, [r3, #8]
 8003f7e:	f85d 4b04 	ldr.w	r4, [sp], #4
 8003f82:	6019      	str	r1, [r3, #0]
 8003f84:	4770      	bx	lr
 8003f86:	2001      	movs	r0, #1
 8003f88:	4770      	bx	lr
 8003f8a:	bf00      	nop
 8003f8c:	e000e010 	.word	0xe000e010
 8003f90:	e000ed00 	.word	0xe000ed00

08003f94 <HAL_DMA_Init>:
 8003f94:	b5f8      	push	{r3, r4, r5, r6, r7, lr}
 8003f96:	4604      	mov	r4, r0
 8003f98:	f7ff ff70 	bl	8003e7c <HAL_GetTick>
 8003f9c:	2c00      	cmp	r4, #0
 8003f9e:	d054      	beq.n	800404a <HAL_DMA_Init+0xb6>
 8003fa0:	6823      	ldr	r3, [r4, #0]
 8003fa2:	2200      	movs	r2, #0
 8003fa4:	2102      	movs	r1, #2
 8003fa6:	f884 1035 	strb.w	r1, [r4, #53]	; 0x35
 8003faa:	f884 2034 	strb.w	r2, [r4, #52]	; 0x34
 8003fae:	681a      	ldr	r2, [r3, #0]
 8003fb0:	f022 0201 	bic.w	r2, r2, #1
 8003fb4:	4605      	mov	r5, r0
 8003fb6:	601a      	str	r2, [r3, #0]
 8003fb8:	e005      	b.n	8003fc6 <HAL_DMA_Init+0x32>
 8003fba:	f7ff ff5f 	bl	8003e7c <HAL_GetTick>
 8003fbe:	1b43      	subs	r3, r0, r5
 8003fc0:	2b05      	cmp	r3, #5
 8003fc2:	d83b      	bhi.n	800403c <HAL_DMA_Init+0xa8>
 8003fc4:	6823      	ldr	r3, [r4, #0]
 8003fc6:	681a      	ldr	r2, [r3, #0]
 8003fc8:	07d1      	lsls	r1, r2, #31
 8003fca:	d4f6      	bmi.n	8003fba <HAL_DMA_Init+0x26>
 8003fcc:	e9d4 2601 	ldrd	r2, r6, [r4, #4]
 8003fd0:	e9d4 5003 	ldrd	r5, r0, [r4, #12]
 8003fd4:	4332      	orrs	r2, r6
 8003fd6:	6961      	ldr	r1, [r4, #20]
 8003fd8:	681f      	ldr	r7, [r3, #0]
 8003fda:	432a      	orrs	r2, r5
 8003fdc:	e9d4 6506 	ldrd	r6, r5, [r4, #24]
 8003fe0:	4302      	orrs	r2, r0
 8003fe2:	430a      	orrs	r2, r1
 8003fe4:	6a20      	ldr	r0, [r4, #32]
 8003fe6:	4935      	ldr	r1, [pc, #212]	; (80040bc <HAL_DMA_Init+0x128>)
 8003fe8:	4332      	orrs	r2, r6
 8003fea:	432a      	orrs	r2, r5
 8003fec:	4302      	orrs	r2, r0
 8003fee:	6a60      	ldr	r0, [r4, #36]	; 0x24
 8003ff0:	4039      	ands	r1, r7
 8003ff2:	2804      	cmp	r0, #4
 8003ff4:	ea41 0102 	orr.w	r1, r1, r2
 8003ff8:	d029      	beq.n	800404e <HAL_DMA_Init+0xba>
 8003ffa:	6019      	str	r1, [r3, #0]
 8003ffc:	695a      	ldr	r2, [r3, #20]
 8003ffe:	f022 0207 	bic.w	r2, r2, #7
 8004002:	4310      	orrs	r0, r2
 8004004:	b2da      	uxtb	r2, r3
 8004006:	492e      	ldr	r1, [pc, #184]	; (80040c0 <HAL_DMA_Init+0x12c>)
 8004008:	6158      	str	r0, [r3, #20]
 800400a:	3a10      	subs	r2, #16
 800400c:	fba1 0102 	umull	r0, r1, r1, r2
 8004010:	0909      	lsrs	r1, r1, #4
 8004012:	482c      	ldr	r0, [pc, #176]	; (80040c4 <HAL_DMA_Init+0x130>)
 8004014:	f423 737f 	bic.w	r3, r3, #1020	; 0x3fc
 8004018:	5c41      	ldrb	r1, [r0, r1]
 800401a:	65e1      	str	r1, [r4, #92]	; 0x5c
 800401c:	f023 0303 	bic.w	r3, r3, #3
 8004020:	2a5f      	cmp	r2, #95	; 0x5f
 8004022:	bf88      	it	hi
 8004024:	3304      	addhi	r3, #4
 8004026:	223f      	movs	r2, #63	; 0x3f
 8004028:	408a      	lsls	r2, r1
 800402a:	2501      	movs	r5, #1
 800402c:	2100      	movs	r1, #0
 800402e:	65a3      	str	r3, [r4, #88]	; 0x58
 8004030:	609a      	str	r2, [r3, #8]
 8004032:	6561      	str	r1, [r4, #84]	; 0x54
 8004034:	f884 5035 	strb.w	r5, [r4, #53]	; 0x35
 8004038:	4608      	mov	r0, r1
 800403a:	bdf8      	pop	{r3, r4, r5, r6, r7, pc}
 800403c:	2303      	movs	r3, #3
 800403e:	2220      	movs	r2, #32
 8004040:	6562      	str	r2, [r4, #84]	; 0x54
 8004042:	f884 3035 	strb.w	r3, [r4, #53]	; 0x35
 8004046:	4618      	mov	r0, r3
 8004048:	bdf8      	pop	{r3, r4, r5, r6, r7, pc}
 800404a:	2001      	movs	r0, #1
 800404c:	bdf8      	pop	{r3, r4, r5, r6, r7, pc}
 800404e:	e9d4 500b 	ldrd	r5, r0, [r4, #44]	; 0x2c
 8004052:	4328      	orrs	r0, r5
 8004054:	4301      	orrs	r1, r0
 8004056:	6aa2      	ldr	r2, [r4, #40]	; 0x28
 8004058:	6019      	str	r1, [r3, #0]
 800405a:	6958      	ldr	r0, [r3, #20]
 800405c:	f020 0007 	bic.w	r0, r0, #7
 8004060:	4310      	orrs	r0, r2
 8004062:	f040 0004 	orr.w	r0, r0, #4
 8004066:	2d00      	cmp	r5, #0
 8004068:	d0cc      	beq.n	8004004 <HAL_DMA_Init+0x70>
 800406a:	b17e      	cbz	r6, 800408c <HAL_DMA_Init+0xf8>
 800406c:	f5b6 5f00 	cmp.w	r6, #8192	; 0x2000
 8004070:	d012      	beq.n	8004098 <HAL_DMA_Init+0x104>
 8004072:	2a02      	cmp	r2, #2
 8004074:	d903      	bls.n	800407e <HAL_DMA_Init+0xea>
 8004076:	2a03      	cmp	r2, #3
 8004078:	d1c4      	bne.n	8004004 <HAL_DMA_Init+0x70>
 800407a:	01ea      	lsls	r2, r5, #7
 800407c:	d5c2      	bpl.n	8004004 <HAL_DMA_Init+0x70>
 800407e:	2301      	movs	r3, #1
 8004080:	2240      	movs	r2, #64	; 0x40
 8004082:	6562      	str	r2, [r4, #84]	; 0x54
 8004084:	f884 3035 	strb.w	r3, [r4, #53]	; 0x35
 8004088:	4618      	mov	r0, r3
 800408a:	bdf8      	pop	{r3, r4, r5, r6, r7, pc}
 800408c:	2a01      	cmp	r2, #1
 800408e:	d011      	beq.n	80040b4 <HAL_DMA_Init+0x120>
 8004090:	f032 0202 	bics.w	r2, r2, #2
 8004094:	d1b6      	bne.n	8004004 <HAL_DMA_Init+0x70>
 8004096:	e7f0      	b.n	800407a <HAL_DMA_Init+0xe6>
 8004098:	2a03      	cmp	r2, #3
 800409a:	d8b3      	bhi.n	8004004 <HAL_DMA_Init+0x70>
 800409c:	a101      	add	r1, pc, #4	; (adr r1, 80040a4 <HAL_DMA_Init+0x110>)
 800409e:	f851 f022 	ldr.w	pc, [r1, r2, lsl #2]
 80040a2:	bf00      	nop
 80040a4:	0800407f 	.word	0x0800407f
 80040a8:	0800407b 	.word	0x0800407b
 80040ac:	0800407f 	.word	0x0800407f
 80040b0:	080040b5 	.word	0x080040b5
 80040b4:	f1b5 7fc0 	cmp.w	r5, #25165824	; 0x1800000
 80040b8:	d1a4      	bne.n	8004004 <HAL_DMA_Init+0x70>
 80040ba:	e7e0      	b.n	800407e <HAL_DMA_Init+0xea>
 80040bc:	f010803f 	.word	0xf010803f
 80040c0:	aaaaaaab 	.word	0xaaaaaaab
 80040c4:	08044e28 	.word	0x08044e28

080040c8 <HAL_DMA_IRQHandler>:
 80040c8:	e92d 41f0 	stmdb	sp!, {r4, r5, r6, r7, r8, lr}
 80040cc:	b082      	sub	sp, #8
 80040ce:	2300      	movs	r3, #0
 80040d0:	6d86      	ldr	r6, [r0, #88]	; 0x58
 80040d2:	9301      	str	r3, [sp, #4]
 80040d4:	6dc3      	ldr	r3, [r0, #92]	; 0x5c
 80040d6:	6834      	ldr	r4, [r6, #0]
 80040d8:	4971      	ldr	r1, [pc, #452]	; (80042a0 <HAL_DMA_IRQHandler+0x1d8>)
 80040da:	2208      	movs	r2, #8
 80040dc:	409a      	lsls	r2, r3
 80040de:	4222      	tst	r2, r4
 80040e0:	680d      	ldr	r5, [r1, #0]
 80040e2:	4680      	mov	r8, r0
 80040e4:	d004      	beq.n	80040f0 <HAL_DMA_IRQHandler+0x28>
 80040e6:	6801      	ldr	r1, [r0, #0]
 80040e8:	680f      	ldr	r7, [r1, #0]
 80040ea:	0778      	lsls	r0, r7, #29
 80040ec:	f100 808a 	bmi.w	8004204 <HAL_DMA_IRQHandler+0x13c>
 80040f0:	2201      	movs	r2, #1
 80040f2:	409a      	lsls	r2, r3
 80040f4:	4222      	tst	r2, r4
 80040f6:	d004      	beq.n	8004102 <HAL_DMA_IRQHandler+0x3a>
 80040f8:	f8d8 1000 	ldr.w	r1, [r8]
 80040fc:	6949      	ldr	r1, [r1, #20]
 80040fe:	0609      	lsls	r1, r1, #24
 8004100:	d478      	bmi.n	80041f4 <HAL_DMA_IRQHandler+0x12c>
 8004102:	2204      	movs	r2, #4
 8004104:	409a      	lsls	r2, r3
 8004106:	4222      	tst	r2, r4
 8004108:	d004      	beq.n	8004114 <HAL_DMA_IRQHandler+0x4c>
 800410a:	f8d8 1000 	ldr.w	r1, [r8]
 800410e:	6809      	ldr	r1, [r1, #0]
 8004110:	078f      	lsls	r7, r1, #30
 8004112:	d467      	bmi.n	80041e4 <HAL_DMA_IRQHandler+0x11c>
 8004114:	2210      	movs	r2, #16
 8004116:	409a      	lsls	r2, r3
 8004118:	4222      	tst	r2, r4
 800411a:	d004      	beq.n	8004126 <HAL_DMA_IRQHandler+0x5e>
 800411c:	f8d8 1000 	ldr.w	r1, [r8]
 8004120:	680f      	ldr	r7, [r1, #0]
 8004122:	0738      	lsls	r0, r7, #28
 8004124:	d449      	bmi.n	80041ba <HAL_DMA_IRQHandler+0xf2>
 8004126:	2220      	movs	r2, #32
 8004128:	409a      	lsls	r2, r3
 800412a:	4222      	tst	r2, r4
 800412c:	d017      	beq.n	800415e <HAL_DMA_IRQHandler+0x96>
 800412e:	f8d8 1000 	ldr.w	r1, [r8]
 8004132:	680c      	ldr	r4, [r1, #0]
 8004134:	06e0      	lsls	r0, r4, #27
 8004136:	d512      	bpl.n	800415e <HAL_DMA_IRQHandler+0x96>
 8004138:	60b2      	str	r2, [r6, #8]
 800413a:	f898 2035 	ldrb.w	r2, [r8, #53]	; 0x35
 800413e:	2a05      	cmp	r2, #5
 8004140:	d073      	beq.n	800422a <HAL_DMA_IRQHandler+0x162>
 8004142:	680b      	ldr	r3, [r1, #0]
 8004144:	f413 2f80 	tst.w	r3, #262144	; 0x40000
 8004148:	680b      	ldr	r3, [r1, #0]
 800414a:	f000 8090 	beq.w	800426e <HAL_DMA_IRQHandler+0x1a6>
 800414e:	0319      	lsls	r1, r3, #12
 8004150:	f140 809b 	bpl.w	800428a <HAL_DMA_IRQHandler+0x1c2>
 8004154:	f8d8 303c 	ldr.w	r3, [r8, #60]	; 0x3c
 8004158:	b10b      	cbz	r3, 800415e <HAL_DMA_IRQHandler+0x96>
 800415a:	4640      	mov	r0, r8
 800415c:	4798      	blx	r3
 800415e:	f8d8 3054 	ldr.w	r3, [r8, #84]	; 0x54
 8004162:	b33b      	cbz	r3, 80041b4 <HAL_DMA_IRQHandler+0xec>
 8004164:	f8d8 3054 	ldr.w	r3, [r8, #84]	; 0x54
 8004168:	07da      	lsls	r2, r3, #31
 800416a:	d51b      	bpl.n	80041a4 <HAL_DMA_IRQHandler+0xdc>
 800416c:	f8d8 2000 	ldr.w	r2, [r8]
 8004170:	494c      	ldr	r1, [pc, #304]	; (80042a4 <HAL_DMA_IRQHandler+0x1dc>)
 8004172:	2305      	movs	r3, #5
 8004174:	f888 3035 	strb.w	r3, [r8, #53]	; 0x35
 8004178:	6813      	ldr	r3, [r2, #0]
 800417a:	fba1 1505 	umull	r1, r5, r1, r5
 800417e:	f023 0301 	bic.w	r3, r3, #1
 8004182:	6013      	str	r3, [r2, #0]
 8004184:	0aad      	lsrs	r5, r5, #10
 8004186:	e002      	b.n	800418e <HAL_DMA_IRQHandler+0xc6>
 8004188:	6813      	ldr	r3, [r2, #0]
 800418a:	07db      	lsls	r3, r3, #31
 800418c:	d504      	bpl.n	8004198 <HAL_DMA_IRQHandler+0xd0>
 800418e:	9b01      	ldr	r3, [sp, #4]
 8004190:	3301      	adds	r3, #1
 8004192:	42ab      	cmp	r3, r5
 8004194:	9301      	str	r3, [sp, #4]
 8004196:	d9f7      	bls.n	8004188 <HAL_DMA_IRQHandler+0xc0>
 8004198:	2201      	movs	r2, #1
 800419a:	2300      	movs	r3, #0
 800419c:	f888 2035 	strb.w	r2, [r8, #53]	; 0x35
 80041a0:	f888 3034 	strb.w	r3, [r8, #52]	; 0x34
 80041a4:	f8d8 304c 	ldr.w	r3, [r8, #76]	; 0x4c
 80041a8:	b123      	cbz	r3, 80041b4 <HAL_DMA_IRQHandler+0xec>
 80041aa:	4640      	mov	r0, r8
 80041ac:	b002      	add	sp, #8
 80041ae:	e8bd 41f0 	ldmia.w	sp!, {r4, r5, r6, r7, r8, lr}
 80041b2:	4718      	bx	r3
 80041b4:	b002      	add	sp, #8
 80041b6:	e8bd 81f0 	ldmia.w	sp!, {r4, r5, r6, r7, r8, pc}
 80041ba:	60b2      	str	r2, [r6, #8]
 80041bc:	680a      	ldr	r2, [r1, #0]
 80041be:	f412 2f80 	tst.w	r2, #262144	; 0x40000
 80041c2:	680a      	ldr	r2, [r1, #0]
 80041c4:	d12a      	bne.n	800421c <HAL_DMA_IRQHandler+0x154>
 80041c6:	05d7      	lsls	r7, r2, #23
 80041c8:	d403      	bmi.n	80041d2 <HAL_DMA_IRQHandler+0x10a>
 80041ca:	680a      	ldr	r2, [r1, #0]
 80041cc:	f022 0208 	bic.w	r2, r2, #8
 80041d0:	600a      	str	r2, [r1, #0]
 80041d2:	f8d8 2040 	ldr.w	r2, [r8, #64]	; 0x40
 80041d6:	2a00      	cmp	r2, #0
 80041d8:	d0a5      	beq.n	8004126 <HAL_DMA_IRQHandler+0x5e>
 80041da:	4640      	mov	r0, r8
 80041dc:	4790      	blx	r2
 80041de:	f8d8 305c 	ldr.w	r3, [r8, #92]	; 0x5c
 80041e2:	e7a0      	b.n	8004126 <HAL_DMA_IRQHandler+0x5e>
 80041e4:	60b2      	str	r2, [r6, #8]
 80041e6:	f8d8 2054 	ldr.w	r2, [r8, #84]	; 0x54
 80041ea:	f042 0204 	orr.w	r2, r2, #4
 80041ee:	f8c8 2054 	str.w	r2, [r8, #84]	; 0x54
 80041f2:	e78f      	b.n	8004114 <HAL_DMA_IRQHandler+0x4c>
 80041f4:	60b2      	str	r2, [r6, #8]
 80041f6:	f8d8 2054 	ldr.w	r2, [r8, #84]	; 0x54
 80041fa:	f042 0202 	orr.w	r2, r2, #2
 80041fe:	f8c8 2054 	str.w	r2, [r8, #84]	; 0x54
 8004202:	e77e      	b.n	8004102 <HAL_DMA_IRQHandler+0x3a>
 8004204:	680f      	ldr	r7, [r1, #0]
 8004206:	f027 0704 	bic.w	r7, r7, #4
 800420a:	600f      	str	r7, [r1, #0]
 800420c:	60b2      	str	r2, [r6, #8]
 800420e:	f8d8 2054 	ldr.w	r2, [r8, #84]	; 0x54
 8004212:	f042 0201 	orr.w	r2, r2, #1
 8004216:	f8c8 2054 	str.w	r2, [r8, #84]	; 0x54
 800421a:	e769      	b.n	80040f0 <HAL_DMA_IRQHandler+0x28>
 800421c:	0312      	lsls	r2, r2, #12
 800421e:	d5d8      	bpl.n	80041d2 <HAL_DMA_IRQHandler+0x10a>
 8004220:	f8d8 2048 	ldr.w	r2, [r8, #72]	; 0x48
 8004224:	2a00      	cmp	r2, #0
 8004226:	d1d8      	bne.n	80041da <HAL_DMA_IRQHandler+0x112>
 8004228:	e77d      	b.n	8004126 <HAL_DMA_IRQHandler+0x5e>
 800422a:	680a      	ldr	r2, [r1, #0]
 800422c:	f8d8 4040 	ldr.w	r4, [r8, #64]	; 0x40
 8004230:	f022 0216 	bic.w	r2, r2, #22
 8004234:	600a      	str	r2, [r1, #0]
 8004236:	694a      	ldr	r2, [r1, #20]
 8004238:	f022 0280 	bic.w	r2, r2, #128	; 0x80
 800423c:	614a      	str	r2, [r1, #20]
 800423e:	b354      	cbz	r4, 8004296 <HAL_DMA_IRQHandler+0x1ce>
 8004240:	680a      	ldr	r2, [r1, #0]
 8004242:	f022 0208 	bic.w	r2, r2, #8
 8004246:	600a      	str	r2, [r1, #0]
 8004248:	223f      	movs	r2, #63	; 0x3f
 800424a:	f8d8 1050 	ldr.w	r1, [r8, #80]	; 0x50
 800424e:	fa02 f303 	lsl.w	r3, r2, r3
 8004252:	2401      	movs	r4, #1
 8004254:	2200      	movs	r2, #0
 8004256:	60b3      	str	r3, [r6, #8]
 8004258:	f888 4035 	strb.w	r4, [r8, #53]	; 0x35
 800425c:	f888 2034 	strb.w	r2, [r8, #52]	; 0x34
 8004260:	2900      	cmp	r1, #0
 8004262:	d0a7      	beq.n	80041b4 <HAL_DMA_IRQHandler+0xec>
 8004264:	4640      	mov	r0, r8
 8004266:	b002      	add	sp, #8
 8004268:	e8bd 41f0 	ldmia.w	sp!, {r4, r5, r6, r7, r8, lr}
 800426c:	4708      	bx	r1
 800426e:	f413 7380 	ands.w	r3, r3, #256	; 0x100
 8004272:	f47f af6f 	bne.w	8004154 <HAL_DMA_IRQHandler+0x8c>
 8004276:	680a      	ldr	r2, [r1, #0]
 8004278:	2401      	movs	r4, #1
 800427a:	f022 0210 	bic.w	r2, r2, #16
 800427e:	600a      	str	r2, [r1, #0]
 8004280:	f888 3034 	strb.w	r3, [r8, #52]	; 0x34
 8004284:	f888 4035 	strb.w	r4, [r8, #53]	; 0x35
 8004288:	e764      	b.n	8004154 <HAL_DMA_IRQHandler+0x8c>
 800428a:	f8d8 3044 	ldr.w	r3, [r8, #68]	; 0x44
 800428e:	2b00      	cmp	r3, #0
 8004290:	f47f af63 	bne.w	800415a <HAL_DMA_IRQHandler+0x92>
 8004294:	e763      	b.n	800415e <HAL_DMA_IRQHandler+0x96>
 8004296:	f8d8 2048 	ldr.w	r2, [r8, #72]	; 0x48
 800429a:	2a00      	cmp	r2, #0
 800429c:	d1d0      	bne.n	8004240 <HAL_DMA_IRQHandler+0x178>
 800429e:	e7d3      	b.n	8004248 <HAL_DMA_IRQHandler+0x180>
 80042a0:	2000001c 	.word	0x2000001c
 80042a4:	1b4e81b5 	.word	0x1b4e81b5

080042a8 <HAL_GPIO_Init>:
 80042a8:	e92d 4ff0 	stmdb	sp!, {r4, r5, r6, r7, r8, r9, sl, fp, lr}
 80042ac:	468b      	mov	fp, r1
 80042ae:	f8df c1cc 	ldr.w	ip, [pc, #460]	; 800447c <HAL_GPIO_Init+0x1d4>
 80042b2:	6809      	ldr	r1, [r1, #0]
 80042b4:	b085      	sub	sp, #20
 80042b6:	2300      	movs	r3, #0
 80042b8:	f04f 0a01 	mov.w	sl, #1
 80042bc:	46d9      	mov	r9, fp
 80042be:	e002      	b.n	80042c6 <HAL_GPIO_Init+0x1e>
 80042c0:	3301      	adds	r3, #1
 80042c2:	2b10      	cmp	r3, #16
 80042c4:	d079      	beq.n	80043ba <HAL_GPIO_Init+0x112>
 80042c6:	fa0a f203 	lsl.w	r2, sl, r3
 80042ca:	ea02 0b01 	and.w	fp, r2, r1
 80042ce:	438a      	bics	r2, r1
 80042d0:	d1f6      	bne.n	80042c0 <HAL_GPIO_Init+0x18>
 80042d2:	f8d9 5004 	ldr.w	r5, [r9, #4]
 80042d6:	f005 0203 	and.w	r2, r5, #3
 80042da:	1e54      	subs	r4, r2, #1
 80042dc:	2c01      	cmp	r4, #1
 80042de:	ea4f 0743 	mov.w	r7, r3, lsl #1
 80042e2:	d96d      	bls.n	80043c0 <HAL_GPIO_Init+0x118>
 80042e4:	2a03      	cmp	r2, #3
 80042e6:	f040 80ab 	bne.w	8004440 <HAL_GPIO_Init+0x198>
 80042ea:	40ba      	lsls	r2, r7
 80042ec:	43d4      	mvns	r4, r2
 80042ee:	9400      	str	r4, [sp, #0]
 80042f0:	6807      	ldr	r7, [r0, #0]
 80042f2:	9c00      	ldr	r4, [sp, #0]
 80042f4:	403c      	ands	r4, r7
 80042f6:	4322      	orrs	r2, r4
 80042f8:	f415 3f40 	tst.w	r5, #196608	; 0x30000
 80042fc:	6002      	str	r2, [r0, #0]
 80042fe:	d0df      	beq.n	80042c0 <HAL_GPIO_Init+0x18>
 8004300:	4c59      	ldr	r4, [pc, #356]	; (8004468 <HAL_GPIO_Init+0x1c0>)
 8004302:	2200      	movs	r2, #0
 8004304:	9203      	str	r2, [sp, #12]
 8004306:	6c62      	ldr	r2, [r4, #68]	; 0x44
 8004308:	f442 4280 	orr.w	r2, r2, #16384	; 0x4000
 800430c:	6462      	str	r2, [r4, #68]	; 0x44
 800430e:	6c62      	ldr	r2, [r4, #68]	; 0x44
 8004310:	f023 0603 	bic.w	r6, r3, #3
 8004314:	f106 4680 	add.w	r6, r6, #1073741824	; 0x40000000
 8004318:	f402 4280 	and.w	r2, r2, #16384	; 0x4000
 800431c:	f506 369c 	add.w	r6, r6, #79872	; 0x13800
 8004320:	9203      	str	r2, [sp, #12]
 8004322:	f003 0403 	and.w	r4, r3, #3
 8004326:	9a03      	ldr	r2, [sp, #12]
 8004328:	68b7      	ldr	r7, [r6, #8]
 800432a:	00a4      	lsls	r4, r4, #2
 800432c:	220f      	movs	r2, #15
 800432e:	40a2      	lsls	r2, r4
 8004330:	ea27 0202 	bic.w	r2, r7, r2
 8004334:	4f4d      	ldr	r7, [pc, #308]	; (800446c <HAL_GPIO_Init+0x1c4>)
 8004336:	42b8      	cmp	r0, r7
 8004338:	d014      	beq.n	8004364 <HAL_GPIO_Init+0xbc>
 800433a:	f507 6780 	add.w	r7, r7, #1024	; 0x400
 800433e:	42b8      	cmp	r0, r7
 8004340:	f000 8083 	beq.w	800444a <HAL_GPIO_Init+0x1a2>
 8004344:	4f4a      	ldr	r7, [pc, #296]	; (8004470 <HAL_GPIO_Init+0x1c8>)
 8004346:	42b8      	cmp	r0, r7
 8004348:	f000 8083 	beq.w	8004452 <HAL_GPIO_Init+0x1aa>
 800434c:	4f49      	ldr	r7, [pc, #292]	; (8004474 <HAL_GPIO_Init+0x1cc>)
 800434e:	42b8      	cmp	r0, r7
 8004350:	f000 8084 	beq.w	800445c <HAL_GPIO_Init+0x1b4>
 8004354:	4f48      	ldr	r7, [pc, #288]	; (8004478 <HAL_GPIO_Init+0x1d0>)
 8004356:	42b8      	cmp	r0, r7
 8004358:	bf0c      	ite	eq
 800435a:	2704      	moveq	r7, #4
 800435c:	2707      	movne	r7, #7
 800435e:	fa07 f404 	lsl.w	r4, r7, r4
 8004362:	4322      	orrs	r2, r4
 8004364:	60b2      	str	r2, [r6, #8]
 8004366:	f8dc 2000 	ldr.w	r2, [ip]
 800436a:	ea6f 060b 	mvn.w	r6, fp
 800436e:	03ec      	lsls	r4, r5, #15
 8004370:	bf54      	ite	pl
 8004372:	4032      	andpl	r2, r6
 8004374:	ea4b 0202 	orrmi.w	r2, fp, r2
 8004378:	f8cc 2000 	str.w	r2, [ip]
 800437c:	f8dc 4004 	ldr.w	r4, [ip, #4]
 8004380:	03aa      	lsls	r2, r5, #14
 8004382:	bf54      	ite	pl
 8004384:	4034      	andpl	r4, r6
 8004386:	ea4b 0404 	orrmi.w	r4, fp, r4
 800438a:	f8cc 4004 	str.w	r4, [ip, #4]
 800438e:	f8dc 4008 	ldr.w	r4, [ip, #8]
 8004392:	02ef      	lsls	r7, r5, #11
 8004394:	bf54      	ite	pl
 8004396:	4034      	andpl	r4, r6
 8004398:	ea4b 0404 	orrmi.w	r4, fp, r4
 800439c:	f8cc 4008 	str.w	r4, [ip, #8]
 80043a0:	f8dc 200c 	ldr.w	r2, [ip, #12]
 80043a4:	02ac      	lsls	r4, r5, #10
 80043a6:	f103 0301 	add.w	r3, r3, #1
 80043aa:	bf54      	ite	pl
 80043ac:	4032      	andpl	r2, r6
 80043ae:	ea4b 0202 	orrmi.w	r2, fp, r2
 80043b2:	2b10      	cmp	r3, #16
 80043b4:	f8cc 200c 	str.w	r2, [ip, #12]
 80043b8:	d185      	bne.n	80042c6 <HAL_GPIO_Init+0x1e>
 80043ba:	b005      	add	sp, #20
 80043bc:	e8bd 8ff0 	ldmia.w	sp!, {r4, r5, r6, r7, r8, r9, sl, fp, pc}
 80043c0:	6886      	ldr	r6, [r0, #8]
 80043c2:	2403      	movs	r4, #3
 80043c4:	40bc      	lsls	r4, r7
 80043c6:	ea26 0e04 	bic.w	lr, r6, r4
 80043ca:	f8d9 600c 	ldr.w	r6, [r9, #12]
 80043ce:	40be      	lsls	r6, r7
 80043d0:	ea46 060e 	orr.w	r6, r6, lr
 80043d4:	6086      	str	r6, [r0, #8]
 80043d6:	f8d0 e004 	ldr.w	lr, [r0, #4]
 80043da:	f3c5 1600 	ubfx	r6, r5, #4, #1
 80043de:	ea2e 0e0b 	bic.w	lr, lr, fp
 80043e2:	409e      	lsls	r6, r3
 80043e4:	ea46 060e 	orr.w	r6, r6, lr
 80043e8:	43e4      	mvns	r4, r4
 80043ea:	9400      	str	r4, [sp, #0]
 80043ec:	6046      	str	r6, [r0, #4]
 80043ee:	68c6      	ldr	r6, [r0, #12]
 80043f0:	ea06 0e04 	and.w	lr, r6, r4
 80043f4:	f8d9 6008 	ldr.w	r6, [r9, #8]
 80043f8:	40be      	lsls	r6, r7
 80043fa:	ea46 060e 	orr.w	r6, r6, lr
 80043fe:	2a02      	cmp	r2, #2
 8004400:	60c6      	str	r6, [r0, #12]
 8004402:	d001      	beq.n	8004408 <HAL_GPIO_Init+0x160>
 8004404:	40ba      	lsls	r2, r7
 8004406:	e773      	b.n	80042f0 <HAL_GPIO_Init+0x48>
 8004408:	ea4f 08d3 	mov.w	r8, r3, lsr #3
 800440c:	eb00 0888 	add.w	r8, r0, r8, lsl #2
 8004410:	f003 0e07 	and.w	lr, r3, #7
 8004414:	f8d8 4020 	ldr.w	r4, [r8, #32]
 8004418:	9401      	str	r4, [sp, #4]
 800441a:	ea4f 0e8e 	mov.w	lr, lr, lsl #2
 800441e:	240f      	movs	r4, #15
 8004420:	fa04 f60e 	lsl.w	r6, r4, lr
 8004424:	9c01      	ldr	r4, [sp, #4]
 8004426:	ea24 0606 	bic.w	r6, r4, r6
 800442a:	f8d9 4010 	ldr.w	r4, [r9, #16]
 800442e:	9601      	str	r6, [sp, #4]
 8004430:	fa04 f60e 	lsl.w	r6, r4, lr
 8004434:	9c01      	ldr	r4, [sp, #4]
 8004436:	4326      	orrs	r6, r4
 8004438:	40ba      	lsls	r2, r7
 800443a:	f8c8 6020 	str.w	r6, [r8, #32]
 800443e:	e757      	b.n	80042f0 <HAL_GPIO_Init+0x48>
 8004440:	2403      	movs	r4, #3
 8004442:	40bc      	lsls	r4, r7
 8004444:	43e4      	mvns	r4, r4
 8004446:	9400      	str	r4, [sp, #0]
 8004448:	e7d1      	b.n	80043ee <HAL_GPIO_Init+0x146>
 800444a:	fa0a f404 	lsl.w	r4, sl, r4
 800444e:	4322      	orrs	r2, r4
 8004450:	e788      	b.n	8004364 <HAL_GPIO_Init+0xbc>
 8004452:	2702      	movs	r7, #2
 8004454:	fa07 f404 	lsl.w	r4, r7, r4
 8004458:	4322      	orrs	r2, r4
 800445a:	e783      	b.n	8004364 <HAL_GPIO_Init+0xbc>
 800445c:	2703      	movs	r7, #3
 800445e:	fa07 f404 	lsl.w	r4, r7, r4
 8004462:	4322      	orrs	r2, r4
 8004464:	e77e      	b.n	8004364 <HAL_GPIO_Init+0xbc>
 8004466:	bf00      	nop
 8004468:	40023800 	.word	0x40023800
 800446c:	40020000 	.word	0x40020000
 8004470:	40020800 	.word	0x40020800
 8004474:	40020c00 	.word	0x40020c00
 8004478:	40021000 	.word	0x40021000
 800447c:	40013c00 	.word	0x40013c00

08004480 <HAL_GPIO_ReadPin>:
 8004480:	6903      	ldr	r3, [r0, #16]
 8004482:	4219      	tst	r1, r3
 8004484:	bf14      	ite	ne
 8004486:	2001      	movne	r0, #1
 8004488:	2000      	moveq	r0, #0
 800448a:	4770      	bx	lr

0800448c <HAL_GPIO_WritePin>:
 800448c:	b902      	cbnz	r2, 8004490 <HAL_GPIO_WritePin+0x4>
 800448e:	0409      	lsls	r1, r1, #16
 8004490:	6181      	str	r1, [r0, #24]
 8004492:	4770      	bx	lr

08004494 <HAL_I2S_Init>:
 8004494:	2800      	cmp	r0, #0
 8004496:	f000 8089 	beq.w	80045ac <HAL_I2S_Init+0x118>
 800449a:	b5f8      	push	{r3, r4, r5, r6, r7, lr}
 800449c:	f890 3041 	ldrb.w	r3, [r0, #65]	; 0x41
 80044a0:	4604      	mov	r4, r0
 80044a2:	f003 02ff 	and.w	r2, r3, #255	; 0xff
 80044a6:	2b00      	cmp	r3, #0
 80044a8:	d075      	beq.n	8004596 <HAL_I2S_Init+0x102>
 80044aa:	6821      	ldr	r1, [r4, #0]
 80044ac:	6963      	ldr	r3, [r4, #20]
 80044ae:	2202      	movs	r2, #2
 80044b0:	f884 2041 	strb.w	r2, [r4, #65]	; 0x41
 80044b4:	69c8      	ldr	r0, [r1, #28]
 80044b6:	f420 607b 	bic.w	r0, r0, #4016	; 0xfb0
 80044ba:	f020 000f 	bic.w	r0, r0, #15
 80044be:	4293      	cmp	r3, r2
 80044c0:	61c8      	str	r0, [r1, #28]
 80044c2:	620a      	str	r2, [r1, #32]
 80044c4:	d065      	beq.n	8004592 <HAL_I2S_Init+0xfe>
 80044c6:	e9d4 2302 	ldrd	r2, r3, [r4, #8]
 80044ca:	2b00      	cmp	r3, #0
 80044cc:	bf0b      	itete	eq
 80044ce:	2320      	moveq	r3, #32
 80044d0:	2340      	movne	r3, #64	; 0x40
 80044d2:	2510      	moveq	r5, #16
 80044d4:	2520      	movne	r5, #32
 80044d6:	2001      	movs	r0, #1
 80044d8:	2a20      	cmp	r2, #32
 80044da:	bf98      	it	ls
 80044dc:	461d      	movls	r5, r3
 80044de:	f001 faeb 	bl	8005ab8 <HAL_RCCEx_GetPeriphCLKFreq>
 80044e2:	6922      	ldr	r2, [r4, #16]
 80044e4:	f5b2 7f00 	cmp.w	r2, #512	; 0x200
 80044e8:	d05c      	beq.n	80045a4 <HAL_I2S_Init+0x110>
 80044ea:	fbb0 f0f5 	udiv	r0, r0, r5
 80044ee:	4931      	ldr	r1, [pc, #196]	; (80045b4 <HAL_I2S_Init+0x120>)
 80044f0:	eb00 0080 	add.w	r0, r0, r0, lsl #2
 80044f4:	0043      	lsls	r3, r0, #1
 80044f6:	6960      	ldr	r0, [r4, #20]
 80044f8:	fbb3 f3f0 	udiv	r3, r3, r0
 80044fc:	3305      	adds	r3, #5
 80044fe:	fba1 1303 	umull	r1, r3, r1, r3
 8004502:	0919      	lsrs	r1, r3, #4
 8004504:	1e88      	subs	r0, r1, #2
 8004506:	28fd      	cmp	r0, #253	; 0xfd
 8004508:	f3c3 03c0 	ubfx	r3, r3, #3, #1
 800450c:	d905      	bls.n	800451a <HAL_I2S_Init+0x86>
 800450e:	6c63      	ldr	r3, [r4, #68]	; 0x44
 8004510:	f043 0310 	orr.w	r3, r3, #16
 8004514:	6463      	str	r3, [r4, #68]	; 0x44
 8004516:	2001      	movs	r0, #1
 8004518:	bdf8      	pop	{r3, r4, r5, r6, r7, pc}
 800451a:	ea41 2303 	orr.w	r3, r1, r3, lsl #8
 800451e:	6821      	ldr	r1, [r4, #0]
 8004520:	68e6      	ldr	r6, [r4, #12]
 8004522:	69a5      	ldr	r5, [r4, #24]
 8004524:	4f24      	ldr	r7, [pc, #144]	; (80045b8 <HAL_I2S_Init+0x124>)
 8004526:	4313      	orrs	r3, r2
 8004528:	e9d4 c001 	ldrd	ip, r0, [r4, #4]
 800452c:	620b      	str	r3, [r1, #32]
 800452e:	69cb      	ldr	r3, [r1, #28]
 8004530:	ea4c 0200 	orr.w	r2, ip, r0
 8004534:	403b      	ands	r3, r7
 8004536:	4313      	orrs	r3, r2
 8004538:	4333      	orrs	r3, r6
 800453a:	6a22      	ldr	r2, [r4, #32]
 800453c:	432b      	orrs	r3, r5
 800453e:	f443 6300 	orr.w	r3, r3, #2048	; 0x800
 8004542:	2a01      	cmp	r2, #1
 8004544:	61cb      	str	r3, [r1, #28]
 8004546:	d11e      	bne.n	8004586 <HAL_I2S_Init+0xf2>
 8004548:	4a1c      	ldr	r2, [pc, #112]	; (80045bc <HAL_I2S_Init+0x128>)
 800454a:	4b1d      	ldr	r3, [pc, #116]	; (80045c0 <HAL_I2S_Init+0x12c>)
 800454c:	4291      	cmp	r1, r2
 800454e:	bf0c      	ite	eq
 8004550:	4619      	moveq	r1, r3
 8004552:	f04f 2140 	movne.w	r1, #1073758208	; 0x40004000
 8004556:	4a1b      	ldr	r2, [pc, #108]	; (80045c4 <HAL_I2S_Init+0x130>)
 8004558:	69cb      	ldr	r3, [r1, #28]
 800455a:	6362      	str	r2, [r4, #52]	; 0x34
 800455c:	401f      	ands	r7, r3
 800455e:	f43c 7200 	bics.w	r2, ip, #512	; 0x200
 8004562:	f04f 0202 	mov.w	r2, #2
 8004566:	61cf      	str	r7, [r1, #28]
 8004568:	ea40 0006 	orr.w	r0, r0, r6
 800456c:	620a      	str	r2, [r1, #32]
 800456e:	bf0c      	ite	eq
 8004570:	f44f 7380 	moveq.w	r3, #256	; 0x100
 8004574:	2300      	movne	r3, #0
 8004576:	69ca      	ldr	r2, [r1, #28]
 8004578:	4303      	orrs	r3, r0
 800457a:	432b      	orrs	r3, r5
 800457c:	4313      	orrs	r3, r2
 800457e:	b29b      	uxth	r3, r3
 8004580:	f443 6300 	orr.w	r3, r3, #2048	; 0x800
 8004584:	61cb      	str	r3, [r1, #28]
 8004586:	2000      	movs	r0, #0
 8004588:	2301      	movs	r3, #1
 800458a:	6460      	str	r0, [r4, #68]	; 0x44
 800458c:	f884 3041 	strb.w	r3, [r4, #65]	; 0x41
 8004590:	bdf8      	pop	{r3, r4, r5, r6, r7, pc}
 8004592:	6922      	ldr	r2, [r4, #16]
 8004594:	e7c4      	b.n	8004520 <HAL_I2S_Init+0x8c>
 8004596:	4b0c      	ldr	r3, [pc, #48]	; (80045c8 <HAL_I2S_Init+0x134>)
 8004598:	f880 2040 	strb.w	r2, [r0, #64]	; 0x40
 800459c:	6343      	str	r3, [r0, #52]	; 0x34
 800459e:	f7ff f9d1 	bl	8003944 <HAL_I2S_MspInit>
 80045a2:	e782      	b.n	80044aa <HAL_I2S_Init+0x16>
 80045a4:	68e3      	ldr	r3, [r4, #12]
 80045a6:	b11b      	cbz	r3, 80045b0 <HAL_I2S_Init+0x11c>
 80045a8:	00ad      	lsls	r5, r5, #2
 80045aa:	e79e      	b.n	80044ea <HAL_I2S_Init+0x56>
 80045ac:	2001      	movs	r0, #1
 80045ae:	4770      	bx	lr
 80045b0:	00ed      	lsls	r5, r5, #3
 80045b2:	e79a      	b.n	80044ea <HAL_I2S_Init+0x56>
 80045b4:	cccccccd 	.word	0xcccccccd
 80045b8:	fffff040 	.word	0xfffff040
 80045bc:	40003800 	.word	0x40003800
 80045c0:	40003400 	.word	0x40003400
 80045c4:	080046dd 	.word	0x080046dd
 80045c8:	080045d1 	.word	0x080045d1

080045cc <HAL_I2S_RxCpltCallback>:
 80045cc:	4770      	bx	lr
 80045ce:	bf00      	nop

080045d0 <I2S_IRQHandler>:
 80045d0:	b510      	push	{r4, lr}
 80045d2:	6803      	ldr	r3, [r0, #0]
 80045d4:	b084      	sub	sp, #16
 80045d6:	689a      	ldr	r2, [r3, #8]
 80045d8:	9201      	str	r2, [sp, #4]
 80045da:	f890 2041 	ldrb.w	r2, [r0, #65]	; 0x41
 80045de:	2a04      	cmp	r2, #4
 80045e0:	4604      	mov	r4, r0
 80045e2:	d005      	beq.n	80045f0 <I2S_IRQHandler+0x20>
 80045e4:	f894 3041 	ldrb.w	r3, [r4, #65]	; 0x41
 80045e8:	2b03      	cmp	r3, #3
 80045ea:	d031      	beq.n	8004650 <I2S_IRQHandler+0x80>
 80045ec:	b004      	add	sp, #16
 80045ee:	bd10      	pop	{r4, pc}
 80045f0:	9a01      	ldr	r2, [sp, #4]
 80045f2:	07d1      	lsls	r1, r2, #31
 80045f4:	d50f      	bpl.n	8004616 <I2S_IRQHandler+0x46>
 80045f6:	685a      	ldr	r2, [r3, #4]
 80045f8:	0652      	lsls	r2, r2, #25
 80045fa:	d50c      	bpl.n	8004616 <I2S_IRQHandler+0x46>
 80045fc:	6ac1      	ldr	r1, [r0, #44]	; 0x2c
 80045fe:	68da      	ldr	r2, [r3, #12]
 8004600:	f821 2b02 	strh.w	r2, [r1], #2
 8004604:	8e42      	ldrh	r2, [r0, #50]	; 0x32
 8004606:	62c1      	str	r1, [r0, #44]	; 0x2c
 8004608:	3a01      	subs	r2, #1
 800460a:	b292      	uxth	r2, r2
 800460c:	8642      	strh	r2, [r0, #50]	; 0x32
 800460e:	8e42      	ldrh	r2, [r0, #50]	; 0x32
 8004610:	b292      	uxth	r2, r2
 8004612:	2a00      	cmp	r2, #0
 8004614:	d04a      	beq.n	80046ac <I2S_IRQHandler+0xdc>
 8004616:	9b01      	ldr	r3, [sp, #4]
 8004618:	0659      	lsls	r1, r3, #25
 800461a:	d5e3      	bpl.n	80045e4 <I2S_IRQHandler+0x14>
 800461c:	6823      	ldr	r3, [r4, #0]
 800461e:	685a      	ldr	r2, [r3, #4]
 8004620:	0692      	lsls	r2, r2, #26
 8004622:	d5df      	bpl.n	80045e4 <I2S_IRQHandler+0x14>
 8004624:	685a      	ldr	r2, [r3, #4]
 8004626:	2100      	movs	r1, #0
 8004628:	f022 0260 	bic.w	r2, r2, #96	; 0x60
 800462c:	605a      	str	r2, [r3, #4]
 800462e:	9102      	str	r1, [sp, #8]
 8004630:	68da      	ldr	r2, [r3, #12]
 8004632:	9202      	str	r2, [sp, #8]
 8004634:	689b      	ldr	r3, [r3, #8]
 8004636:	9302      	str	r3, [sp, #8]
 8004638:	2301      	movs	r3, #1
 800463a:	9a02      	ldr	r2, [sp, #8]
 800463c:	f884 3041 	strb.w	r3, [r4, #65]	; 0x41
 8004640:	6c63      	ldr	r3, [r4, #68]	; 0x44
 8004642:	f043 0302 	orr.w	r3, r3, #2
 8004646:	6463      	str	r3, [r4, #68]	; 0x44
 8004648:	4620      	mov	r0, r4
 800464a:	f7fd fa91 	bl	8001b70 <HAL_I2S_ErrorCallback>
 800464e:	e7c9      	b.n	80045e4 <I2S_IRQHandler+0x14>
 8004650:	9b01      	ldr	r3, [sp, #4]
 8004652:	079b      	lsls	r3, r3, #30
 8004654:	d50f      	bpl.n	8004676 <I2S_IRQHandler+0xa6>
 8004656:	6823      	ldr	r3, [r4, #0]
 8004658:	685a      	ldr	r2, [r3, #4]
 800465a:	0610      	lsls	r0, r2, #24
 800465c:	d50b      	bpl.n	8004676 <I2S_IRQHandler+0xa6>
 800465e:	6a61      	ldr	r1, [r4, #36]	; 0x24
 8004660:	f831 2b02 	ldrh.w	r2, [r1], #2
 8004664:	60da      	str	r2, [r3, #12]
 8004666:	8d62      	ldrh	r2, [r4, #42]	; 0x2a
 8004668:	6261      	str	r1, [r4, #36]	; 0x24
 800466a:	3a01      	subs	r2, #1
 800466c:	b292      	uxth	r2, r2
 800466e:	8562      	strh	r2, [r4, #42]	; 0x2a
 8004670:	8d62      	ldrh	r2, [r4, #42]	; 0x2a
 8004672:	b292      	uxth	r2, r2
 8004674:	b322      	cbz	r2, 80046c0 <I2S_IRQHandler+0xf0>
 8004676:	9b01      	ldr	r3, [sp, #4]
 8004678:	0719      	lsls	r1, r3, #28
 800467a:	d5b7      	bpl.n	80045ec <I2S_IRQHandler+0x1c>
 800467c:	6823      	ldr	r3, [r4, #0]
 800467e:	685a      	ldr	r2, [r3, #4]
 8004680:	0692      	lsls	r2, r2, #26
 8004682:	d5b3      	bpl.n	80045ec <I2S_IRQHandler+0x1c>
 8004684:	685a      	ldr	r2, [r3, #4]
 8004686:	2100      	movs	r1, #0
 8004688:	f022 02a0 	bic.w	r2, r2, #160	; 0xa0
 800468c:	605a      	str	r2, [r3, #4]
 800468e:	9103      	str	r1, [sp, #12]
 8004690:	689b      	ldr	r3, [r3, #8]
 8004692:	9303      	str	r3, [sp, #12]
 8004694:	2301      	movs	r3, #1
 8004696:	9a03      	ldr	r2, [sp, #12]
 8004698:	f884 3041 	strb.w	r3, [r4, #65]	; 0x41
 800469c:	6c63      	ldr	r3, [r4, #68]	; 0x44
 800469e:	f043 0304 	orr.w	r3, r3, #4
 80046a2:	6463      	str	r3, [r4, #68]	; 0x44
 80046a4:	4620      	mov	r0, r4
 80046a6:	f7fd fa63 	bl	8001b70 <HAL_I2S_ErrorCallback>
 80046aa:	e79f      	b.n	80045ec <I2S_IRQHandler+0x1c>
 80046ac:	685a      	ldr	r2, [r3, #4]
 80046ae:	2101      	movs	r1, #1
 80046b0:	f022 0260 	bic.w	r2, r2, #96	; 0x60
 80046b4:	605a      	str	r2, [r3, #4]
 80046b6:	f880 1041 	strb.w	r1, [r0, #65]	; 0x41
 80046ba:	f7ff ff87 	bl	80045cc <HAL_I2S_RxCpltCallback>
 80046be:	e7aa      	b.n	8004616 <I2S_IRQHandler+0x46>
 80046c0:	685a      	ldr	r2, [r3, #4]
 80046c2:	2101      	movs	r1, #1
 80046c4:	f022 02a0 	bic.w	r2, r2, #160	; 0xa0
 80046c8:	605a      	str	r2, [r3, #4]
 80046ca:	4620      	mov	r0, r4
 80046cc:	f884 1041 	strb.w	r1, [r4, #65]	; 0x41
 80046d0:	f7fd f98e 	bl	80019f0 <HAL_I2S_TxCpltCallback>
 80046d4:	e7cf      	b.n	8004676 <I2S_IRQHandler+0xa6>
 80046d6:	bf00      	nop

080046d8 <HAL_I2SEx_TxRxCpltCallback>:
 80046d8:	4770      	bx	lr
 80046da:	bf00      	nop

080046dc <HAL_I2SEx_FullDuplex_IRQHandler>:
 80046dc:	b530      	push	{r4, r5, lr}
 80046de:	4a92      	ldr	r2, [pc, #584]	; (8004928 <HAL_I2SEx_FullDuplex_IRQHandler+0x24c>)
 80046e0:	6805      	ldr	r5, [r0, #0]
 80046e2:	4b92      	ldr	r3, [pc, #584]	; (800492c <HAL_I2SEx_FullDuplex_IRQHandler+0x250>)
 80046e4:	68a9      	ldr	r1, [r5, #8]
 80046e6:	b087      	sub	sp, #28
 80046e8:	4295      	cmp	r5, r2
 80046ea:	bf18      	it	ne
 80046ec:	f04f 2340 	movne.w	r3, #1073758208	; 0x40004000
 80046f0:	9100      	str	r1, [sp, #0]
 80046f2:	6899      	ldr	r1, [r3, #8]
 80046f4:	9101      	str	r1, [sp, #4]
 80046f6:	6869      	ldr	r1, [r5, #4]
 80046f8:	6842      	ldr	r2, [r0, #4]
 80046fa:	9102      	str	r1, [sp, #8]
 80046fc:	6859      	ldr	r1, [r3, #4]
 80046fe:	9103      	str	r1, [sp, #12]
 8004700:	f432 7200 	bics.w	r2, r2, #512	; 0x200
 8004704:	4604      	mov	r4, r0
 8004706:	d075      	beq.n	80047f4 <HAL_I2SEx_FullDuplex_IRQHandler+0x118>
 8004708:	9a01      	ldr	r2, [sp, #4]
 800470a:	0791      	lsls	r1, r2, #30
 800470c:	d51a      	bpl.n	8004744 <HAL_I2SEx_FullDuplex_IRQHandler+0x68>
 800470e:	9a03      	ldr	r2, [sp, #12]
 8004710:	0612      	lsls	r2, r2, #24
 8004712:	d517      	bpl.n	8004744 <HAL_I2SEx_FullDuplex_IRQHandler+0x68>
 8004714:	6a42      	ldr	r2, [r0, #36]	; 0x24
 8004716:	1c91      	adds	r1, r2, #2
 8004718:	8812      	ldrh	r2, [r2, #0]
 800471a:	6241      	str	r1, [r0, #36]	; 0x24
 800471c:	60da      	str	r2, [r3, #12]
 800471e:	8d42      	ldrh	r2, [r0, #42]	; 0x2a
 8004720:	3a01      	subs	r2, #1
 8004722:	b292      	uxth	r2, r2
 8004724:	8542      	strh	r2, [r0, #42]	; 0x2a
 8004726:	8d42      	ldrh	r2, [r0, #42]	; 0x2a
 8004728:	b292      	uxth	r2, r2
 800472a:	b95a      	cbnz	r2, 8004744 <HAL_I2SEx_FullDuplex_IRQHandler+0x68>
 800472c:	685a      	ldr	r2, [r3, #4]
 800472e:	f022 02a0 	bic.w	r2, r2, #160	; 0xa0
 8004732:	605a      	str	r2, [r3, #4]
 8004734:	8e43      	ldrh	r3, [r0, #50]	; 0x32
 8004736:	b29b      	uxth	r3, r3
 8004738:	b923      	cbnz	r3, 8004744 <HAL_I2SEx_FullDuplex_IRQHandler+0x68>
 800473a:	2301      	movs	r3, #1
 800473c:	f880 3041 	strb.w	r3, [r0, #65]	; 0x41
 8004740:	f7ff ffca 	bl	80046d8 <HAL_I2SEx_TxRxCpltCallback>
 8004744:	9b00      	ldr	r3, [sp, #0]
 8004746:	07db      	lsls	r3, r3, #31
 8004748:	d51c      	bpl.n	8004784 <HAL_I2SEx_FullDuplex_IRQHandler+0xa8>
 800474a:	9b02      	ldr	r3, [sp, #8]
 800474c:	065d      	lsls	r5, r3, #25
 800474e:	d519      	bpl.n	8004784 <HAL_I2SEx_FullDuplex_IRQHandler+0xa8>
 8004750:	6ae3      	ldr	r3, [r4, #44]	; 0x2c
 8004752:	6822      	ldr	r2, [r4, #0]
 8004754:	1c98      	adds	r0, r3, #2
 8004756:	68d1      	ldr	r1, [r2, #12]
 8004758:	62e0      	str	r0, [r4, #44]	; 0x2c
 800475a:	8019      	strh	r1, [r3, #0]
 800475c:	8e63      	ldrh	r3, [r4, #50]	; 0x32
 800475e:	3b01      	subs	r3, #1
 8004760:	b29b      	uxth	r3, r3
 8004762:	8663      	strh	r3, [r4, #50]	; 0x32
 8004764:	8e63      	ldrh	r3, [r4, #50]	; 0x32
 8004766:	b29b      	uxth	r3, r3
 8004768:	b963      	cbnz	r3, 8004784 <HAL_I2SEx_FullDuplex_IRQHandler+0xa8>
 800476a:	6853      	ldr	r3, [r2, #4]
 800476c:	f023 0360 	bic.w	r3, r3, #96	; 0x60
 8004770:	6053      	str	r3, [r2, #4]
 8004772:	8d63      	ldrh	r3, [r4, #42]	; 0x2a
 8004774:	b29b      	uxth	r3, r3
 8004776:	b92b      	cbnz	r3, 8004784 <HAL_I2SEx_FullDuplex_IRQHandler+0xa8>
 8004778:	2301      	movs	r3, #1
 800477a:	f884 3041 	strb.w	r3, [r4, #65]	; 0x41
 800477e:	4620      	mov	r0, r4
 8004780:	f7ff ffaa 	bl	80046d8 <HAL_I2SEx_TxRxCpltCallback>
 8004784:	9b00      	ldr	r3, [sp, #0]
 8004786:	0658      	lsls	r0, r3, #25
 8004788:	d51b      	bpl.n	80047c2 <HAL_I2SEx_FullDuplex_IRQHandler+0xe6>
 800478a:	9b02      	ldr	r3, [sp, #8]
 800478c:	0699      	lsls	r1, r3, #26
 800478e:	d518      	bpl.n	80047c2 <HAL_I2SEx_FullDuplex_IRQHandler+0xe6>
 8004790:	6822      	ldr	r2, [r4, #0]
 8004792:	4865      	ldr	r0, [pc, #404]	; (8004928 <HAL_I2SEx_FullDuplex_IRQHandler+0x24c>)
 8004794:	6851      	ldr	r1, [r2, #4]
 8004796:	4b65      	ldr	r3, [pc, #404]	; (800492c <HAL_I2SEx_FullDuplex_IRQHandler+0x250>)
 8004798:	f021 0160 	bic.w	r1, r1, #96	; 0x60
 800479c:	4282      	cmp	r2, r0
 800479e:	bf18      	it	ne
 80047a0:	f04f 2340 	movne.w	r3, #1073758208	; 0x40004000
 80047a4:	6051      	str	r1, [r2, #4]
 80047a6:	685a      	ldr	r2, [r3, #4]
 80047a8:	2101      	movs	r1, #1
 80047aa:	f022 02a0 	bic.w	r2, r2, #160	; 0xa0
 80047ae:	605a      	str	r2, [r3, #4]
 80047b0:	f884 1041 	strb.w	r1, [r4, #65]	; 0x41
 80047b4:	6c63      	ldr	r3, [r4, #68]	; 0x44
 80047b6:	f043 0302 	orr.w	r3, r3, #2
 80047ba:	6463      	str	r3, [r4, #68]	; 0x44
 80047bc:	4620      	mov	r0, r4
 80047be:	f7fd f9d7 	bl	8001b70 <HAL_I2S_ErrorCallback>
 80047c2:	9b01      	ldr	r3, [sp, #4]
 80047c4:	071a      	lsls	r2, r3, #28
 80047c6:	d56e      	bpl.n	80048a6 <HAL_I2SEx_FullDuplex_IRQHandler+0x1ca>
 80047c8:	9b03      	ldr	r3, [sp, #12]
 80047ca:	069b      	lsls	r3, r3, #26
 80047cc:	d56b      	bpl.n	80048a6 <HAL_I2SEx_FullDuplex_IRQHandler+0x1ca>
 80047ce:	6822      	ldr	r2, [r4, #0]
 80047d0:	4955      	ldr	r1, [pc, #340]	; (8004928 <HAL_I2SEx_FullDuplex_IRQHandler+0x24c>)
 80047d2:	4b56      	ldr	r3, [pc, #344]	; (800492c <HAL_I2SEx_FullDuplex_IRQHandler+0x250>)
 80047d4:	428a      	cmp	r2, r1
 80047d6:	bf18      	it	ne
 80047d8:	f04f 2340 	movne.w	r3, #1073758208	; 0x40004000
 80047dc:	2001      	movs	r0, #1
 80047de:	6859      	ldr	r1, [r3, #4]
 80047e0:	f021 01a0 	bic.w	r1, r1, #160	; 0xa0
 80047e4:	6059      	str	r1, [r3, #4]
 80047e6:	6853      	ldr	r3, [r2, #4]
 80047e8:	f023 0360 	bic.w	r3, r3, #96	; 0x60
 80047ec:	6053      	str	r3, [r2, #4]
 80047ee:	f884 0041 	strb.w	r0, [r4, #65]	; 0x41
 80047f2:	e04e      	b.n	8004892 <HAL_I2SEx_FullDuplex_IRQHandler+0x1b6>
 80047f4:	9b00      	ldr	r3, [sp, #0]
 80047f6:	079a      	lsls	r2, r3, #30
 80047f8:	d502      	bpl.n	8004800 <HAL_I2SEx_FullDuplex_IRQHandler+0x124>
 80047fa:	9b02      	ldr	r3, [sp, #8]
 80047fc:	061b      	lsls	r3, r3, #24
 80047fe:	d454      	bmi.n	80048aa <HAL_I2SEx_FullDuplex_IRQHandler+0x1ce>
 8004800:	9b01      	ldr	r3, [sp, #4]
 8004802:	07d8      	lsls	r0, r3, #31
 8004804:	d502      	bpl.n	800480c <HAL_I2SEx_FullDuplex_IRQHandler+0x130>
 8004806:	9b03      	ldr	r3, [sp, #12]
 8004808:	0659      	lsls	r1, r3, #25
 800480a:	d469      	bmi.n	80048e0 <HAL_I2SEx_FullDuplex_IRQHandler+0x204>
 800480c:	9b01      	ldr	r3, [sp, #4]
 800480e:	065a      	lsls	r2, r3, #25
 8004810:	d522      	bpl.n	8004858 <HAL_I2SEx_FullDuplex_IRQHandler+0x17c>
 8004812:	9b03      	ldr	r3, [sp, #12]
 8004814:	069b      	lsls	r3, r3, #26
 8004816:	d51f      	bpl.n	8004858 <HAL_I2SEx_FullDuplex_IRQHandler+0x17c>
 8004818:	6823      	ldr	r3, [r4, #0]
 800481a:	4943      	ldr	r1, [pc, #268]	; (8004928 <HAL_I2SEx_FullDuplex_IRQHandler+0x24c>)
 800481c:	4a43      	ldr	r2, [pc, #268]	; (800492c <HAL_I2SEx_FullDuplex_IRQHandler+0x250>)
 800481e:	428b      	cmp	r3, r1
 8004820:	bf18      	it	ne
 8004822:	f04f 2240 	movne.w	r2, #1073758208	; 0x40004000
 8004826:	2000      	movs	r0, #0
 8004828:	6851      	ldr	r1, [r2, #4]
 800482a:	f021 0160 	bic.w	r1, r1, #96	; 0x60
 800482e:	6051      	str	r1, [r2, #4]
 8004830:	685a      	ldr	r2, [r3, #4]
 8004832:	f022 02a0 	bic.w	r2, r2, #160	; 0xa0
 8004836:	605a      	str	r2, [r3, #4]
 8004838:	9004      	str	r0, [sp, #16]
 800483a:	68da      	ldr	r2, [r3, #12]
 800483c:	9204      	str	r2, [sp, #16]
 800483e:	689b      	ldr	r3, [r3, #8]
 8004840:	9304      	str	r3, [sp, #16]
 8004842:	2301      	movs	r3, #1
 8004844:	9a04      	ldr	r2, [sp, #16]
 8004846:	f884 3041 	strb.w	r3, [r4, #65]	; 0x41
 800484a:	6c63      	ldr	r3, [r4, #68]	; 0x44
 800484c:	f043 0302 	orr.w	r3, r3, #2
 8004850:	6463      	str	r3, [r4, #68]	; 0x44
 8004852:	4620      	mov	r0, r4
 8004854:	f7fd f98c 	bl	8001b70 <HAL_I2S_ErrorCallback>
 8004858:	9b00      	ldr	r3, [sp, #0]
 800485a:	071d      	lsls	r5, r3, #28
 800485c:	d523      	bpl.n	80048a6 <HAL_I2SEx_FullDuplex_IRQHandler+0x1ca>
 800485e:	9b02      	ldr	r3, [sp, #8]
 8004860:	0698      	lsls	r0, r3, #26
 8004862:	d520      	bpl.n	80048a6 <HAL_I2SEx_FullDuplex_IRQHandler+0x1ca>
 8004864:	6823      	ldr	r3, [r4, #0]
 8004866:	4830      	ldr	r0, [pc, #192]	; (8004928 <HAL_I2SEx_FullDuplex_IRQHandler+0x24c>)
 8004868:	6859      	ldr	r1, [r3, #4]
 800486a:	4a30      	ldr	r2, [pc, #192]	; (800492c <HAL_I2SEx_FullDuplex_IRQHandler+0x250>)
 800486c:	f021 01a0 	bic.w	r1, r1, #160	; 0xa0
 8004870:	4283      	cmp	r3, r0
 8004872:	bf18      	it	ne
 8004874:	f04f 2240 	movne.w	r2, #1073758208	; 0x40004000
 8004878:	6059      	str	r1, [r3, #4]
 800487a:	6851      	ldr	r1, [r2, #4]
 800487c:	2000      	movs	r0, #0
 800487e:	f021 0160 	bic.w	r1, r1, #96	; 0x60
 8004882:	6051      	str	r1, [r2, #4]
 8004884:	9005      	str	r0, [sp, #20]
 8004886:	689b      	ldr	r3, [r3, #8]
 8004888:	9305      	str	r3, [sp, #20]
 800488a:	2301      	movs	r3, #1
 800488c:	9a05      	ldr	r2, [sp, #20]
 800488e:	f884 3041 	strb.w	r3, [r4, #65]	; 0x41
 8004892:	6c63      	ldr	r3, [r4, #68]	; 0x44
 8004894:	4620      	mov	r0, r4
 8004896:	f043 0304 	orr.w	r3, r3, #4
 800489a:	6463      	str	r3, [r4, #68]	; 0x44
 800489c:	b007      	add	sp, #28
 800489e:	e8bd 4030 	ldmia.w	sp!, {r4, r5, lr}
 80048a2:	f7fd b965 	b.w	8001b70 <HAL_I2S_ErrorCallback>
 80048a6:	b007      	add	sp, #28
 80048a8:	bd30      	pop	{r4, r5, pc}
 80048aa:	6a43      	ldr	r3, [r0, #36]	; 0x24
 80048ac:	1c9a      	adds	r2, r3, #2
 80048ae:	881b      	ldrh	r3, [r3, #0]
 80048b0:	6242      	str	r2, [r0, #36]	; 0x24
 80048b2:	60eb      	str	r3, [r5, #12]
 80048b4:	8d43      	ldrh	r3, [r0, #42]	; 0x2a
 80048b6:	3b01      	subs	r3, #1
 80048b8:	b29b      	uxth	r3, r3
 80048ba:	8543      	strh	r3, [r0, #42]	; 0x2a
 80048bc:	8d43      	ldrh	r3, [r0, #42]	; 0x2a
 80048be:	b29b      	uxth	r3, r3
 80048c0:	2b00      	cmp	r3, #0
 80048c2:	d19d      	bne.n	8004800 <HAL_I2SEx_FullDuplex_IRQHandler+0x124>
 80048c4:	686b      	ldr	r3, [r5, #4]
 80048c6:	f023 03a0 	bic.w	r3, r3, #160	; 0xa0
 80048ca:	606b      	str	r3, [r5, #4]
 80048cc:	8e43      	ldrh	r3, [r0, #50]	; 0x32
 80048ce:	b29b      	uxth	r3, r3
 80048d0:	2b00      	cmp	r3, #0
 80048d2:	d195      	bne.n	8004800 <HAL_I2SEx_FullDuplex_IRQHandler+0x124>
 80048d4:	2301      	movs	r3, #1
 80048d6:	f880 3041 	strb.w	r3, [r0, #65]	; 0x41
 80048da:	f7ff fefd 	bl	80046d8 <HAL_I2SEx_TxRxCpltCallback>
 80048de:	e78f      	b.n	8004800 <HAL_I2SEx_FullDuplex_IRQHandler+0x124>
 80048e0:	6820      	ldr	r0, [r4, #0]
 80048e2:	4911      	ldr	r1, [pc, #68]	; (8004928 <HAL_I2SEx_FullDuplex_IRQHandler+0x24c>)
 80048e4:	4a11      	ldr	r2, [pc, #68]	; (800492c <HAL_I2SEx_FullDuplex_IRQHandler+0x250>)
 80048e6:	6ae3      	ldr	r3, [r4, #44]	; 0x2c
 80048e8:	4288      	cmp	r0, r1
 80048ea:	bf18      	it	ne
 80048ec:	f04f 2240 	movne.w	r2, #1073758208	; 0x40004000
 80048f0:	1c98      	adds	r0, r3, #2
 80048f2:	68d1      	ldr	r1, [r2, #12]
 80048f4:	62e0      	str	r0, [r4, #44]	; 0x2c
 80048f6:	8019      	strh	r1, [r3, #0]
 80048f8:	8e63      	ldrh	r3, [r4, #50]	; 0x32
 80048fa:	3b01      	subs	r3, #1
 80048fc:	b29b      	uxth	r3, r3
 80048fe:	8663      	strh	r3, [r4, #50]	; 0x32
 8004900:	8e63      	ldrh	r3, [r4, #50]	; 0x32
 8004902:	b29b      	uxth	r3, r3
 8004904:	2b00      	cmp	r3, #0
 8004906:	d181      	bne.n	800480c <HAL_I2SEx_FullDuplex_IRQHandler+0x130>
 8004908:	6853      	ldr	r3, [r2, #4]
 800490a:	f023 0360 	bic.w	r3, r3, #96	; 0x60
 800490e:	6053      	str	r3, [r2, #4]
 8004910:	8d63      	ldrh	r3, [r4, #42]	; 0x2a
 8004912:	b29b      	uxth	r3, r3
 8004914:	2b00      	cmp	r3, #0
 8004916:	f47f af79 	bne.w	800480c <HAL_I2SEx_FullDuplex_IRQHandler+0x130>
 800491a:	2301      	movs	r3, #1
 800491c:	f884 3041 	strb.w	r3, [r4, #65]	; 0x41
 8004920:	4620      	mov	r0, r4
 8004922:	f7ff fed9 	bl	80046d8 <HAL_I2SEx_TxRxCpltCallback>
 8004926:	e771      	b.n	800480c <HAL_I2SEx_FullDuplex_IRQHandler+0x130>
 8004928:	40003800 	.word	0x40003800
 800492c:	40003400 	.word	0x40003400

08004930 <HAL_PCD_Init>:
 8004930:	b5f0      	push	{r4, r5, r6, r7, lr}
 8004932:	b08b      	sub	sp, #44	; 0x2c
 8004934:	2800      	cmp	r0, #0
 8004936:	f000 8083 	beq.w	8004a40 <HAL_PCD_Init+0x110>
 800493a:	f890 33bd 	ldrb.w	r3, [r0, #957]	; 0x3bd
 800493e:	6804      	ldr	r4, [r0, #0]
 8004940:	4605      	mov	r5, r0
 8004942:	f003 02ff 	and.w	r2, r3, #255	; 0xff
 8004946:	2b00      	cmp	r3, #0
 8004948:	d074      	beq.n	8004a34 <HAL_PCD_Init+0x104>
 800494a:	4620      	mov	r0, r4
 800494c:	2303      	movs	r3, #3
 800494e:	f885 33bd 	strb.w	r3, [r5, #957]	; 0x3bd
 8004952:	6be3      	ldr	r3, [r4, #60]	; 0x3c
 8004954:	462e      	mov	r6, r5
 8004956:	f413 7380 	ands.w	r3, r3, #256	; 0x100
 800495a:	bf08      	it	eq
 800495c:	612b      	streq	r3, [r5, #16]
 800495e:	f002 fb0f 	bl	8006f80 <USB_DisableGlobalInt>
 8004962:	f856 cb10 	ldr.w	ip, [r6], #16
 8004966:	4637      	mov	r7, r6
 8004968:	cf0f      	ldmia	r7!, {r0, r1, r2, r3}
 800496a:	466c      	mov	r4, sp
 800496c:	c40f      	stmia	r4!, {r0, r1, r2, r3}
 800496e:	cf0f      	ldmia	r7!, {r0, r1, r2, r3}
 8004970:	c40f      	stmia	r4!, {r0, r1, r2, r3}
 8004972:	e897 0003 	ldmia.w	r7, {r0, r1}
 8004976:	e884 0003 	stmia.w	r4, {r0, r1}
 800497a:	1d2f      	adds	r7, r5, #4
 800497c:	e897 000e 	ldmia.w	r7, {r1, r2, r3}
 8004980:	4660      	mov	r0, ip
 8004982:	f002 f9fd 	bl	8006d80 <USB_CoreInit>
 8004986:	4604      	mov	r4, r0
 8004988:	b130      	cbz	r0, 8004998 <HAL_PCD_Init+0x68>
 800498a:	2401      	movs	r4, #1
 800498c:	2302      	movs	r3, #2
 800498e:	4620      	mov	r0, r4
 8004990:	f885 33bd 	strb.w	r3, [r5, #957]	; 0x3bd
 8004994:	b00b      	add	sp, #44	; 0x2c
 8004996:	bdf0      	pop	{r4, r5, r6, r7, pc}
 8004998:	4601      	mov	r1, r0
 800499a:	6828      	ldr	r0, [r5, #0]
 800499c:	f002 faf8 	bl	8006f90 <USB_SetCurrentMode>
 80049a0:	6868      	ldr	r0, [r5, #4]
 80049a2:	b358      	cbz	r0, 80049fc <HAL_PCD_Init+0xcc>
 80049a4:	4622      	mov	r2, r4
 80049a6:	f04f 0e01 	mov.w	lr, #1
 80049aa:	4621      	mov	r1, r4
 80049ac:	ebc2 03c2 	rsb	r3, r2, r2, lsl #3
 80049b0:	eb05 0383 	add.w	r3, r5, r3, lsl #2
 80049b4:	f102 0c01 	add.w	ip, r2, #1
 80049b8:	f883 203c 	strb.w	r2, [r3, #60]	; 0x3c
 80049bc:	f8a3 2042 	strh.w	r2, [r3, #66]	; 0x42
 80049c0:	fa5f f28c 	uxtb.w	r2, ip
 80049c4:	4282      	cmp	r2, r0
 80049c6:	e9c3 1111 	strd	r1, r1, [r3, #68]	; 0x44
 80049ca:	f883 e03d 	strb.w	lr, [r3, #61]	; 0x3d
 80049ce:	f883 103f 	strb.w	r1, [r3, #63]	; 0x3f
 80049d2:	6519      	str	r1, [r3, #80]	; 0x50
 80049d4:	d3ea      	bcc.n	80049ac <HAL_PCD_Init+0x7c>
 80049d6:	2200      	movs	r2, #0
 80049d8:	ebc4 03c4 	rsb	r3, r4, r4, lsl #3
 80049dc:	eb05 0383 	add.w	r3, r5, r3, lsl #2
 80049e0:	1c61      	adds	r1, r4, #1
 80049e2:	f883 41fc 	strb.w	r4, [r3, #508]	; 0x1fc
 80049e6:	b2cc      	uxtb	r4, r1
 80049e8:	4284      	cmp	r4, r0
 80049ea:	e9c3 2281 	strd	r2, r2, [r3, #516]	; 0x204
 80049ee:	f883 21fd 	strb.w	r2, [r3, #509]	; 0x1fd
 80049f2:	f883 21ff 	strb.w	r2, [r3, #511]	; 0x1ff
 80049f6:	f8c3 2210 	str.w	r2, [r3, #528]	; 0x210
 80049fa:	d3ed      	bcc.n	80049d8 <HAL_PCD_Init+0xa8>
 80049fc:	ce0f      	ldmia	r6!, {r0, r1, r2, r3}
 80049fe:	466c      	mov	r4, sp
 8004a00:	c40f      	stmia	r4!, {r0, r1, r2, r3}
 8004a02:	ce0f      	ldmia	r6!, {r0, r1, r2, r3}
 8004a04:	c40f      	stmia	r4!, {r0, r1, r2, r3}
 8004a06:	e896 0003 	ldmia.w	r6, {r0, r1}
 8004a0a:	e884 0003 	stmia.w	r4, {r0, r1}
 8004a0e:	e897 000e 	ldmia.w	r7, {r1, r2, r3}
 8004a12:	6828      	ldr	r0, [r5, #0]
 8004a14:	f002 faf4 	bl	8007000 <USB_DevInit>
 8004a18:	4604      	mov	r4, r0
 8004a1a:	2800      	cmp	r0, #0
 8004a1c:	d1b5      	bne.n	800498a <HAL_PCD_Init+0x5a>
 8004a1e:	2301      	movs	r3, #1
 8004a20:	f885 0038 	strb.w	r0, [r5, #56]	; 0x38
 8004a24:	6828      	ldr	r0, [r5, #0]
 8004a26:	f885 33bd 	strb.w	r3, [r5, #957]	; 0x3bd
 8004a2a:	f002 ff21 	bl	8007870 <USB_DevDisconnect>
 8004a2e:	4620      	mov	r0, r4
 8004a30:	b00b      	add	sp, #44	; 0x2c
 8004a32:	bdf0      	pop	{r4, r5, r6, r7, pc}
 8004a34:	f880 23bc 	strb.w	r2, [r0, #956]	; 0x3bc
 8004a38:	f003 fec4 	bl	80087c4 <HAL_PCD_MspInit>
 8004a3c:	6828      	ldr	r0, [r5, #0]
 8004a3e:	e785      	b.n	800494c <HAL_PCD_Init+0x1c>
 8004a40:	2401      	movs	r4, #1
 8004a42:	4620      	mov	r0, r4
 8004a44:	b00b      	add	sp, #44	; 0x2c
 8004a46:	bdf0      	pop	{r4, r5, r6, r7, pc}

08004a48 <HAL_PCD_Start>:
 8004a48:	b510      	push	{r4, lr}
 8004a4a:	f890 33bc 	ldrb.w	r3, [r0, #956]	; 0x3bc
 8004a4e:	2b01      	cmp	r3, #1
 8004a50:	4604      	mov	r4, r0
 8004a52:	6800      	ldr	r0, [r0, #0]
 8004a54:	d016      	beq.n	8004a84 <HAL_PCD_Start+0x3c>
 8004a56:	6aa3      	ldr	r3, [r4, #40]	; 0x28
 8004a58:	2201      	movs	r2, #1
 8004a5a:	4293      	cmp	r3, r2
 8004a5c:	f884 23bc 	strb.w	r2, [r4, #956]	; 0x3bc
 8004a60:	d008      	beq.n	8004a74 <HAL_PCD_Start+0x2c>
 8004a62:	f002 fa85 	bl	8006f70 <USB_EnableGlobalInt>
 8004a66:	6820      	ldr	r0, [r4, #0]
 8004a68:	f002 fef4 	bl	8007854 <USB_DevConnect>
 8004a6c:	2000      	movs	r0, #0
 8004a6e:	f884 03bc 	strb.w	r0, [r4, #956]	; 0x3bc
 8004a72:	bd10      	pop	{r4, pc}
 8004a74:	69a3      	ldr	r3, [r4, #24]
 8004a76:	4293      	cmp	r3, r2
 8004a78:	d0f3      	beq.n	8004a62 <HAL_PCD_Start+0x1a>
 8004a7a:	6b83      	ldr	r3, [r0, #56]	; 0x38
 8004a7c:	f443 3380 	orr.w	r3, r3, #65536	; 0x10000
 8004a80:	6383      	str	r3, [r0, #56]	; 0x38
 8004a82:	e7ee      	b.n	8004a62 <HAL_PCD_Start+0x1a>
 8004a84:	2002      	movs	r0, #2
 8004a86:	bd10      	pop	{r4, pc}

08004a88 <HAL_PCD_IRQHandler>:
 8004a88:	e92d 4ff0 	stmdb	sp!, {r4, r5, r6, r7, r8, r9, sl, fp, lr}
 8004a8c:	6806      	ldr	r6, [r0, #0]
 8004a8e:	b087      	sub	sp, #28
 8004a90:	4604      	mov	r4, r0
 8004a92:	4630      	mov	r0, r6
 8004a94:	f002 ff2c 	bl	80078f0 <USB_GetMode>
 8004a98:	b110      	cbz	r0, 8004aa0 <HAL_PCD_IRQHandler+0x18>
 8004a9a:	b007      	add	sp, #28
 8004a9c:	e8bd 8ff0 	ldmia.w	sp!, {r4, r5, r6, r7, r8, r9, sl, fp, pc}
 8004aa0:	4683      	mov	fp, r0
 8004aa2:	6820      	ldr	r0, [r4, #0]
 8004aa4:	f002 fef2 	bl	800788c <USB_ReadInterrupts>
 8004aa8:	2800      	cmp	r0, #0
 8004aaa:	d0f6      	beq.n	8004a9a <HAL_PCD_IRQHandler+0x12>
 8004aac:	6820      	ldr	r0, [r4, #0]
 8004aae:	f002 feed 	bl	800788c <USB_ReadInterrupts>
 8004ab2:	f010 0f02 	tst.w	r0, #2
 8004ab6:	6820      	ldr	r0, [r4, #0]
 8004ab8:	bf1e      	ittt	ne
 8004aba:	6943      	ldrne	r3, [r0, #20]
 8004abc:	f003 0302 	andne.w	r3, r3, #2
 8004ac0:	6143      	strne	r3, [r0, #20]
 8004ac2:	f002 fee3 	bl	800788c <USB_ReadInterrupts>
 8004ac6:	f010 0f10 	tst.w	r0, #16
 8004aca:	6820      	ldr	r0, [r4, #0]
 8004acc:	d012      	beq.n	8004af4 <HAL_PCD_IRQHandler+0x6c>
 8004ace:	6983      	ldr	r3, [r0, #24]
 8004ad0:	f023 0310 	bic.w	r3, r3, #16
 8004ad4:	6183      	str	r3, [r0, #24]
 8004ad6:	6a35      	ldr	r5, [r6, #32]
 8004ad8:	f3c5 4343 	ubfx	r3, r5, #17, #4
 8004adc:	2b02      	cmp	r3, #2
 8004ade:	f005 070f 	and.w	r7, r5, #15
 8004ae2:	f000 824f 	beq.w	8004f84 <HAL_PCD_IRQHandler+0x4fc>
 8004ae6:	2b06      	cmp	r3, #6
 8004ae8:	f000 81a8 	beq.w	8004e3c <HAL_PCD_IRQHandler+0x3b4>
 8004aec:	6983      	ldr	r3, [r0, #24]
 8004aee:	f043 0310 	orr.w	r3, r3, #16
 8004af2:	6183      	str	r3, [r0, #24]
 8004af4:	f002 feca 	bl	800788c <USB_ReadInterrupts>
 8004af8:	f410 2f00 	tst.w	r0, #524288	; 0x80000
 8004afc:	6820      	ldr	r0, [r4, #0]
 8004afe:	f040 80c0 	bne.w	8004c82 <HAL_PCD_IRQHandler+0x1fa>
 8004b02:	f002 fec3 	bl	800788c <USB_ReadInterrupts>
 8004b06:	f410 2f80 	tst.w	r0, #262144	; 0x40000
 8004b0a:	6820      	ldr	r0, [r4, #0]
 8004b0c:	d15a      	bne.n	8004bc4 <HAL_PCD_IRQHandler+0x13c>
 8004b0e:	f002 febd 	bl	800788c <USB_ReadInterrupts>
 8004b12:	2800      	cmp	r0, #0
 8004b14:	db42      	blt.n	8004b9c <HAL_PCD_IRQHandler+0x114>
 8004b16:	6820      	ldr	r0, [r4, #0]
 8004b18:	f002 feb8 	bl	800788c <USB_ReadInterrupts>
 8004b1c:	0501      	lsls	r1, r0, #20
 8004b1e:	d432      	bmi.n	8004b86 <HAL_PCD_IRQHandler+0xfe>
 8004b20:	6820      	ldr	r0, [r4, #0]
 8004b22:	f002 feb3 	bl	800788c <USB_ReadInterrupts>
 8004b26:	04c3      	lsls	r3, r0, #19
 8004b28:	f100 8125 	bmi.w	8004d76 <HAL_PCD_IRQHandler+0x2ee>
 8004b2c:	6820      	ldr	r0, [r4, #0]
 8004b2e:	f002 fead 	bl	800788c <USB_ReadInterrupts>
 8004b32:	f410 5f00 	tst.w	r0, #8192	; 0x2000
 8004b36:	6820      	ldr	r0, [r4, #0]
 8004b38:	f040 8106 	bne.w	8004d48 <HAL_PCD_IRQHandler+0x2c0>
 8004b3c:	f002 fea6 	bl	800788c <USB_ReadInterrupts>
 8004b40:	0707      	lsls	r7, r0, #28
 8004b42:	f100 80f8 	bmi.w	8004d36 <HAL_PCD_IRQHandler+0x2ae>
 8004b46:	6820      	ldr	r0, [r4, #0]
 8004b48:	f002 fea0 	bl	800788c <USB_ReadInterrupts>
 8004b4c:	02c6      	lsls	r6, r0, #11
 8004b4e:	f100 80e8 	bmi.w	8004d22 <HAL_PCD_IRQHandler+0x29a>
 8004b52:	6820      	ldr	r0, [r4, #0]
 8004b54:	f002 fe9a 	bl	800788c <USB_ReadInterrupts>
 8004b58:	0285      	lsls	r5, r0, #10
 8004b5a:	f100 80d8 	bmi.w	8004d0e <HAL_PCD_IRQHandler+0x286>
 8004b5e:	6820      	ldr	r0, [r4, #0]
 8004b60:	f002 fe94 	bl	800788c <USB_ReadInterrupts>
 8004b64:	0040      	lsls	r0, r0, #1
 8004b66:	f100 80c9 	bmi.w	8004cfc <HAL_PCD_IRQHandler+0x274>
 8004b6a:	6820      	ldr	r0, [r4, #0]
 8004b6c:	f002 fe8e 	bl	800788c <USB_ReadInterrupts>
 8004b70:	0741      	lsls	r1, r0, #29
 8004b72:	d592      	bpl.n	8004a9a <HAL_PCD_IRQHandler+0x12>
 8004b74:	6823      	ldr	r3, [r4, #0]
 8004b76:	685d      	ldr	r5, [r3, #4]
 8004b78:	076a      	lsls	r2, r5, #29
 8004b7a:	f100 8225 	bmi.w	8004fc8 <HAL_PCD_IRQHandler+0x540>
 8004b7e:	685a      	ldr	r2, [r3, #4]
 8004b80:	432a      	orrs	r2, r5
 8004b82:	605a      	str	r2, [r3, #4]
 8004b84:	e789      	b.n	8004a9a <HAL_PCD_IRQHandler+0x12>
 8004b86:	f8d6 3808 	ldr.w	r3, [r6, #2056]	; 0x808
 8004b8a:	07da      	lsls	r2, r3, #31
 8004b8c:	f100 8218 	bmi.w	8004fc0 <HAL_PCD_IRQHandler+0x538>
 8004b90:	6820      	ldr	r0, [r4, #0]
 8004b92:	6943      	ldr	r3, [r0, #20]
 8004b94:	f403 6300 	and.w	r3, r3, #2048	; 0x800
 8004b98:	6143      	str	r3, [r0, #20]
 8004b9a:	e7c2      	b.n	8004b22 <HAL_PCD_IRQHandler+0x9a>
 8004b9c:	f8d6 3804 	ldr.w	r3, [r6, #2052]	; 0x804
 8004ba0:	f023 0301 	bic.w	r3, r3, #1
 8004ba4:	f8c6 3804 	str.w	r3, [r6, #2052]	; 0x804
 8004ba8:	f894 33f4 	ldrb.w	r3, [r4, #1012]	; 0x3f4
 8004bac:	2b01      	cmp	r3, #1
 8004bae:	f000 813e 	beq.w	8004e2e <HAL_PCD_IRQHandler+0x3a6>
 8004bb2:	4620      	mov	r0, r4
 8004bb4:	f003 fe96 	bl	80088e4 <HAL_PCD_ResumeCallback>
 8004bb8:	6820      	ldr	r0, [r4, #0]
 8004bba:	6943      	ldr	r3, [r0, #20]
 8004bbc:	f003 4300 	and.w	r3, r3, #2147483648	; 0x80000000
 8004bc0:	6143      	str	r3, [r0, #20]
 8004bc2:	e7a9      	b.n	8004b18 <HAL_PCD_IRQHandler+0x90>
 8004bc4:	f002 fe6e 	bl	80078a4 <USB_ReadDevAllInEpInterrupt>
 8004bc8:	4681      	mov	r9, r0
 8004bca:	6820      	ldr	r0, [r4, #0]
 8004bcc:	f1b9 0f00 	cmp.w	r9, #0
 8004bd0:	d09d      	beq.n	8004b0e <HAL_PCD_IRQHandler+0x86>
 8004bd2:	f506 6310 	add.w	r3, r6, #2304	; 0x900
 8004bd6:	e9cd 3602 	strd	r3, r6, [sp, #8]
 8004bda:	4625      	mov	r5, r4
 8004bdc:	f04f 0a00 	mov.w	sl, #0
 8004be0:	f8cd b010 	str.w	fp, [sp, #16]
 8004be4:	e007      	b.n	8004bf6 <HAL_PCD_IRQHandler+0x16e>
 8004be6:	ea5f 0959 	movs.w	r9, r9, lsr #1
 8004bea:	f10a 0a01 	add.w	sl, sl, #1
 8004bee:	f105 051c 	add.w	r5, r5, #28
 8004bf2:	f000 8138 	beq.w	8004e66 <HAL_PCD_IRQHandler+0x3de>
 8004bf6:	f019 0f01 	tst.w	r9, #1
 8004bfa:	d0f4      	beq.n	8004be6 <HAL_PCD_IRQHandler+0x15e>
 8004bfc:	fa5f f78a 	uxtb.w	r7, sl
 8004c00:	4639      	mov	r1, r7
 8004c02:	f002 fe61 	bl	80078c8 <USB_ReadDevInEPInterrupt>
 8004c06:	07c3      	lsls	r3, r0, #31
 8004c08:	4606      	mov	r6, r0
 8004c0a:	d519      	bpl.n	8004c40 <HAL_PCD_IRQHandler+0x1b8>
 8004c0c:	9b03      	ldr	r3, [sp, #12]
 8004c0e:	6921      	ldr	r1, [r4, #16]
 8004c10:	f8d3 0834 	ldr.w	r0, [r3, #2100]	; 0x834
 8004c14:	f04f 0c01 	mov.w	ip, #1
 8004c18:	f00a 020f 	and.w	r2, sl, #15
 8004c1c:	fa0c f202 	lsl.w	r2, ip, r2
 8004c20:	ea20 0002 	bic.w	r0, r0, r2
 8004c24:	9a02      	ldr	r2, [sp, #8]
 8004c26:	f8c3 0834 	str.w	r0, [r3, #2100]	; 0x834
 8004c2a:	eb02 124a 	add.w	r2, r2, sl, lsl #5
 8004c2e:	4561      	cmp	r1, ip
 8004c30:	f8c2 c008 	str.w	ip, [r2, #8]
 8004c34:	f000 81cd 	beq.w	8004fd2 <HAL_PCD_IRQHandler+0x54a>
 8004c38:	4639      	mov	r1, r7
 8004c3a:	4620      	mov	r0, r4
 8004c3c:	f003 fe16 	bl	800886c <HAL_PCD_DataInStageCallback>
 8004c40:	0730      	lsls	r0, r6, #28
 8004c42:	d504      	bpl.n	8004c4e <HAL_PCD_IRQHandler+0x1c6>
 8004c44:	9b02      	ldr	r3, [sp, #8]
 8004c46:	eb03 134a 	add.w	r3, r3, sl, lsl #5
 8004c4a:	2208      	movs	r2, #8
 8004c4c:	609a      	str	r2, [r3, #8]
 8004c4e:	06f1      	lsls	r1, r6, #27
 8004c50:	d504      	bpl.n	8004c5c <HAL_PCD_IRQHandler+0x1d4>
 8004c52:	9b02      	ldr	r3, [sp, #8]
 8004c54:	eb03 134a 	add.w	r3, r3, sl, lsl #5
 8004c58:	2210      	movs	r2, #16
 8004c5a:	609a      	str	r2, [r3, #8]
 8004c5c:	0672      	lsls	r2, r6, #25
 8004c5e:	d504      	bpl.n	8004c6a <HAL_PCD_IRQHandler+0x1e2>
 8004c60:	9b02      	ldr	r3, [sp, #8]
 8004c62:	eb03 134a 	add.w	r3, r3, sl, lsl #5
 8004c66:	2240      	movs	r2, #64	; 0x40
 8004c68:	609a      	str	r2, [r3, #8]
 8004c6a:	07b3      	lsls	r3, r6, #30
 8004c6c:	d504      	bpl.n	8004c78 <HAL_PCD_IRQHandler+0x1f0>
 8004c6e:	9b02      	ldr	r3, [sp, #8]
 8004c70:	eb03 134a 	add.w	r3, r3, sl, lsl #5
 8004c74:	2202      	movs	r2, #2
 8004c76:	609a      	str	r2, [r3, #8]
 8004c78:	0630      	lsls	r0, r6, #24
 8004c7a:	f100 8135 	bmi.w	8004ee8 <HAL_PCD_IRQHandler+0x460>
 8004c7e:	6820      	ldr	r0, [r4, #0]
 8004c80:	e7b1      	b.n	8004be6 <HAL_PCD_IRQHandler+0x15e>
 8004c82:	f002 fe07 	bl	8007894 <USB_ReadDevAllOutEpInterrupt>
 8004c86:	4605      	mov	r5, r0
 8004c88:	6820      	ldr	r0, [r4, #0]
 8004c8a:	2d00      	cmp	r5, #0
 8004c8c:	f43f af39 	beq.w	8004b02 <HAL_PCD_IRQHandler+0x7a>
 8004c90:	f506 6330 	add.w	r3, r6, #2816	; 0xb00
 8004c94:	f504 7901 	add.w	r9, r4, #516	; 0x204
 8004c98:	2700      	movs	r7, #0
 8004c9a:	9602      	str	r6, [sp, #8]
 8004c9c:	469a      	mov	sl, r3
 8004c9e:	e006      	b.n	8004cae <HAL_PCD_IRQHandler+0x226>
 8004ca0:	086d      	lsrs	r5, r5, #1
 8004ca2:	f107 0701 	add.w	r7, r7, #1
 8004ca6:	f109 091c 	add.w	r9, r9, #28
 8004caa:	f000 80da 	beq.w	8004e62 <HAL_PCD_IRQHandler+0x3da>
 8004cae:	07e9      	lsls	r1, r5, #31
 8004cb0:	d5f6      	bpl.n	8004ca0 <HAL_PCD_IRQHandler+0x218>
 8004cb2:	b2fe      	uxtb	r6, r7
 8004cb4:	4631      	mov	r1, r6
 8004cb6:	f002 fdfd 	bl	80078b4 <USB_ReadDevOutEPInterrupt>
 8004cba:	4680      	mov	r8, r0
 8004cbc:	f018 0f01 	tst.w	r8, #1
 8004cc0:	6820      	ldr	r0, [r4, #0]
 8004cc2:	f040 80f0 	bne.w	8004ea6 <HAL_PCD_IRQHandler+0x41e>
 8004cc6:	f018 0f08 	tst.w	r8, #8
 8004cca:	f040 80cf 	bne.w	8004e6c <HAL_PCD_IRQHandler+0x3e4>
 8004cce:	f018 0f10 	tst.w	r8, #16
 8004cd2:	d003      	beq.n	8004cdc <HAL_PCD_IRQHandler+0x254>
 8004cd4:	eb0a 1347 	add.w	r3, sl, r7, lsl #5
 8004cd8:	2210      	movs	r2, #16
 8004cda:	609a      	str	r2, [r3, #8]
 8004cdc:	f018 0f20 	tst.w	r8, #32
 8004ce0:	d003      	beq.n	8004cea <HAL_PCD_IRQHandler+0x262>
 8004ce2:	eb0a 1347 	add.w	r3, sl, r7, lsl #5
 8004ce6:	2220      	movs	r2, #32
 8004ce8:	609a      	str	r2, [r3, #8]
 8004cea:	f418 5f00 	tst.w	r8, #8192	; 0x2000
 8004cee:	d0d7      	beq.n	8004ca0 <HAL_PCD_IRQHandler+0x218>
 8004cf0:	eb0a 1347 	add.w	r3, sl, r7, lsl #5
 8004cf4:	f44f 5200 	mov.w	r2, #8192	; 0x2000
 8004cf8:	609a      	str	r2, [r3, #8]
 8004cfa:	e7d1      	b.n	8004ca0 <HAL_PCD_IRQHandler+0x218>
 8004cfc:	4620      	mov	r0, r4
 8004cfe:	f003 fdfd 	bl	80088fc <HAL_PCD_ConnectCallback>
 8004d02:	6820      	ldr	r0, [r4, #0]
 8004d04:	6943      	ldr	r3, [r0, #20]
 8004d06:	f003 4380 	and.w	r3, r3, #1073741824	; 0x40000000
 8004d0a:	6143      	str	r3, [r0, #20]
 8004d0c:	e72e      	b.n	8004b6c <HAL_PCD_IRQHandler+0xe4>
 8004d0e:	4620      	mov	r0, r4
 8004d10:	2100      	movs	r1, #0
 8004d12:	f003 fdeb 	bl	80088ec <HAL_PCD_ISOOUTIncompleteCallback>
 8004d16:	6820      	ldr	r0, [r4, #0]
 8004d18:	6943      	ldr	r3, [r0, #20]
 8004d1a:	f403 1300 	and.w	r3, r3, #2097152	; 0x200000
 8004d1e:	6143      	str	r3, [r0, #20]
 8004d20:	e71e      	b.n	8004b60 <HAL_PCD_IRQHandler+0xd8>
 8004d22:	4620      	mov	r0, r4
 8004d24:	2100      	movs	r1, #0
 8004d26:	f003 fde5 	bl	80088f4 <HAL_PCD_ISOINIncompleteCallback>
 8004d2a:	6820      	ldr	r0, [r4, #0]
 8004d2c:	6943      	ldr	r3, [r0, #20]
 8004d2e:	f403 1380 	and.w	r3, r3, #1048576	; 0x100000
 8004d32:	6143      	str	r3, [r0, #20]
 8004d34:	e70e      	b.n	8004b54 <HAL_PCD_IRQHandler+0xcc>
 8004d36:	4620      	mov	r0, r4
 8004d38:	f003 fda2 	bl	8008880 <HAL_PCD_SOFCallback>
 8004d3c:	6820      	ldr	r0, [r4, #0]
 8004d3e:	6943      	ldr	r3, [r0, #20]
 8004d40:	f003 0308 	and.w	r3, r3, #8
 8004d44:	6143      	str	r3, [r0, #20]
 8004d46:	e6ff      	b.n	8004b48 <HAL_PCD_IRQHandler+0xc0>
 8004d48:	f002 fdd6 	bl	80078f8 <USB_ActivateSetup>
 8004d4c:	6820      	ldr	r0, [r4, #0]
 8004d4e:	f002 fa61 	bl	8007214 <USB_GetDevSpeed>
 8004d52:	60e0      	str	r0, [r4, #12]
 8004d54:	6825      	ldr	r5, [r4, #0]
 8004d56:	f000 fddf 	bl	8005918 <HAL_RCC_GetHCLKFreq>
 8004d5a:	7b22      	ldrb	r2, [r4, #12]
 8004d5c:	4601      	mov	r1, r0
 8004d5e:	4628      	mov	r0, r5
 8004d60:	f002 f88e 	bl	8006e80 <USB_SetTurnaroundTime>
 8004d64:	4620      	mov	r0, r4
 8004d66:	f003 fd8f 	bl	8008888 <HAL_PCD_ResetCallback>
 8004d6a:	6820      	ldr	r0, [r4, #0]
 8004d6c:	6943      	ldr	r3, [r0, #20]
 8004d6e:	f403 5300 	and.w	r3, r3, #8192	; 0x2000
 8004d72:	6143      	str	r3, [r0, #20]
 8004d74:	e6e2      	b.n	8004b3c <HAL_PCD_IRQHandler+0xb4>
 8004d76:	f8d6 3804 	ldr.w	r3, [r6, #2052]	; 0x804
 8004d7a:	6820      	ldr	r0, [r4, #0]
 8004d7c:	f023 0301 	bic.w	r3, r3, #1
 8004d80:	2110      	movs	r1, #16
 8004d82:	f8c6 3804 	str.w	r3, [r6, #2052]	; 0x804
 8004d86:	f002 fa2b 	bl	80071e0 <USB_FlushTxFifo>
 8004d8a:	6860      	ldr	r0, [r4, #4]
 8004d8c:	f506 6500 	add.w	r5, r6, #2048	; 0x800
 8004d90:	b300      	cbz	r0, 8004dd4 <HAL_PCD_IRQHandler+0x34c>
 8004d92:	f506 6310 	add.w	r3, r6, #2304	; 0x900
 8004d96:	f64f 317f 	movw	r1, #64383	; 0xfb7f
 8004d9a:	6099      	str	r1, [r3, #8]
 8004d9c:	681a      	ldr	r2, [r3, #0]
 8004d9e:	f422 1200 	bic.w	r2, r2, #2097152	; 0x200000
 8004da2:	601a      	str	r2, [r3, #0]
 8004da4:	681a      	ldr	r2, [r3, #0]
 8004da6:	f042 6200 	orr.w	r2, r2, #134217728	; 0x8000000
 8004daa:	601a      	str	r2, [r3, #0]
 8004dac:	f8c3 1208 	str.w	r1, [r3, #520]	; 0x208
 8004db0:	f8d3 2200 	ldr.w	r2, [r3, #512]	; 0x200
 8004db4:	f422 1200 	bic.w	r2, r2, #2097152	; 0x200000
 8004db8:	f8c3 2200 	str.w	r2, [r3, #512]	; 0x200
 8004dbc:	f8d3 2200 	ldr.w	r2, [r3, #512]	; 0x200
 8004dc0:	f10b 0b01 	add.w	fp, fp, #1
 8004dc4:	f042 6200 	orr.w	r2, r2, #134217728	; 0x8000000
 8004dc8:	4583      	cmp	fp, r0
 8004dca:	f8c3 2200 	str.w	r2, [r3, #512]	; 0x200
 8004dce:	f103 0320 	add.w	r3, r3, #32
 8004dd2:	d1e2      	bne.n	8004d9a <HAL_PCD_IRQHandler+0x312>
 8004dd4:	69eb      	ldr	r3, [r5, #28]
 8004dd6:	6b22      	ldr	r2, [r4, #48]	; 0x30
 8004dd8:	f043 1301 	orr.w	r3, r3, #65537	; 0x10001
 8004ddc:	61eb      	str	r3, [r5, #28]
 8004dde:	b9da      	cbnz	r2, 8004e18 <HAL_PCD_IRQHandler+0x390>
 8004de0:	696b      	ldr	r3, [r5, #20]
 8004de2:	f443 5300 	orr.w	r3, r3, #8192	; 0x2000
 8004de6:	f043 032b 	orr.w	r3, r3, #43	; 0x2b
 8004dea:	616b      	str	r3, [r5, #20]
 8004dec:	692b      	ldr	r3, [r5, #16]
 8004dee:	f043 030b 	orr.w	r3, r3, #11
 8004df2:	612b      	str	r3, [r5, #16]
 8004df4:	f8d6 3800 	ldr.w	r3, [r6, #2048]	; 0x800
 8004df8:	7c21      	ldrb	r1, [r4, #16]
 8004dfa:	6820      	ldr	r0, [r4, #0]
 8004dfc:	f423 63fe 	bic.w	r3, r3, #2032	; 0x7f0
 8004e00:	f8c6 3800 	str.w	r3, [r6, #2048]	; 0x800
 8004e04:	f504 7271 	add.w	r2, r4, #964	; 0x3c4
 8004e08:	f002 fd86 	bl	8007918 <USB_EP0_OutStart>
 8004e0c:	6820      	ldr	r0, [r4, #0]
 8004e0e:	6943      	ldr	r3, [r0, #20]
 8004e10:	f403 5380 	and.w	r3, r3, #4096	; 0x1000
 8004e14:	6143      	str	r3, [r0, #20]
 8004e16:	e68a      	b.n	8004b2e <HAL_PCD_IRQHandler+0xa6>
 8004e18:	f8d5 3084 	ldr.w	r3, [r5, #132]	; 0x84
 8004e1c:	f043 030b 	orr.w	r3, r3, #11
 8004e20:	f8c5 3084 	str.w	r3, [r5, #132]	; 0x84
 8004e24:	6c6b      	ldr	r3, [r5, #68]	; 0x44
 8004e26:	f043 030b 	orr.w	r3, r3, #11
 8004e2a:	646b      	str	r3, [r5, #68]	; 0x44
 8004e2c:	e7e2      	b.n	8004df4 <HAL_PCD_IRQHandler+0x36c>
 8004e2e:	2100      	movs	r1, #0
 8004e30:	f884 13f4 	strb.w	r1, [r4, #1012]	; 0x3f4
 8004e34:	4620      	mov	r0, r4
 8004e36:	f000 fab3 	bl	80053a0 <HAL_PCDEx_LPM_Callback>
 8004e3a:	e6bd      	b.n	8004bb8 <HAL_PCD_IRQHandler+0x130>
 8004e3c:	2208      	movs	r2, #8
 8004e3e:	f504 7171 	add.w	r1, r4, #964	; 0x3c4
 8004e42:	4630      	mov	r0, r6
 8004e44:	ebc7 07c7 	rsb	r7, r7, r7, lsl #3
 8004e48:	f002 fc74 	bl	8007734 <USB_ReadPacket>
 8004e4c:	eb04 0287 	add.w	r2, r4, r7, lsl #2
 8004e50:	f3c5 130a 	ubfx	r3, r5, #4, #11
 8004e54:	f8d2 1214 	ldr.w	r1, [r2, #532]	; 0x214
 8004e58:	6820      	ldr	r0, [r4, #0]
 8004e5a:	440b      	add	r3, r1
 8004e5c:	f8c2 3214 	str.w	r3, [r2, #532]	; 0x214
 8004e60:	e644      	b.n	8004aec <HAL_PCD_IRQHandler+0x64>
 8004e62:	9e02      	ldr	r6, [sp, #8]
 8004e64:	e64d      	b.n	8004b02 <HAL_PCD_IRQHandler+0x7a>
 8004e66:	e9dd 6b03 	ldrd	r6, fp, [sp, #12]
 8004e6a:	e650      	b.n	8004b0e <HAL_PCD_IRQHandler+0x86>
 8004e6c:	eb0a 1347 	add.w	r3, sl, r7, lsl #5
 8004e70:	2208      	movs	r2, #8
 8004e72:	609a      	str	r2, [r3, #8]
 8004e74:	6c02      	ldr	r2, [r0, #64]	; 0x40
 8004e76:	eb00 1347 	add.w	r3, r0, r7, lsl #5
 8004e7a:	488c      	ldr	r0, [pc, #560]	; (80050ac <HAL_PCD_IRQHandler+0x624>)
 8004e7c:	f8d3 1b08 	ldr.w	r1, [r3, #2824]	; 0xb08
 8004e80:	4282      	cmp	r2, r0
 8004e82:	f503 6330 	add.w	r3, r3, #2816	; 0xb00
 8004e86:	f240 80b6 	bls.w	8004ff6 <HAL_PCD_IRQHandler+0x56e>
 8004e8a:	040a      	lsls	r2, r1, #16
 8004e8c:	d502      	bpl.n	8004e94 <HAL_PCD_IRQHandler+0x40c>
 8004e8e:	f44f 4200 	mov.w	r2, #32768	; 0x8000
 8004e92:	609a      	str	r2, [r3, #8]
 8004e94:	4620      	mov	r0, r4
 8004e96:	f003 fcd9 	bl	800884c <HAL_PCD_SetupStageCallback>
 8004e9a:	6921      	ldr	r1, [r4, #16]
 8004e9c:	2901      	cmp	r1, #1
 8004e9e:	f000 80d6 	beq.w	800504e <HAL_PCD_IRQHandler+0x5c6>
 8004ea2:	6820      	ldr	r0, [r4, #0]
 8004ea4:	e713      	b.n	8004cce <HAL_PCD_IRQHandler+0x246>
 8004ea6:	f8d4 c010 	ldr.w	ip, [r4, #16]
 8004eaa:	f500 6230 	add.w	r2, r0, #2816	; 0xb00
 8004eae:	eb0a 1147 	add.w	r1, sl, r7, lsl #5
 8004eb2:	2301      	movs	r3, #1
 8004eb4:	eb02 1247 	add.w	r2, r2, r7, lsl #5
 8004eb8:	608b      	str	r3, [r1, #8]
 8004eba:	f1bc 0f01 	cmp.w	ip, #1
 8004ebe:	6c03      	ldr	r3, [r0, #64]	; 0x40
 8004ec0:	f8d2 e008 	ldr.w	lr, [r2, #8]
 8004ec4:	f000 809c 	beq.w	8005000 <HAL_PCD_IRQHandler+0x578>
 8004ec8:	4979      	ldr	r1, [pc, #484]	; (80050b0 <HAL_PCD_IRQHandler+0x628>)
 8004eca:	428b      	cmp	r3, r1
 8004ecc:	f000 80af 	beq.w	800502e <HAL_PCD_IRQHandler+0x5a6>
 8004ed0:	b927      	cbnz	r7, 8004edc <HAL_PCD_IRQHandler+0x454>
 8004ed2:	f8d4 2210 	ldr.w	r2, [r4, #528]	; 0x210
 8004ed6:	2a00      	cmp	r2, #0
 8004ed8:	f000 80e2 	beq.w	80050a0 <HAL_PCD_IRQHandler+0x618>
 8004edc:	4620      	mov	r0, r4
 8004ede:	4631      	mov	r1, r6
 8004ee0:	f003 fcba 	bl	8008858 <HAL_PCD_DataOutStageCallback>
 8004ee4:	6820      	ldr	r0, [r4, #0]
 8004ee6:	e6ee      	b.n	8004cc6 <HAL_PCD_IRQHandler+0x23e>
 8004ee8:	e9d5 1314 	ldrd	r1, r3, [r5, #80]	; 0x50
 8004eec:	f8d4 8000 	ldr.w	r8, [r4]
 8004ef0:	428b      	cmp	r3, r1
 8004ef2:	4640      	mov	r0, r8
 8004ef4:	f63f ae77 	bhi.w	8004be6 <HAL_PCD_IRQHandler+0x15e>
 8004ef8:	f508 6b10 	add.w	fp, r8, #2304	; 0x900
 8004efc:	6c6a      	ldr	r2, [r5, #68]	; 0x44
 8004efe:	f8cd 8014 	str.w	r8, [sp, #20]
 8004f02:	eb0b 1b4a 	add.w	fp, fp, sl, lsl #5
 8004f06:	eba1 0c03 	sub.w	ip, r1, r3
 8004f0a:	4562      	cmp	r2, ip
 8004f0c:	f8db 6018 	ldr.w	r6, [fp, #24]
 8004f10:	bf28      	it	cs
 8004f12:	4662      	movcs	r2, ip
 8004f14:	b2b6      	uxth	r6, r6
 8004f16:	3203      	adds	r2, #3
 8004f18:	ebb6 0f92 	cmp.w	r6, r2, lsr #2
 8004f1c:	d21b      	bcs.n	8004f56 <HAL_PCD_IRQHandler+0x4ce>
 8004f1e:	e082      	b.n	8005026 <HAL_PCD_IRQHandler+0x59e>
 8004f20:	b1f9      	cbz	r1, 8004f62 <HAL_PCD_IRQHandler+0x4da>
 8004f22:	e9d5 3111 	ldrd	r3, r1, [r5, #68]	; 0x44
 8004f26:	429e      	cmp	r6, r3
 8004f28:	bf28      	it	cs
 8004f2a:	461e      	movcs	r6, r3
 8004f2c:	f894 c010 	ldrb.w	ip, [r4, #16]
 8004f30:	f8cd c000 	str.w	ip, [sp]
 8004f34:	b2b3      	uxth	r3, r6
 8004f36:	f002 fbe7 	bl	8007708 <USB_WritePacket>
 8004f3a:	f8db 2018 	ldr.w	r2, [fp, #24]
 8004f3e:	6ca9      	ldr	r1, [r5, #72]	; 0x48
 8004f40:	6d6b      	ldr	r3, [r5, #84]	; 0x54
 8004f42:	4431      	add	r1, r6
 8004f44:	4433      	add	r3, r6
 8004f46:	b292      	uxth	r2, r2
 8004f48:	3603      	adds	r6, #3
 8004f4a:	ebb2 0f96 	cmp.w	r2, r6, lsr #2
 8004f4e:	64a9      	str	r1, [r5, #72]	; 0x48
 8004f50:	656b      	str	r3, [r5, #84]	; 0x54
 8004f52:	d364      	bcc.n	800501e <HAL_PCD_IRQHandler+0x596>
 8004f54:	6d29      	ldr	r1, [r5, #80]	; 0x50
 8004f56:	428b      	cmp	r3, r1
 8004f58:	eba1 0603 	sub.w	r6, r1, r3
 8004f5c:	463a      	mov	r2, r7
 8004f5e:	4640      	mov	r0, r8
 8004f60:	d3de      	bcc.n	8004f20 <HAL_PCD_IRQHandler+0x498>
 8004f62:	f8d4 8000 	ldr.w	r8, [r4]
 8004f66:	9b05      	ldr	r3, [sp, #20]
 8004f68:	2001      	movs	r0, #1
 8004f6a:	f503 6100 	add.w	r1, r3, #2048	; 0x800
 8004f6e:	f00a 020f 	and.w	r2, sl, #15
 8004f72:	f8d3 3834 	ldr.w	r3, [r3, #2100]	; 0x834
 8004f76:	fa00 f202 	lsl.w	r2, r0, r2
 8004f7a:	ea23 0302 	bic.w	r3, r3, r2
 8004f7e:	4640      	mov	r0, r8
 8004f80:	634b      	str	r3, [r1, #52]	; 0x34
 8004f82:	e630      	b.n	8004be6 <HAL_PCD_IRQHandler+0x15e>
 8004f84:	f647 73f0 	movw	r3, #32752	; 0x7ff0
 8004f88:	421d      	tst	r5, r3
 8004f8a:	f43f adaf 	beq.w	8004aec <HAL_PCD_IRQHandler+0x64>
 8004f8e:	ebc7 07c7 	rsb	r7, r7, r7, lsl #3
 8004f92:	eb04 0787 	add.w	r7, r4, r7, lsl #2
 8004f96:	f3c5 120a 	ubfx	r2, r5, #4, #11
 8004f9a:	f8d7 1208 	ldr.w	r1, [r7, #520]	; 0x208
 8004f9e:	4630      	mov	r0, r6
 8004fa0:	f002 fbc8 	bl	8007734 <USB_ReadPacket>
 8004fa4:	f8d7 2208 	ldr.w	r2, [r7, #520]	; 0x208
 8004fa8:	f8d7 3214 	ldr.w	r3, [r7, #532]	; 0x214
 8004fac:	6820      	ldr	r0, [r4, #0]
 8004fae:	f3c5 150a 	ubfx	r5, r5, #4, #11
 8004fb2:	442a      	add	r2, r5
 8004fb4:	442b      	add	r3, r5
 8004fb6:	f8c7 2208 	str.w	r2, [r7, #520]	; 0x208
 8004fba:	f8c7 3214 	str.w	r3, [r7, #532]	; 0x214
 8004fbe:	e595      	b.n	8004aec <HAL_PCD_IRQHandler+0x64>
 8004fc0:	4620      	mov	r0, r4
 8004fc2:	f003 fc77 	bl	80088b4 <HAL_PCD_SuspendCallback>
 8004fc6:	e5e3      	b.n	8004b90 <HAL_PCD_IRQHandler+0x108>
 8004fc8:	4620      	mov	r0, r4
 8004fca:	f003 fc9b 	bl	8008904 <HAL_PCD_DisconnectCallback>
 8004fce:	6823      	ldr	r3, [r4, #0]
 8004fd0:	e5d5      	b.n	8004b7e <HAL_PCD_IRQHandler+0xf6>
 8004fd2:	e9d5 2311 	ldrd	r2, r3, [r5, #68]	; 0x44
 8004fd6:	4413      	add	r3, r2
 8004fd8:	64ab      	str	r3, [r5, #72]	; 0x48
 8004fda:	f1ba 0f00 	cmp.w	sl, #0
 8004fde:	f47f ae2b 	bne.w	8004c38 <HAL_PCD_IRQHandler+0x1b0>
 8004fe2:	6d23      	ldr	r3, [r4, #80]	; 0x50
 8004fe4:	2b00      	cmp	r3, #0
 8004fe6:	f47f ae27 	bne.w	8004c38 <HAL_PCD_IRQHandler+0x1b0>
 8004fea:	6820      	ldr	r0, [r4, #0]
 8004fec:	f504 7271 	add.w	r2, r4, #964	; 0x3c4
 8004ff0:	f002 fc92 	bl	8007918 <USB_EP0_OutStart>
 8004ff4:	e620      	b.n	8004c38 <HAL_PCD_IRQHandler+0x1b0>
 8004ff6:	4620      	mov	r0, r4
 8004ff8:	f003 fc28 	bl	800884c <HAL_PCD_SetupStageCallback>
 8004ffc:	6820      	ldr	r0, [r4, #0]
 8004ffe:	e666      	b.n	8004cce <HAL_PCD_IRQHandler+0x246>
 8005000:	f01e 0f08 	tst.w	lr, #8
 8005004:	d01d      	beq.n	8005042 <HAL_PCD_IRQHandler+0x5ba>
 8005006:	4929      	ldr	r1, [pc, #164]	; (80050ac <HAL_PCD_IRQHandler+0x624>)
 8005008:	428b      	cmp	r3, r1
 800500a:	f67f ae5c 	bls.w	8004cc6 <HAL_PCD_IRQHandler+0x23e>
 800500e:	f41e 4f00 	tst.w	lr, #32768	; 0x8000
 8005012:	f43f ae58 	beq.w	8004cc6 <HAL_PCD_IRQHandler+0x23e>
 8005016:	f44f 4300 	mov.w	r3, #32768	; 0x8000
 800501a:	6093      	str	r3, [r2, #8]
 800501c:	e653      	b.n	8004cc6 <HAL_PCD_IRQHandler+0x23e>
 800501e:	f8d4 8000 	ldr.w	r8, [r4]
 8005022:	6d29      	ldr	r1, [r5, #80]	; 0x50
 8005024:	4640      	mov	r0, r8
 8005026:	428b      	cmp	r3, r1
 8005028:	f4ff addd 	bcc.w	8004be6 <HAL_PCD_IRQHandler+0x15e>
 800502c:	e79b      	b.n	8004f66 <HAL_PCD_IRQHandler+0x4de>
 800502e:	f41e 4f00 	tst.w	lr, #32768	; 0x8000
 8005032:	d1f0      	bne.n	8005016 <HAL_PCD_IRQHandler+0x58e>
 8005034:	f01e 0f20 	tst.w	lr, #32
 8005038:	f43f af50 	beq.w	8004edc <HAL_PCD_IRQHandler+0x454>
 800503c:	2120      	movs	r1, #32
 800503e:	6091      	str	r1, [r2, #8]
 8005040:	e74c      	b.n	8004edc <HAL_PCD_IRQHandler+0x454>
 8005042:	f01e 0f20 	tst.w	lr, #32
 8005046:	d008      	beq.n	800505a <HAL_PCD_IRQHandler+0x5d2>
 8005048:	2320      	movs	r3, #32
 800504a:	6093      	str	r3, [r2, #8]
 800504c:	e63b      	b.n	8004cc6 <HAL_PCD_IRQHandler+0x23e>
 800504e:	6820      	ldr	r0, [r4, #0]
 8005050:	f504 7271 	add.w	r2, r4, #964	; 0x3c4
 8005054:	f002 fc60 	bl	8007918 <USB_EP0_OutStart>
 8005058:	e723      	b.n	8004ea2 <HAL_PCD_IRQHandler+0x41a>
 800505a:	f01e 0f28 	tst.w	lr, #40	; 0x28
 800505e:	f47f ae32 	bne.w	8004cc6 <HAL_PCD_IRQHandler+0x23e>
 8005062:	4912      	ldr	r1, [pc, #72]	; (80050ac <HAL_PCD_IRQHandler+0x624>)
 8005064:	428b      	cmp	r3, r1
 8005066:	d902      	bls.n	800506e <HAL_PCD_IRQHandler+0x5e6>
 8005068:	f41e 4f00 	tst.w	lr, #32768	; 0x8000
 800506c:	d1d3      	bne.n	8005016 <HAL_PCD_IRQHandler+0x58e>
 800506e:	e9d9 3100 	ldrd	r3, r1, [r9]
 8005072:	6912      	ldr	r2, [r2, #16]
 8005074:	f3c2 0212 	ubfx	r2, r2, #0, #19
 8005078:	1a9a      	subs	r2, r3, r2
 800507a:	4419      	add	r1, r3
 800507c:	f8c9 2010 	str.w	r2, [r9, #16]
 8005080:	f8c9 1004 	str.w	r1, [r9, #4]
 8005084:	2f00      	cmp	r7, #0
 8005086:	f47f af29 	bne.w	8004edc <HAL_PCD_IRQHandler+0x454>
 800508a:	f8d4 2210 	ldr.w	r2, [r4, #528]	; 0x210
 800508e:	2a00      	cmp	r2, #0
 8005090:	f47f af24 	bne.w	8004edc <HAL_PCD_IRQHandler+0x454>
 8005094:	f504 7271 	add.w	r2, r4, #964	; 0x3c4
 8005098:	2101      	movs	r1, #1
 800509a:	f002 fc3d 	bl	8007918 <USB_EP0_OutStart>
 800509e:	e71d      	b.n	8004edc <HAL_PCD_IRQHandler+0x454>
 80050a0:	f504 7271 	add.w	r2, r4, #964	; 0x3c4
 80050a4:	4639      	mov	r1, r7
 80050a6:	f002 fc37 	bl	8007918 <USB_EP0_OutStart>
 80050aa:	e717      	b.n	8004edc <HAL_PCD_IRQHandler+0x454>
 80050ac:	4f54300a 	.word	0x4f54300a
 80050b0:	4f54310a 	.word	0x4f54310a

080050b4 <HAL_PCD_SetAddress>:
 80050b4:	f890 23bc 	ldrb.w	r2, [r0, #956]	; 0x3bc
 80050b8:	2a01      	cmp	r2, #1
 80050ba:	d00d      	beq.n	80050d8 <HAL_PCD_SetAddress+0x24>
 80050bc:	b510      	push	{r4, lr}
 80050be:	2201      	movs	r2, #1
 80050c0:	4604      	mov	r4, r0
 80050c2:	f880 1038 	strb.w	r1, [r0, #56]	; 0x38
 80050c6:	f880 23bc 	strb.w	r2, [r0, #956]	; 0x3bc
 80050ca:	6800      	ldr	r0, [r0, #0]
 80050cc:	f002 fbb2 	bl	8007834 <USB_SetDevAddress>
 80050d0:	2000      	movs	r0, #0
 80050d2:	f884 03bc 	strb.w	r0, [r4, #956]	; 0x3bc
 80050d6:	bd10      	pop	{r4, pc}
 80050d8:	2002      	movs	r0, #2
 80050da:	4770      	bx	lr

080050dc <HAL_PCD_EP_Open>:
 80050dc:	b570      	push	{r4, r5, r6, lr}
 80050de:	f001 050f 	and.w	r5, r1, #15
 80050e2:	f011 0f80 	tst.w	r1, #128	; 0x80
 80050e6:	ebc5 01c5 	rsb	r1, r5, r5, lsl #3
 80050ea:	4606      	mov	r6, r0
 80050ec:	eb00 0181 	add.w	r1, r0, r1, lsl #2
 80050f0:	f04f 041c 	mov.w	r4, #28
 80050f4:	d11e      	bne.n	8005134 <HAL_PCD_EP_Open+0x58>
 80050f6:	2000      	movs	r0, #0
 80050f8:	fb04 6405 	mla	r4, r4, r5, r6
 80050fc:	f881 01fd 	strb.w	r0, [r1, #509]	; 0x1fd
 8005100:	f504 71fe 	add.w	r1, r4, #508	; 0x1fc
 8005104:	7848      	ldrb	r0, [r1, #1]
 8005106:	700d      	strb	r5, [r1, #0]
 8005108:	608a      	str	r2, [r1, #8]
 800510a:	70cb      	strb	r3, [r1, #3]
 800510c:	b100      	cbz	r0, 8005110 <HAL_PCD_EP_Open+0x34>
 800510e:	80cd      	strh	r5, [r1, #6]
 8005110:	2b02      	cmp	r3, #2
 8005112:	bf04      	itt	eq
 8005114:	2300      	moveq	r3, #0
 8005116:	710b      	strbeq	r3, [r1, #4]
 8005118:	f896 33bc 	ldrb.w	r3, [r6, #956]	; 0x3bc
 800511c:	2b01      	cmp	r3, #1
 800511e:	d011      	beq.n	8005144 <HAL_PCD_EP_Open+0x68>
 8005120:	2301      	movs	r3, #1
 8005122:	6830      	ldr	r0, [r6, #0]
 8005124:	f886 33bc 	strb.w	r3, [r6, #956]	; 0x3bc
 8005128:	f002 f880 	bl	800722c <USB_ActivateEndpoint>
 800512c:	2000      	movs	r0, #0
 800512e:	f886 03bc 	strb.w	r0, [r6, #956]	; 0x3bc
 8005132:	bd70      	pop	{r4, r5, r6, pc}
 8005134:	2001      	movs	r0, #1
 8005136:	fb04 6405 	mla	r4, r4, r5, r6
 800513a:	f881 003d 	strb.w	r0, [r1, #61]	; 0x3d
 800513e:	f104 013c 	add.w	r1, r4, #60	; 0x3c
 8005142:	e7df      	b.n	8005104 <HAL_PCD_EP_Open+0x28>
 8005144:	2002      	movs	r0, #2
 8005146:	bd70      	pop	{r4, r5, r6, pc}

08005148 <HAL_PCD_EP_Close>:
 8005148:	f001 030f 	and.w	r3, r1, #15
 800514c:	ebc3 02c3 	rsb	r2, r3, r3, lsl #3
 8005150:	f011 0f80 	tst.w	r1, #128	; 0x80
 8005154:	b510      	push	{r4, lr}
 8005156:	eb00 0282 	add.w	r2, r0, r2, lsl #2
 800515a:	4604      	mov	r4, r0
 800515c:	f04f 011c 	mov.w	r1, #28
 8005160:	d115      	bne.n	800518e <HAL_PCD_EP_Close+0x46>
 8005162:	fb01 4103 	mla	r1, r1, r3, r4
 8005166:	f501 71fe 	add.w	r1, r1, #508	; 0x1fc
 800516a:	2000      	movs	r0, #0
 800516c:	f882 01fd 	strb.w	r0, [r2, #509]	; 0x1fd
 8005170:	700b      	strb	r3, [r1, #0]
 8005172:	f894 33bc 	ldrb.w	r3, [r4, #956]	; 0x3bc
 8005176:	2b01      	cmp	r3, #1
 8005178:	d014      	beq.n	80051a4 <HAL_PCD_EP_Close+0x5c>
 800517a:	2301      	movs	r3, #1
 800517c:	6820      	ldr	r0, [r4, #0]
 800517e:	f884 33bc 	strb.w	r3, [r4, #956]	; 0x3bc
 8005182:	f002 f89f 	bl	80072c4 <USB_DeactivateEndpoint>
 8005186:	2000      	movs	r0, #0
 8005188:	f884 03bc 	strb.w	r0, [r4, #956]	; 0x3bc
 800518c:	bd10      	pop	{r4, pc}
 800518e:	fb01 4103 	mla	r1, r1, r3, r4
 8005192:	313c      	adds	r1, #60	; 0x3c
 8005194:	2001      	movs	r0, #1
 8005196:	f882 003d 	strb.w	r0, [r2, #61]	; 0x3d
 800519a:	700b      	strb	r3, [r1, #0]
 800519c:	f894 33bc 	ldrb.w	r3, [r4, #956]	; 0x3bc
 80051a0:	2b01      	cmp	r3, #1
 80051a2:	d1ea      	bne.n	800517a <HAL_PCD_EP_Close+0x32>
 80051a4:	2002      	movs	r0, #2
 80051a6:	bd10      	pop	{r4, pc}

080051a8 <HAL_PCD_EP_Receive>:
 80051a8:	b538      	push	{r3, r4, r5, lr}
 80051aa:	f001 050f 	and.w	r5, r1, #15
 80051ae:	ebc5 04c5 	rsb	r4, r5, r5, lsl #3
 80051b2:	eb00 0484 	add.w	r4, r0, r4, lsl #2
 80051b6:	2100      	movs	r1, #0
 80051b8:	f8c4 2208 	str.w	r2, [r4, #520]	; 0x208
 80051bc:	f8c4 1214 	str.w	r1, [r4, #532]	; 0x214
 80051c0:	f884 11fd 	strb.w	r1, [r4, #509]	; 0x1fd
 80051c4:	f8c4 3210 	str.w	r3, [r4, #528]	; 0x210
 80051c8:	f884 51fc 	strb.w	r5, [r4, #508]	; 0x1fc
 80051cc:	6903      	ldr	r3, [r0, #16]
 80051ce:	211c      	movs	r1, #28
 80051d0:	fb01 0105 	mla	r1, r1, r5, r0
 80051d4:	2b01      	cmp	r3, #1
 80051d6:	bf08      	it	eq
 80051d8:	f8c4 220c 	streq.w	r2, [r4, #524]	; 0x20c
 80051dc:	6800      	ldr	r0, [r0, #0]
 80051de:	f501 71fe 	add.w	r1, r1, #508	; 0x1fc
 80051e2:	b2da      	uxtb	r2, r3
 80051e4:	b91d      	cbnz	r5, 80051ee <HAL_PCD_EP_Receive+0x46>
 80051e6:	f002 f9e5 	bl	80075b4 <USB_EP0StartXfer>
 80051ea:	2000      	movs	r0, #0
 80051ec:	bd38      	pop	{r3, r4, r5, pc}
 80051ee:	f002 f8cb 	bl	8007388 <USB_EPStartXfer>
 80051f2:	2000      	movs	r0, #0
 80051f4:	bd38      	pop	{r3, r4, r5, pc}
 80051f6:	bf00      	nop

080051f8 <HAL_PCD_EP_GetRxCount>:
 80051f8:	f001 010f 	and.w	r1, r1, #15
 80051fc:	ebc1 01c1 	rsb	r1, r1, r1, lsl #3
 8005200:	eb00 0181 	add.w	r1, r0, r1, lsl #2
 8005204:	f8d1 0214 	ldr.w	r0, [r1, #532]	; 0x214
 8005208:	4770      	bx	lr
 800520a:	bf00      	nop

0800520c <HAL_PCD_EP_Transmit>:
 800520c:	b570      	push	{r4, r5, r6, lr}
 800520e:	f001 050f 	and.w	r5, r1, #15
 8005212:	ebc5 04c5 	rsb	r4, r5, r5, lsl #3
 8005216:	eb00 0484 	add.w	r4, r0, r4, lsl #2
 800521a:	2101      	movs	r1, #1
 800521c:	2600      	movs	r6, #0
 800521e:	64a2      	str	r2, [r4, #72]	; 0x48
 8005220:	f884 103d 	strb.w	r1, [r4, #61]	; 0x3d
 8005224:	6523      	str	r3, [r4, #80]	; 0x50
 8005226:	f884 503c 	strb.w	r5, [r4, #60]	; 0x3c
 800522a:	6566      	str	r6, [r4, #84]	; 0x54
 800522c:	6903      	ldr	r3, [r0, #16]
 800522e:	211c      	movs	r1, #28
 8005230:	fb01 0105 	mla	r1, r1, r5, r0
 8005234:	2b01      	cmp	r3, #1
 8005236:	bf08      	it	eq
 8005238:	64e2      	streq	r2, [r4, #76]	; 0x4c
 800523a:	6800      	ldr	r0, [r0, #0]
 800523c:	313c      	adds	r1, #60	; 0x3c
 800523e:	b2da      	uxtb	r2, r3
 8005240:	b91d      	cbnz	r5, 800524a <HAL_PCD_EP_Transmit+0x3e>
 8005242:	f002 f9b7 	bl	80075b4 <USB_EP0StartXfer>
 8005246:	2000      	movs	r0, #0
 8005248:	bd70      	pop	{r4, r5, r6, pc}
 800524a:	f002 f89d 	bl	8007388 <USB_EPStartXfer>
 800524e:	2000      	movs	r0, #0
 8005250:	bd70      	pop	{r4, r5, r6, pc}
 8005252:	bf00      	nop

08005254 <HAL_PCD_EP_SetStall>:
 8005254:	b538      	push	{r3, r4, r5, lr}
 8005256:	6843      	ldr	r3, [r0, #4]
 8005258:	f001 050f 	and.w	r5, r1, #15
 800525c:	429d      	cmp	r5, r3
 800525e:	d833      	bhi.n	80052c8 <HAL_PCD_EP_SetStall+0x74>
 8005260:	060b      	lsls	r3, r1, #24
 8005262:	4604      	mov	r4, r0
 8005264:	d41c      	bmi.n	80052a0 <HAL_PCD_EP_SetStall+0x4c>
 8005266:	ebc1 03c1 	rsb	r3, r1, r1, lsl #3
 800526a:	eb00 0383 	add.w	r3, r0, r3, lsl #2
 800526e:	201c      	movs	r0, #28
 8005270:	fb00 4101 	mla	r1, r0, r1, r4
 8005274:	2200      	movs	r2, #0
 8005276:	f501 71fe 	add.w	r1, r1, #508	; 0x1fc
 800527a:	f883 21fd 	strb.w	r2, [r3, #509]	; 0x1fd
 800527e:	2301      	movs	r3, #1
 8005280:	700d      	strb	r5, [r1, #0]
 8005282:	708b      	strb	r3, [r1, #2]
 8005284:	f894 23bc 	ldrb.w	r2, [r4, #956]	; 0x3bc
 8005288:	429a      	cmp	r2, r3
 800528a:	d01b      	beq.n	80052c4 <HAL_PCD_EP_SetStall+0x70>
 800528c:	6820      	ldr	r0, [r4, #0]
 800528e:	f884 33bc 	strb.w	r3, [r4, #956]	; 0x3bc
 8005292:	f002 fa75 	bl	8007780 <USB_EPSetStall>
 8005296:	b1cd      	cbz	r5, 80052cc <HAL_PCD_EP_SetStall+0x78>
 8005298:	2000      	movs	r0, #0
 800529a:	f884 03bc 	strb.w	r0, [r4, #956]	; 0x3bc
 800529e:	bd38      	pop	{r3, r4, r5, pc}
 80052a0:	ebc5 03c5 	rsb	r3, r5, r5, lsl #3
 80052a4:	211c      	movs	r1, #28
 80052a6:	fb01 0105 	mla	r1, r1, r5, r0
 80052aa:	eb00 0383 	add.w	r3, r0, r3, lsl #2
 80052ae:	2201      	movs	r2, #1
 80052b0:	313c      	adds	r1, #60	; 0x3c
 80052b2:	f883 203d 	strb.w	r2, [r3, #61]	; 0x3d
 80052b6:	2301      	movs	r3, #1
 80052b8:	700d      	strb	r5, [r1, #0]
 80052ba:	708b      	strb	r3, [r1, #2]
 80052bc:	f894 23bc 	ldrb.w	r2, [r4, #956]	; 0x3bc
 80052c0:	429a      	cmp	r2, r3
 80052c2:	d1e3      	bne.n	800528c <HAL_PCD_EP_SetStall+0x38>
 80052c4:	2002      	movs	r0, #2
 80052c6:	bd38      	pop	{r3, r4, r5, pc}
 80052c8:	2001      	movs	r0, #1
 80052ca:	bd38      	pop	{r3, r4, r5, pc}
 80052cc:	7c21      	ldrb	r1, [r4, #16]
 80052ce:	6820      	ldr	r0, [r4, #0]
 80052d0:	f504 7271 	add.w	r2, r4, #964	; 0x3c4
 80052d4:	f002 fb20 	bl	8007918 <USB_EP0_OutStart>
 80052d8:	e7de      	b.n	8005298 <HAL_PCD_EP_SetStall+0x44>
 80052da:	bf00      	nop

080052dc <HAL_PCD_EP_ClrStall>:
 80052dc:	6842      	ldr	r2, [r0, #4]
 80052de:	b538      	push	{r3, r4, r5, lr}
 80052e0:	f001 030f 	and.w	r3, r1, #15
 80052e4:	4293      	cmp	r3, r2
 80052e6:	d830      	bhi.n	800534a <HAL_PCD_EP_ClrStall+0x6e>
 80052e8:	ebc3 02c3 	rsb	r2, r3, r3, lsl #3
 80052ec:	f011 0f80 	tst.w	r1, #128	; 0x80
 80052f0:	4604      	mov	r4, r0
 80052f2:	eb00 0282 	add.w	r2, r0, r2, lsl #2
 80052f6:	f04f 011c 	mov.w	r1, #28
 80052fa:	d117      	bne.n	800532c <HAL_PCD_EP_ClrStall+0x50>
 80052fc:	fb01 4103 	mla	r1, r1, r3, r4
 8005300:	f501 71fe 	add.w	r1, r1, #508	; 0x1fc
 8005304:	2000      	movs	r0, #0
 8005306:	2500      	movs	r5, #0
 8005308:	f882 01fd 	strb.w	r0, [r2, #509]	; 0x1fd
 800530c:	700b      	strb	r3, [r1, #0]
 800530e:	708d      	strb	r5, [r1, #2]
 8005310:	f894 33bc 	ldrb.w	r3, [r4, #956]	; 0x3bc
 8005314:	2b01      	cmp	r3, #1
 8005316:	d016      	beq.n	8005346 <HAL_PCD_EP_ClrStall+0x6a>
 8005318:	2301      	movs	r3, #1
 800531a:	6820      	ldr	r0, [r4, #0]
 800531c:	f884 33bc 	strb.w	r3, [r4, #956]	; 0x3bc
 8005320:	f002 fa5c 	bl	80077dc <USB_EPClearStall>
 8005324:	f884 53bc 	strb.w	r5, [r4, #956]	; 0x3bc
 8005328:	4628      	mov	r0, r5
 800532a:	bd38      	pop	{r3, r4, r5, pc}
 800532c:	fb01 4103 	mla	r1, r1, r3, r4
 8005330:	313c      	adds	r1, #60	; 0x3c
 8005332:	2001      	movs	r0, #1
 8005334:	2500      	movs	r5, #0
 8005336:	f882 003d 	strb.w	r0, [r2, #61]	; 0x3d
 800533a:	700b      	strb	r3, [r1, #0]
 800533c:	708d      	strb	r5, [r1, #2]
 800533e:	f894 33bc 	ldrb.w	r3, [r4, #956]	; 0x3bc
 8005342:	2b01      	cmp	r3, #1
 8005344:	d1e8      	bne.n	8005318 <HAL_PCD_EP_ClrStall+0x3c>
 8005346:	2002      	movs	r0, #2
 8005348:	bd38      	pop	{r3, r4, r5, pc}
 800534a:	2001      	movs	r0, #1
 800534c:	bd38      	pop	{r3, r4, r5, pc}
 800534e:	bf00      	nop

08005350 <HAL_PCDEx_SetTxFiFo>:
 8005350:	b430      	push	{r4, r5}
 8005352:	6805      	ldr	r5, [r0, #0]
 8005354:	6a6b      	ldr	r3, [r5, #36]	; 0x24
 8005356:	b929      	cbnz	r1, 8005364 <HAL_PCDEx_SetTxFiFo+0x14>
 8005358:	ea43 4302 	orr.w	r3, r3, r2, lsl #16
 800535c:	62ab      	str	r3, [r5, #40]	; 0x28
 800535e:	2000      	movs	r0, #0
 8005360:	bc30      	pop	{r4, r5}
 8005362:	4770      	bx	lr
 8005364:	6aa8      	ldr	r0, [r5, #40]	; 0x28
 8005366:	1e4c      	subs	r4, r1, #1
 8005368:	eb03 4010 	add.w	r0, r3, r0, lsr #16
 800536c:	d00b      	beq.n	8005386 <HAL_PCDEx_SetTxFiFo+0x36>
 800536e:	2300      	movs	r3, #0
 8005370:	f103 0140 	add.w	r1, r3, #64	; 0x40
 8005374:	eb05 0181 	add.w	r1, r5, r1, lsl #2
 8005378:	3301      	adds	r3, #1
 800537a:	6849      	ldr	r1, [r1, #4]
 800537c:	b2db      	uxtb	r3, r3
 800537e:	42a3      	cmp	r3, r4
 8005380:	eb00 4011 	add.w	r0, r0, r1, lsr #16
 8005384:	d3f4      	bcc.n	8005370 <HAL_PCDEx_SetTxFiFo+0x20>
 8005386:	3440      	adds	r4, #64	; 0x40
 8005388:	eb05 0484 	add.w	r4, r5, r4, lsl #2
 800538c:	ea40 4002 	orr.w	r0, r0, r2, lsl #16
 8005390:	6060      	str	r0, [r4, #4]
 8005392:	2000      	movs	r0, #0
 8005394:	bc30      	pop	{r4, r5}
 8005396:	4770      	bx	lr

08005398 <HAL_PCDEx_SetRxFiFo>:
 8005398:	6803      	ldr	r3, [r0, #0]
 800539a:	2000      	movs	r0, #0
 800539c:	6259      	str	r1, [r3, #36]	; 0x24
 800539e:	4770      	bx	lr

080053a0 <HAL_PCDEx_LPM_Callback>:
 80053a0:	4770      	bx	lr
 80053a2:	bf00      	nop

080053a4 <HAL_RCC_OscConfig>:
 80053a4:	2800      	cmp	r0, #0
 80053a6:	f000 81a5 	beq.w	80056f4 <HAL_RCC_OscConfig+0x350>
 80053aa:	e92d 41f0 	stmdb	sp!, {r4, r5, r6, r7, r8, lr}
 80053ae:	6803      	ldr	r3, [r0, #0]
 80053b0:	07dd      	lsls	r5, r3, #31
 80053b2:	b082      	sub	sp, #8
 80053b4:	4604      	mov	r4, r0
 80053b6:	d52f      	bpl.n	8005418 <HAL_RCC_OscConfig+0x74>
 80053b8:	49ac      	ldr	r1, [pc, #688]	; (800566c <HAL_RCC_OscConfig+0x2c8>)
 80053ba:	688a      	ldr	r2, [r1, #8]
 80053bc:	f002 020c 	and.w	r2, r2, #12
 80053c0:	2a04      	cmp	r2, #4
 80053c2:	f000 80ec 	beq.w	800559e <HAL_RCC_OscConfig+0x1fa>
 80053c6:	688a      	ldr	r2, [r1, #8]
 80053c8:	f002 020c 	and.w	r2, r2, #12
 80053cc:	2a08      	cmp	r2, #8
 80053ce:	f000 80e2 	beq.w	8005596 <HAL_RCC_OscConfig+0x1f2>
 80053d2:	6863      	ldr	r3, [r4, #4]
 80053d4:	f5b3 3f80 	cmp.w	r3, #65536	; 0x10000
 80053d8:	f000 80eb 	beq.w	80055b2 <HAL_RCC_OscConfig+0x20e>
 80053dc:	f5b3 2fa0 	cmp.w	r3, #327680	; 0x50000
 80053e0:	f000 8178 	beq.w	80056d4 <HAL_RCC_OscConfig+0x330>
 80053e4:	4da1      	ldr	r5, [pc, #644]	; (800566c <HAL_RCC_OscConfig+0x2c8>)
 80053e6:	682a      	ldr	r2, [r5, #0]
 80053e8:	f422 3280 	bic.w	r2, r2, #65536	; 0x10000
 80053ec:	602a      	str	r2, [r5, #0]
 80053ee:	682a      	ldr	r2, [r5, #0]
 80053f0:	f422 2280 	bic.w	r2, r2, #262144	; 0x40000
 80053f4:	602a      	str	r2, [r5, #0]
 80053f6:	2b00      	cmp	r3, #0
 80053f8:	f040 80e0 	bne.w	80055bc <HAL_RCC_OscConfig+0x218>
 80053fc:	f7fe fd3e 	bl	8003e7c <HAL_GetTick>
 8005400:	4606      	mov	r6, r0
 8005402:	e005      	b.n	8005410 <HAL_RCC_OscConfig+0x6c>
 8005404:	f7fe fd3a 	bl	8003e7c <HAL_GetTick>
 8005408:	1b80      	subs	r0, r0, r6
 800540a:	2864      	cmp	r0, #100	; 0x64
 800540c:	f200 8100 	bhi.w	8005610 <HAL_RCC_OscConfig+0x26c>
 8005410:	682b      	ldr	r3, [r5, #0]
 8005412:	039b      	lsls	r3, r3, #14
 8005414:	d4f6      	bmi.n	8005404 <HAL_RCC_OscConfig+0x60>
 8005416:	6823      	ldr	r3, [r4, #0]
 8005418:	079f      	lsls	r7, r3, #30
 800541a:	d528      	bpl.n	800546e <HAL_RCC_OscConfig+0xca>
 800541c:	4a93      	ldr	r2, [pc, #588]	; (800566c <HAL_RCC_OscConfig+0x2c8>)
 800541e:	6891      	ldr	r1, [r2, #8]
 8005420:	f011 0f0c 	tst.w	r1, #12
 8005424:	f000 8090 	beq.w	8005548 <HAL_RCC_OscConfig+0x1a4>
 8005428:	6891      	ldr	r1, [r2, #8]
 800542a:	f001 010c 	and.w	r1, r1, #12
 800542e:	2908      	cmp	r1, #8
 8005430:	f000 8086 	beq.w	8005540 <HAL_RCC_OscConfig+0x19c>
 8005434:	68e3      	ldr	r3, [r4, #12]
 8005436:	2b00      	cmp	r3, #0
 8005438:	f000 8106 	beq.w	8005648 <HAL_RCC_OscConfig+0x2a4>
 800543c:	4b8c      	ldr	r3, [pc, #560]	; (8005670 <HAL_RCC_OscConfig+0x2cc>)
 800543e:	4e8b      	ldr	r6, [pc, #556]	; (800566c <HAL_RCC_OscConfig+0x2c8>)
 8005440:	2201      	movs	r2, #1
 8005442:	601a      	str	r2, [r3, #0]
 8005444:	f7fe fd1a 	bl	8003e7c <HAL_GetTick>
 8005448:	4605      	mov	r5, r0
 800544a:	e005      	b.n	8005458 <HAL_RCC_OscConfig+0xb4>
 800544c:	f7fe fd16 	bl	8003e7c <HAL_GetTick>
 8005450:	1b40      	subs	r0, r0, r5
 8005452:	2802      	cmp	r0, #2
 8005454:	f200 80dc 	bhi.w	8005610 <HAL_RCC_OscConfig+0x26c>
 8005458:	6833      	ldr	r3, [r6, #0]
 800545a:	0798      	lsls	r0, r3, #30
 800545c:	d5f6      	bpl.n	800544c <HAL_RCC_OscConfig+0xa8>
 800545e:	6833      	ldr	r3, [r6, #0]
 8005460:	6922      	ldr	r2, [r4, #16]
 8005462:	f023 03f8 	bic.w	r3, r3, #248	; 0xf8
 8005466:	ea43 03c2 	orr.w	r3, r3, r2, lsl #3
 800546a:	6033      	str	r3, [r6, #0]
 800546c:	6823      	ldr	r3, [r4, #0]
 800546e:	071a      	lsls	r2, r3, #28
 8005470:	d452      	bmi.n	8005518 <HAL_RCC_OscConfig+0x174>
 8005472:	0758      	lsls	r0, r3, #29
 8005474:	d52f      	bpl.n	80054d6 <HAL_RCC_OscConfig+0x132>
 8005476:	4a7d      	ldr	r2, [pc, #500]	; (800566c <HAL_RCC_OscConfig+0x2c8>)
 8005478:	6c13      	ldr	r3, [r2, #64]	; 0x40
 800547a:	f013 5380 	ands.w	r3, r3, #268435456	; 0x10000000
 800547e:	d07e      	beq.n	800557e <HAL_RCC_OscConfig+0x1da>
 8005480:	2500      	movs	r5, #0
 8005482:	4e7c      	ldr	r6, [pc, #496]	; (8005674 <HAL_RCC_OscConfig+0x2d0>)
 8005484:	6833      	ldr	r3, [r6, #0]
 8005486:	05d9      	lsls	r1, r3, #23
 8005488:	f140 80b2 	bpl.w	80055f0 <HAL_RCC_OscConfig+0x24c>
 800548c:	68a3      	ldr	r3, [r4, #8]
 800548e:	2b01      	cmp	r3, #1
 8005490:	f000 80c2 	beq.w	8005618 <HAL_RCC_OscConfig+0x274>
 8005494:	2b05      	cmp	r3, #5
 8005496:	f000 812f 	beq.w	80056f8 <HAL_RCC_OscConfig+0x354>
 800549a:	4e74      	ldr	r6, [pc, #464]	; (800566c <HAL_RCC_OscConfig+0x2c8>)
 800549c:	6f32      	ldr	r2, [r6, #112]	; 0x70
 800549e:	f022 0201 	bic.w	r2, r2, #1
 80054a2:	6732      	str	r2, [r6, #112]	; 0x70
 80054a4:	6f32      	ldr	r2, [r6, #112]	; 0x70
 80054a6:	f022 0204 	bic.w	r2, r2, #4
 80054aa:	6732      	str	r2, [r6, #112]	; 0x70
 80054ac:	2b00      	cmp	r3, #0
 80054ae:	f040 80b8 	bne.w	8005622 <HAL_RCC_OscConfig+0x27e>
 80054b2:	f7fe fce3 	bl	8003e7c <HAL_GetTick>
 80054b6:	f241 3888 	movw	r8, #5000	; 0x1388
 80054ba:	4607      	mov	r7, r0
 80054bc:	e005      	b.n	80054ca <HAL_RCC_OscConfig+0x126>
 80054be:	f7fe fcdd 	bl	8003e7c <HAL_GetTick>
 80054c2:	1bc0      	subs	r0, r0, r7
 80054c4:	4540      	cmp	r0, r8
 80054c6:	f200 80a3 	bhi.w	8005610 <HAL_RCC_OscConfig+0x26c>
 80054ca:	6f33      	ldr	r3, [r6, #112]	; 0x70
 80054cc:	0798      	lsls	r0, r3, #30
 80054ce:	d4f6      	bmi.n	80054be <HAL_RCC_OscConfig+0x11a>
 80054d0:	2d00      	cmp	r5, #0
 80054d2:	f040 8109 	bne.w	80056e8 <HAL_RCC_OscConfig+0x344>
 80054d6:	69a0      	ldr	r0, [r4, #24]
 80054d8:	b1d0      	cbz	r0, 8005510 <HAL_RCC_OscConfig+0x16c>
 80054da:	4d64      	ldr	r5, [pc, #400]	; (800566c <HAL_RCC_OscConfig+0x2c8>)
 80054dc:	68ab      	ldr	r3, [r5, #8]
 80054de:	f003 030c 	and.w	r3, r3, #12
 80054e2:	2b08      	cmp	r3, #8
 80054e4:	f000 80cc 	beq.w	8005680 <HAL_RCC_OscConfig+0x2dc>
 80054e8:	4b63      	ldr	r3, [pc, #396]	; (8005678 <HAL_RCC_OscConfig+0x2d4>)
 80054ea:	2200      	movs	r2, #0
 80054ec:	2802      	cmp	r0, #2
 80054ee:	601a      	str	r2, [r3, #0]
 80054f0:	f000 810c 	beq.w	800570c <HAL_RCC_OscConfig+0x368>
 80054f4:	f7fe fcc2 	bl	8003e7c <HAL_GetTick>
 80054f8:	462c      	mov	r4, r5
 80054fa:	4605      	mov	r5, r0
 80054fc:	e005      	b.n	800550a <HAL_RCC_OscConfig+0x166>
 80054fe:	f7fe fcbd 	bl	8003e7c <HAL_GetTick>
 8005502:	1b40      	subs	r0, r0, r5
 8005504:	2802      	cmp	r0, #2
 8005506:	f200 8083 	bhi.w	8005610 <HAL_RCC_OscConfig+0x26c>
 800550a:	6823      	ldr	r3, [r4, #0]
 800550c:	019b      	lsls	r3, r3, #6
 800550e:	d4f6      	bmi.n	80054fe <HAL_RCC_OscConfig+0x15a>
 8005510:	2000      	movs	r0, #0
 8005512:	b002      	add	sp, #8
 8005514:	e8bd 81f0 	ldmia.w	sp!, {r4, r5, r6, r7, r8, pc}
 8005518:	6963      	ldr	r3, [r4, #20]
 800551a:	b303      	cbz	r3, 800555e <HAL_RCC_OscConfig+0x1ba>
 800551c:	4b57      	ldr	r3, [pc, #348]	; (800567c <HAL_RCC_OscConfig+0x2d8>)
 800551e:	4e53      	ldr	r6, [pc, #332]	; (800566c <HAL_RCC_OscConfig+0x2c8>)
 8005520:	2201      	movs	r2, #1
 8005522:	601a      	str	r2, [r3, #0]
 8005524:	f7fe fcaa 	bl	8003e7c <HAL_GetTick>
 8005528:	4605      	mov	r5, r0
 800552a:	e004      	b.n	8005536 <HAL_RCC_OscConfig+0x192>
 800552c:	f7fe fca6 	bl	8003e7c <HAL_GetTick>
 8005530:	1b40      	subs	r0, r0, r5
 8005532:	2802      	cmp	r0, #2
 8005534:	d86c      	bhi.n	8005610 <HAL_RCC_OscConfig+0x26c>
 8005536:	6f73      	ldr	r3, [r6, #116]	; 0x74
 8005538:	079b      	lsls	r3, r3, #30
 800553a:	d5f7      	bpl.n	800552c <HAL_RCC_OscConfig+0x188>
 800553c:	6823      	ldr	r3, [r4, #0]
 800553e:	e798      	b.n	8005472 <HAL_RCC_OscConfig+0xce>
 8005540:	6852      	ldr	r2, [r2, #4]
 8005542:	0256      	lsls	r6, r2, #9
 8005544:	f53f af76 	bmi.w	8005434 <HAL_RCC_OscConfig+0x90>
 8005548:	4a48      	ldr	r2, [pc, #288]	; (800566c <HAL_RCC_OscConfig+0x2c8>)
 800554a:	6812      	ldr	r2, [r2, #0]
 800554c:	0795      	lsls	r5, r2, #30
 800554e:	d543      	bpl.n	80055d8 <HAL_RCC_OscConfig+0x234>
 8005550:	68e2      	ldr	r2, [r4, #12]
 8005552:	2a01      	cmp	r2, #1
 8005554:	d040      	beq.n	80055d8 <HAL_RCC_OscConfig+0x234>
 8005556:	2001      	movs	r0, #1
 8005558:	b002      	add	sp, #8
 800555a:	e8bd 81f0 	ldmia.w	sp!, {r4, r5, r6, r7, r8, pc}
 800555e:	4a47      	ldr	r2, [pc, #284]	; (800567c <HAL_RCC_OscConfig+0x2d8>)
 8005560:	4e42      	ldr	r6, [pc, #264]	; (800566c <HAL_RCC_OscConfig+0x2c8>)
 8005562:	6013      	str	r3, [r2, #0]
 8005564:	f7fe fc8a 	bl	8003e7c <HAL_GetTick>
 8005568:	4605      	mov	r5, r0
 800556a:	e004      	b.n	8005576 <HAL_RCC_OscConfig+0x1d2>
 800556c:	f7fe fc86 	bl	8003e7c <HAL_GetTick>
 8005570:	1b40      	subs	r0, r0, r5
 8005572:	2802      	cmp	r0, #2
 8005574:	d84c      	bhi.n	8005610 <HAL_RCC_OscConfig+0x26c>
 8005576:	6f73      	ldr	r3, [r6, #116]	; 0x74
 8005578:	079f      	lsls	r7, r3, #30
 800557a:	d4f7      	bmi.n	800556c <HAL_RCC_OscConfig+0x1c8>
 800557c:	e7de      	b.n	800553c <HAL_RCC_OscConfig+0x198>
 800557e:	9301      	str	r3, [sp, #4]
 8005580:	6c13      	ldr	r3, [r2, #64]	; 0x40
 8005582:	f043 5380 	orr.w	r3, r3, #268435456	; 0x10000000
 8005586:	6413      	str	r3, [r2, #64]	; 0x40
 8005588:	6c13      	ldr	r3, [r2, #64]	; 0x40
 800558a:	f003 5380 	and.w	r3, r3, #268435456	; 0x10000000
 800558e:	9301      	str	r3, [sp, #4]
 8005590:	9b01      	ldr	r3, [sp, #4]
 8005592:	2501      	movs	r5, #1
 8005594:	e775      	b.n	8005482 <HAL_RCC_OscConfig+0xde>
 8005596:	684a      	ldr	r2, [r1, #4]
 8005598:	0250      	lsls	r0, r2, #9
 800559a:	f57f af1a 	bpl.w	80053d2 <HAL_RCC_OscConfig+0x2e>
 800559e:	4a33      	ldr	r2, [pc, #204]	; (800566c <HAL_RCC_OscConfig+0x2c8>)
 80055a0:	6812      	ldr	r2, [r2, #0]
 80055a2:	0391      	lsls	r1, r2, #14
 80055a4:	f57f af38 	bpl.w	8005418 <HAL_RCC_OscConfig+0x74>
 80055a8:	6862      	ldr	r2, [r4, #4]
 80055aa:	2a00      	cmp	r2, #0
 80055ac:	f47f af34 	bne.w	8005418 <HAL_RCC_OscConfig+0x74>
 80055b0:	e7d1      	b.n	8005556 <HAL_RCC_OscConfig+0x1b2>
 80055b2:	4a2e      	ldr	r2, [pc, #184]	; (800566c <HAL_RCC_OscConfig+0x2c8>)
 80055b4:	6813      	ldr	r3, [r2, #0]
 80055b6:	f443 3380 	orr.w	r3, r3, #65536	; 0x10000
 80055ba:	6013      	str	r3, [r2, #0]
 80055bc:	f7fe fc5e 	bl	8003e7c <HAL_GetTick>
 80055c0:	4e2a      	ldr	r6, [pc, #168]	; (800566c <HAL_RCC_OscConfig+0x2c8>)
 80055c2:	4605      	mov	r5, r0
 80055c4:	e004      	b.n	80055d0 <HAL_RCC_OscConfig+0x22c>
 80055c6:	f7fe fc59 	bl	8003e7c <HAL_GetTick>
 80055ca:	1b40      	subs	r0, r0, r5
 80055cc:	2864      	cmp	r0, #100	; 0x64
 80055ce:	d81f      	bhi.n	8005610 <HAL_RCC_OscConfig+0x26c>
 80055d0:	6833      	ldr	r3, [r6, #0]
 80055d2:	039a      	lsls	r2, r3, #14
 80055d4:	d5f7      	bpl.n	80055c6 <HAL_RCC_OscConfig+0x222>
 80055d6:	e71e      	b.n	8005416 <HAL_RCC_OscConfig+0x72>
 80055d8:	4924      	ldr	r1, [pc, #144]	; (800566c <HAL_RCC_OscConfig+0x2c8>)
 80055da:	6920      	ldr	r0, [r4, #16]
 80055dc:	680a      	ldr	r2, [r1, #0]
 80055de:	f022 02f8 	bic.w	r2, r2, #248	; 0xf8
 80055e2:	ea42 02c0 	orr.w	r2, r2, r0, lsl #3
 80055e6:	600a      	str	r2, [r1, #0]
 80055e8:	071a      	lsls	r2, r3, #28
 80055ea:	f57f af42 	bpl.w	8005472 <HAL_RCC_OscConfig+0xce>
 80055ee:	e793      	b.n	8005518 <HAL_RCC_OscConfig+0x174>
 80055f0:	6833      	ldr	r3, [r6, #0]
 80055f2:	f443 7380 	orr.w	r3, r3, #256	; 0x100
 80055f6:	6033      	str	r3, [r6, #0]
 80055f8:	f7fe fc40 	bl	8003e7c <HAL_GetTick>
 80055fc:	4607      	mov	r7, r0
 80055fe:	6833      	ldr	r3, [r6, #0]
 8005600:	05da      	lsls	r2, r3, #23
 8005602:	f53f af43 	bmi.w	800548c <HAL_RCC_OscConfig+0xe8>
 8005606:	f7fe fc39 	bl	8003e7c <HAL_GetTick>
 800560a:	1bc0      	subs	r0, r0, r7
 800560c:	2802      	cmp	r0, #2
 800560e:	d9f6      	bls.n	80055fe <HAL_RCC_OscConfig+0x25a>
 8005610:	2003      	movs	r0, #3
 8005612:	b002      	add	sp, #8
 8005614:	e8bd 81f0 	ldmia.w	sp!, {r4, r5, r6, r7, r8, pc}
 8005618:	4a14      	ldr	r2, [pc, #80]	; (800566c <HAL_RCC_OscConfig+0x2c8>)
 800561a:	6f13      	ldr	r3, [r2, #112]	; 0x70
 800561c:	f043 0301 	orr.w	r3, r3, #1
 8005620:	6713      	str	r3, [r2, #112]	; 0x70
 8005622:	f7fe fc2b 	bl	8003e7c <HAL_GetTick>
 8005626:	4f11      	ldr	r7, [pc, #68]	; (800566c <HAL_RCC_OscConfig+0x2c8>)
 8005628:	4606      	mov	r6, r0
 800562a:	f241 3888 	movw	r8, #5000	; 0x1388
 800562e:	e004      	b.n	800563a <HAL_RCC_OscConfig+0x296>
 8005630:	f7fe fc24 	bl	8003e7c <HAL_GetTick>
 8005634:	1b80      	subs	r0, r0, r6
 8005636:	4540      	cmp	r0, r8
 8005638:	d8ea      	bhi.n	8005610 <HAL_RCC_OscConfig+0x26c>
 800563a:	6f3b      	ldr	r3, [r7, #112]	; 0x70
 800563c:	079b      	lsls	r3, r3, #30
 800563e:	d5f7      	bpl.n	8005630 <HAL_RCC_OscConfig+0x28c>
 8005640:	2d00      	cmp	r5, #0
 8005642:	f43f af48 	beq.w	80054d6 <HAL_RCC_OscConfig+0x132>
 8005646:	e04f      	b.n	80056e8 <HAL_RCC_OscConfig+0x344>
 8005648:	4a09      	ldr	r2, [pc, #36]	; (8005670 <HAL_RCC_OscConfig+0x2cc>)
 800564a:	4e08      	ldr	r6, [pc, #32]	; (800566c <HAL_RCC_OscConfig+0x2c8>)
 800564c:	6013      	str	r3, [r2, #0]
 800564e:	f7fe fc15 	bl	8003e7c <HAL_GetTick>
 8005652:	4605      	mov	r5, r0
 8005654:	e004      	b.n	8005660 <HAL_RCC_OscConfig+0x2bc>
 8005656:	f7fe fc11 	bl	8003e7c <HAL_GetTick>
 800565a:	1b40      	subs	r0, r0, r5
 800565c:	2802      	cmp	r0, #2
 800565e:	d8d7      	bhi.n	8005610 <HAL_RCC_OscConfig+0x26c>
 8005660:	6833      	ldr	r3, [r6, #0]
 8005662:	0799      	lsls	r1, r3, #30
 8005664:	d4f7      	bmi.n	8005656 <HAL_RCC_OscConfig+0x2b2>
 8005666:	6823      	ldr	r3, [r4, #0]
 8005668:	e701      	b.n	800546e <HAL_RCC_OscConfig+0xca>
 800566a:	bf00      	nop
 800566c:	40023800 	.word	0x40023800
 8005670:	42470000 	.word	0x42470000
 8005674:	40007000 	.word	0x40007000
 8005678:	42470060 	.word	0x42470060
 800567c:	42470e80 	.word	0x42470e80
 8005680:	2801      	cmp	r0, #1
 8005682:	f43f af46 	beq.w	8005512 <HAL_RCC_OscConfig+0x16e>
 8005686:	686b      	ldr	r3, [r5, #4]
 8005688:	69e2      	ldr	r2, [r4, #28]
 800568a:	f403 0180 	and.w	r1, r3, #4194304	; 0x400000
 800568e:	4291      	cmp	r1, r2
 8005690:	f47f af61 	bne.w	8005556 <HAL_RCC_OscConfig+0x1b2>
 8005694:	6a22      	ldr	r2, [r4, #32]
 8005696:	f003 013f 	and.w	r1, r3, #63	; 0x3f
 800569a:	4291      	cmp	r1, r2
 800569c:	f47f af5b 	bne.w	8005556 <HAL_RCC_OscConfig+0x1b2>
 80056a0:	6a61      	ldr	r1, [r4, #36]	; 0x24
 80056a2:	f647 72c0 	movw	r2, #32704	; 0x7fc0
 80056a6:	401a      	ands	r2, r3
 80056a8:	ebb2 1f81 	cmp.w	r2, r1, lsl #6
 80056ac:	f47f af53 	bne.w	8005556 <HAL_RCC_OscConfig+0x1b2>
 80056b0:	6aa2      	ldr	r2, [r4, #40]	; 0x28
 80056b2:	0852      	lsrs	r2, r2, #1
 80056b4:	3a01      	subs	r2, #1
 80056b6:	f403 3140 	and.w	r1, r3, #196608	; 0x30000
 80056ba:	ebb1 4f02 	cmp.w	r1, r2, lsl #16
 80056be:	f47f af4a 	bne.w	8005556 <HAL_RCC_OscConfig+0x1b2>
 80056c2:	6ae2      	ldr	r2, [r4, #44]	; 0x2c
 80056c4:	f003 6370 	and.w	r3, r3, #251658240	; 0xf000000
 80056c8:	ebb3 6f02 	cmp.w	r3, r2, lsl #24
 80056cc:	bf14      	ite	ne
 80056ce:	2001      	movne	r0, #1
 80056d0:	2000      	moveq	r0, #0
 80056d2:	e71e      	b.n	8005512 <HAL_RCC_OscConfig+0x16e>
 80056d4:	4b24      	ldr	r3, [pc, #144]	; (8005768 <HAL_RCC_OscConfig+0x3c4>)
 80056d6:	681a      	ldr	r2, [r3, #0]
 80056d8:	f442 2280 	orr.w	r2, r2, #262144	; 0x40000
 80056dc:	601a      	str	r2, [r3, #0]
 80056de:	681a      	ldr	r2, [r3, #0]
 80056e0:	f442 3280 	orr.w	r2, r2, #65536	; 0x10000
 80056e4:	601a      	str	r2, [r3, #0]
 80056e6:	e769      	b.n	80055bc <HAL_RCC_OscConfig+0x218>
 80056e8:	4a1f      	ldr	r2, [pc, #124]	; (8005768 <HAL_RCC_OscConfig+0x3c4>)
 80056ea:	6c13      	ldr	r3, [r2, #64]	; 0x40
 80056ec:	f023 5380 	bic.w	r3, r3, #268435456	; 0x10000000
 80056f0:	6413      	str	r3, [r2, #64]	; 0x40
 80056f2:	e6f0      	b.n	80054d6 <HAL_RCC_OscConfig+0x132>
 80056f4:	2001      	movs	r0, #1
 80056f6:	4770      	bx	lr
 80056f8:	4b1b      	ldr	r3, [pc, #108]	; (8005768 <HAL_RCC_OscConfig+0x3c4>)
 80056fa:	6f1a      	ldr	r2, [r3, #112]	; 0x70
 80056fc:	f042 0204 	orr.w	r2, r2, #4
 8005700:	671a      	str	r2, [r3, #112]	; 0x70
 8005702:	6f1a      	ldr	r2, [r3, #112]	; 0x70
 8005704:	f042 0201 	orr.w	r2, r2, #1
 8005708:	671a      	str	r2, [r3, #112]	; 0x70
 800570a:	e78a      	b.n	8005622 <HAL_RCC_OscConfig+0x27e>
 800570c:	f7fe fbb6 	bl	8003e7c <HAL_GetTick>
 8005710:	4606      	mov	r6, r0
 8005712:	e005      	b.n	8005720 <HAL_RCC_OscConfig+0x37c>
 8005714:	f7fe fbb2 	bl	8003e7c <HAL_GetTick>
 8005718:	1b80      	subs	r0, r0, r6
 800571a:	2802      	cmp	r0, #2
 800571c:	f63f af78 	bhi.w	8005610 <HAL_RCC_OscConfig+0x26c>
 8005720:	682b      	ldr	r3, [r5, #0]
 8005722:	0199      	lsls	r1, r3, #6
 8005724:	d4f6      	bmi.n	8005714 <HAL_RCC_OscConfig+0x370>
 8005726:	e9d4 3607 	ldrd	r3, r6, [r4, #28]
 800572a:	e9d4 0209 	ldrd	r0, r2, [r4, #36]	; 0x24
 800572e:	6ae1      	ldr	r1, [r4, #44]	; 0x2c
 8005730:	4333      	orrs	r3, r6
 8005732:	ea43 1380 	orr.w	r3, r3, r0, lsl #6
 8005736:	0852      	lsrs	r2, r2, #1
 8005738:	ea43 6301 	orr.w	r3, r3, r1, lsl #24
 800573c:	3a01      	subs	r2, #1
 800573e:	490b      	ldr	r1, [pc, #44]	; (800576c <HAL_RCC_OscConfig+0x3c8>)
 8005740:	4e09      	ldr	r6, [pc, #36]	; (8005768 <HAL_RCC_OscConfig+0x3c4>)
 8005742:	ea43 4302 	orr.w	r3, r3, r2, lsl #16
 8005746:	2201      	movs	r2, #1
 8005748:	606b      	str	r3, [r5, #4]
 800574a:	600a      	str	r2, [r1, #0]
 800574c:	f7fe fb96 	bl	8003e7c <HAL_GetTick>
 8005750:	4604      	mov	r4, r0
 8005752:	e005      	b.n	8005760 <HAL_RCC_OscConfig+0x3bc>
 8005754:	f7fe fb92 	bl	8003e7c <HAL_GetTick>
 8005758:	1b00      	subs	r0, r0, r4
 800575a:	2802      	cmp	r0, #2
 800575c:	f63f af58 	bhi.w	8005610 <HAL_RCC_OscConfig+0x26c>
 8005760:	6833      	ldr	r3, [r6, #0]
 8005762:	019a      	lsls	r2, r3, #6
 8005764:	d5f6      	bpl.n	8005754 <HAL_RCC_OscConfig+0x3b0>
 8005766:	e6d3      	b.n	8005510 <HAL_RCC_OscConfig+0x16c>
 8005768:	40023800 	.word	0x40023800
 800576c:	42470060 	.word	0x42470060

08005770 <HAL_RCC_GetSysClockFreq>:
 8005770:	4917      	ldr	r1, [pc, #92]	; (80057d0 <HAL_RCC_GetSysClockFreq+0x60>)
 8005772:	b508      	push	{r3, lr}
 8005774:	688b      	ldr	r3, [r1, #8]
 8005776:	f003 030c 	and.w	r3, r3, #12
 800577a:	2b04      	cmp	r3, #4
 800577c:	d01b      	beq.n	80057b6 <HAL_RCC_GetSysClockFreq+0x46>
 800577e:	2b08      	cmp	r3, #8
 8005780:	d117      	bne.n	80057b2 <HAL_RCC_GetSysClockFreq+0x42>
 8005782:	684a      	ldr	r2, [r1, #4]
 8005784:	684b      	ldr	r3, [r1, #4]
 8005786:	f413 0380 	ands.w	r3, r3, #4194304	; 0x400000
 800578a:	f002 023f 	and.w	r2, r2, #63	; 0x3f
 800578e:	d114      	bne.n	80057ba <HAL_RCC_GetSysClockFreq+0x4a>
 8005790:	6849      	ldr	r1, [r1, #4]
 8005792:	4810      	ldr	r0, [pc, #64]	; (80057d4 <HAL_RCC_GetSysClockFreq+0x64>)
 8005794:	f3c1 1188 	ubfx	r1, r1, #6, #9
 8005798:	fba1 0100 	umull	r0, r1, r1, r0
 800579c:	f7fb fa5c 	bl	8000c58 <__aeabi_uldivmod>
 80057a0:	4b0b      	ldr	r3, [pc, #44]	; (80057d0 <HAL_RCC_GetSysClockFreq+0x60>)
 80057a2:	685b      	ldr	r3, [r3, #4]
 80057a4:	f3c3 4301 	ubfx	r3, r3, #16, #2
 80057a8:	3301      	adds	r3, #1
 80057aa:	005b      	lsls	r3, r3, #1
 80057ac:	fbb0 f0f3 	udiv	r0, r0, r3
 80057b0:	bd08      	pop	{r3, pc}
 80057b2:	4808      	ldr	r0, [pc, #32]	; (80057d4 <HAL_RCC_GetSysClockFreq+0x64>)
 80057b4:	bd08      	pop	{r3, pc}
 80057b6:	4808      	ldr	r0, [pc, #32]	; (80057d8 <HAL_RCC_GetSysClockFreq+0x68>)
 80057b8:	bd08      	pop	{r3, pc}
 80057ba:	684b      	ldr	r3, [r1, #4]
 80057bc:	4806      	ldr	r0, [pc, #24]	; (80057d8 <HAL_RCC_GetSysClockFreq+0x68>)
 80057be:	f3c3 1388 	ubfx	r3, r3, #6, #9
 80057c2:	fba3 0100 	umull	r0, r1, r3, r0
 80057c6:	2300      	movs	r3, #0
 80057c8:	f7fb fa46 	bl	8000c58 <__aeabi_uldivmod>
 80057cc:	e7e8      	b.n	80057a0 <HAL_RCC_GetSysClockFreq+0x30>
 80057ce:	bf00      	nop
 80057d0:	40023800 	.word	0x40023800
 80057d4:	00f42400 	.word	0x00f42400
 80057d8:	017d7840 	.word	0x017d7840

080057dc <HAL_RCC_ClockConfig>:
 80057dc:	2800      	cmp	r0, #0
 80057de:	f000 8087 	beq.w	80058f0 <HAL_RCC_ClockConfig+0x114>
 80057e2:	4a48      	ldr	r2, [pc, #288]	; (8005904 <HAL_RCC_ClockConfig+0x128>)
 80057e4:	6813      	ldr	r3, [r2, #0]
 80057e6:	f003 0307 	and.w	r3, r3, #7
 80057ea:	428b      	cmp	r3, r1
 80057ec:	e92d 41f0 	stmdb	sp!, {r4, r5, r6, r7, r8, lr}
 80057f0:	460d      	mov	r5, r1
 80057f2:	4604      	mov	r4, r0
 80057f4:	d209      	bcs.n	800580a <HAL_RCC_ClockConfig+0x2e>
 80057f6:	b2cb      	uxtb	r3, r1
 80057f8:	7013      	strb	r3, [r2, #0]
 80057fa:	6813      	ldr	r3, [r2, #0]
 80057fc:	f003 0307 	and.w	r3, r3, #7
 8005800:	428b      	cmp	r3, r1
 8005802:	d002      	beq.n	800580a <HAL_RCC_ClockConfig+0x2e>
 8005804:	2001      	movs	r0, #1
 8005806:	e8bd 81f0 	ldmia.w	sp!, {r4, r5, r6, r7, r8, pc}
 800580a:	6823      	ldr	r3, [r4, #0]
 800580c:	0798      	lsls	r0, r3, #30
 800580e:	d514      	bpl.n	800583a <HAL_RCC_ClockConfig+0x5e>
 8005810:	0759      	lsls	r1, r3, #29
 8005812:	d504      	bpl.n	800581e <HAL_RCC_ClockConfig+0x42>
 8005814:	493c      	ldr	r1, [pc, #240]	; (8005908 <HAL_RCC_ClockConfig+0x12c>)
 8005816:	688a      	ldr	r2, [r1, #8]
 8005818:	f442 52e0 	orr.w	r2, r2, #7168	; 0x1c00
 800581c:	608a      	str	r2, [r1, #8]
 800581e:	071a      	lsls	r2, r3, #28
 8005820:	d504      	bpl.n	800582c <HAL_RCC_ClockConfig+0x50>
 8005822:	4939      	ldr	r1, [pc, #228]	; (8005908 <HAL_RCC_ClockConfig+0x12c>)
 8005824:	688a      	ldr	r2, [r1, #8]
 8005826:	f442 4260 	orr.w	r2, r2, #57344	; 0xe000
 800582a:	608a      	str	r2, [r1, #8]
 800582c:	4936      	ldr	r1, [pc, #216]	; (8005908 <HAL_RCC_ClockConfig+0x12c>)
 800582e:	68a0      	ldr	r0, [r4, #8]
 8005830:	688a      	ldr	r2, [r1, #8]
 8005832:	f022 02f0 	bic.w	r2, r2, #240	; 0xf0
 8005836:	4302      	orrs	r2, r0
 8005838:	608a      	str	r2, [r1, #8]
 800583a:	07df      	lsls	r7, r3, #31
 800583c:	d521      	bpl.n	8005882 <HAL_RCC_ClockConfig+0xa6>
 800583e:	6862      	ldr	r2, [r4, #4]
 8005840:	2a01      	cmp	r2, #1
 8005842:	d057      	beq.n	80058f4 <HAL_RCC_ClockConfig+0x118>
 8005844:	1e93      	subs	r3, r2, #2
 8005846:	2b01      	cmp	r3, #1
 8005848:	4b2f      	ldr	r3, [pc, #188]	; (8005908 <HAL_RCC_ClockConfig+0x12c>)
 800584a:	681b      	ldr	r3, [r3, #0]
 800584c:	d94d      	bls.n	80058ea <HAL_RCC_ClockConfig+0x10e>
 800584e:	0799      	lsls	r1, r3, #30
 8005850:	d5d8      	bpl.n	8005804 <HAL_RCC_ClockConfig+0x28>
 8005852:	4e2d      	ldr	r6, [pc, #180]	; (8005908 <HAL_RCC_ClockConfig+0x12c>)
 8005854:	68b3      	ldr	r3, [r6, #8]
 8005856:	f023 0303 	bic.w	r3, r3, #3
 800585a:	4313      	orrs	r3, r2
 800585c:	60b3      	str	r3, [r6, #8]
 800585e:	f7fe fb0d 	bl	8003e7c <HAL_GetTick>
 8005862:	f241 3888 	movw	r8, #5000	; 0x1388
 8005866:	4607      	mov	r7, r0
 8005868:	e004      	b.n	8005874 <HAL_RCC_ClockConfig+0x98>
 800586a:	f7fe fb07 	bl	8003e7c <HAL_GetTick>
 800586e:	1bc0      	subs	r0, r0, r7
 8005870:	4540      	cmp	r0, r8
 8005872:	d844      	bhi.n	80058fe <HAL_RCC_ClockConfig+0x122>
 8005874:	68b3      	ldr	r3, [r6, #8]
 8005876:	6862      	ldr	r2, [r4, #4]
 8005878:	f003 030c 	and.w	r3, r3, #12
 800587c:	ebb3 0f82 	cmp.w	r3, r2, lsl #2
 8005880:	d1f3      	bne.n	800586a <HAL_RCC_ClockConfig+0x8e>
 8005882:	4a20      	ldr	r2, [pc, #128]	; (8005904 <HAL_RCC_ClockConfig+0x128>)
 8005884:	6813      	ldr	r3, [r2, #0]
 8005886:	f003 0307 	and.w	r3, r3, #7
 800588a:	42ab      	cmp	r3, r5
 800588c:	d906      	bls.n	800589c <HAL_RCC_ClockConfig+0xc0>
 800588e:	b2eb      	uxtb	r3, r5
 8005890:	7013      	strb	r3, [r2, #0]
 8005892:	6813      	ldr	r3, [r2, #0]
 8005894:	f003 0307 	and.w	r3, r3, #7
 8005898:	42ab      	cmp	r3, r5
 800589a:	d1b3      	bne.n	8005804 <HAL_RCC_ClockConfig+0x28>
 800589c:	6823      	ldr	r3, [r4, #0]
 800589e:	075a      	lsls	r2, r3, #29
 80058a0:	d506      	bpl.n	80058b0 <HAL_RCC_ClockConfig+0xd4>
 80058a2:	4919      	ldr	r1, [pc, #100]	; (8005908 <HAL_RCC_ClockConfig+0x12c>)
 80058a4:	68e0      	ldr	r0, [r4, #12]
 80058a6:	688a      	ldr	r2, [r1, #8]
 80058a8:	f422 52e0 	bic.w	r2, r2, #7168	; 0x1c00
 80058ac:	4302      	orrs	r2, r0
 80058ae:	608a      	str	r2, [r1, #8]
 80058b0:	071b      	lsls	r3, r3, #28
 80058b2:	d507      	bpl.n	80058c4 <HAL_RCC_ClockConfig+0xe8>
 80058b4:	4a14      	ldr	r2, [pc, #80]	; (8005908 <HAL_RCC_ClockConfig+0x12c>)
 80058b6:	6921      	ldr	r1, [r4, #16]
 80058b8:	6893      	ldr	r3, [r2, #8]
 80058ba:	f423 4360 	bic.w	r3, r3, #57344	; 0xe000
 80058be:	ea43 03c1 	orr.w	r3, r3, r1, lsl #3
 80058c2:	6093      	str	r3, [r2, #8]
 80058c4:	f7ff ff54 	bl	8005770 <HAL_RCC_GetSysClockFreq>
 80058c8:	4a0f      	ldr	r2, [pc, #60]	; (8005908 <HAL_RCC_ClockConfig+0x12c>)
 80058ca:	4c10      	ldr	r4, [pc, #64]	; (800590c <HAL_RCC_ClockConfig+0x130>)
 80058cc:	6892      	ldr	r2, [r2, #8]
 80058ce:	4910      	ldr	r1, [pc, #64]	; (8005910 <HAL_RCC_ClockConfig+0x134>)
 80058d0:	f3c2 1203 	ubfx	r2, r2, #4, #4
 80058d4:	4603      	mov	r3, r0
 80058d6:	5ca2      	ldrb	r2, [r4, r2]
 80058d8:	480e      	ldr	r0, [pc, #56]	; (8005914 <HAL_RCC_ClockConfig+0x138>)
 80058da:	40d3      	lsrs	r3, r2
 80058dc:	6800      	ldr	r0, [r0, #0]
 80058de:	600b      	str	r3, [r1, #0]
 80058e0:	f7fe fa82 	bl	8003de8 <HAL_InitTick>
 80058e4:	2000      	movs	r0, #0
 80058e6:	e8bd 81f0 	ldmia.w	sp!, {r4, r5, r6, r7, r8, pc}
 80058ea:	0198      	lsls	r0, r3, #6
 80058ec:	d4b1      	bmi.n	8005852 <HAL_RCC_ClockConfig+0x76>
 80058ee:	e789      	b.n	8005804 <HAL_RCC_ClockConfig+0x28>
 80058f0:	2001      	movs	r0, #1
 80058f2:	4770      	bx	lr
 80058f4:	4b04      	ldr	r3, [pc, #16]	; (8005908 <HAL_RCC_ClockConfig+0x12c>)
 80058f6:	681b      	ldr	r3, [r3, #0]
 80058f8:	039e      	lsls	r6, r3, #14
 80058fa:	d4aa      	bmi.n	8005852 <HAL_RCC_ClockConfig+0x76>
 80058fc:	e782      	b.n	8005804 <HAL_RCC_ClockConfig+0x28>
 80058fe:	2003      	movs	r0, #3
 8005900:	e781      	b.n	8005806 <HAL_RCC_ClockConfig+0x2a>
 8005902:	bf00      	nop
 8005904:	40023c00 	.word	0x40023c00
 8005908:	40023800 	.word	0x40023800
 800590c:	08028c00 	.word	0x08028c00
 8005910:	2000001c 	.word	0x2000001c
 8005914:	20000024 	.word	0x20000024

08005918 <HAL_RCC_GetHCLKFreq>:
 8005918:	4b01      	ldr	r3, [pc, #4]	; (8005920 <HAL_RCC_GetHCLKFreq+0x8>)
 800591a:	6818      	ldr	r0, [r3, #0]
 800591c:	4770      	bx	lr
 800591e:	bf00      	nop
 8005920:	2000001c 	.word	0x2000001c

08005924 <HAL_RCC_GetPCLK1Freq>:
 8005924:	4b04      	ldr	r3, [pc, #16]	; (8005938 <HAL_RCC_GetPCLK1Freq+0x14>)
 8005926:	4a05      	ldr	r2, [pc, #20]	; (800593c <HAL_RCC_GetPCLK1Freq+0x18>)
 8005928:	689b      	ldr	r3, [r3, #8]
 800592a:	4905      	ldr	r1, [pc, #20]	; (8005940 <HAL_RCC_GetPCLK1Freq+0x1c>)
 800592c:	f3c3 2382 	ubfx	r3, r3, #10, #3
 8005930:	6808      	ldr	r0, [r1, #0]
 8005932:	5cd3      	ldrb	r3, [r2, r3]
 8005934:	40d8      	lsrs	r0, r3
 8005936:	4770      	bx	lr
 8005938:	40023800 	.word	0x40023800
 800593c:	08028c10 	.word	0x08028c10
 8005940:	2000001c 	.word	0x2000001c

08005944 <HAL_RCC_GetPCLK2Freq>:
 8005944:	4b04      	ldr	r3, [pc, #16]	; (8005958 <HAL_RCC_GetPCLK2Freq+0x14>)
 8005946:	4a05      	ldr	r2, [pc, #20]	; (800595c <HAL_RCC_GetPCLK2Freq+0x18>)
 8005948:	689b      	ldr	r3, [r3, #8]
 800594a:	4905      	ldr	r1, [pc, #20]	; (8005960 <HAL_RCC_GetPCLK2Freq+0x1c>)
 800594c:	f3c3 3342 	ubfx	r3, r3, #13, #3
 8005950:	6808      	ldr	r0, [r1, #0]
 8005952:	5cd3      	ldrb	r3, [r2, r3]
 8005954:	40d8      	lsrs	r0, r3
 8005956:	4770      	bx	lr
 8005958:	40023800 	.word	0x40023800
 800595c:	08028c10 	.word	0x08028c10
 8005960:	2000001c 	.word	0x2000001c

08005964 <HAL_RCCEx_PeriphCLKConfig>:
 8005964:	b5f0      	push	{r4, r5, r6, r7, lr}
 8005966:	6803      	ldr	r3, [r0, #0]
 8005968:	f013 0f05 	tst.w	r3, #5
 800596c:	b083      	sub	sp, #12
 800596e:	4604      	mov	r4, r0
 8005970:	d10d      	bne.n	800598e <HAL_RCCEx_PeriphCLKConfig+0x2a>
 8005972:	0798      	lsls	r0, r3, #30
 8005974:	d444      	bmi.n	8005a00 <HAL_RCCEx_PeriphCLKConfig+0x9c>
 8005976:	f013 0308 	ands.w	r3, r3, #8
 800597a:	d102      	bne.n	8005982 <HAL_RCCEx_PeriphCLKConfig+0x1e>
 800597c:	4618      	mov	r0, r3
 800597e:	b003      	add	sp, #12
 8005980:	bdf0      	pop	{r4, r5, r6, r7, pc}
 8005982:	4b48      	ldr	r3, [pc, #288]	; (8005aa4 <HAL_RCCEx_PeriphCLKConfig+0x140>)
 8005984:	7c22      	ldrb	r2, [r4, #16]
 8005986:	601a      	str	r2, [r3, #0]
 8005988:	2000      	movs	r0, #0
 800598a:	b003      	add	sp, #12
 800598c:	bdf0      	pop	{r4, r5, r6, r7, pc}
 800598e:	4b46      	ldr	r3, [pc, #280]	; (8005aa8 <HAL_RCCEx_PeriphCLKConfig+0x144>)
 8005990:	4e46      	ldr	r6, [pc, #280]	; (8005aac <HAL_RCCEx_PeriphCLKConfig+0x148>)
 8005992:	2200      	movs	r2, #0
 8005994:	601a      	str	r2, [r3, #0]
 8005996:	f7fe fa71 	bl	8003e7c <HAL_GetTick>
 800599a:	4605      	mov	r5, r0
 800599c:	e004      	b.n	80059a8 <HAL_RCCEx_PeriphCLKConfig+0x44>
 800599e:	f7fe fa6d 	bl	8003e7c <HAL_GetTick>
 80059a2:	1b43      	subs	r3, r0, r5
 80059a4:	2b02      	cmp	r3, #2
 80059a6:	d828      	bhi.n	80059fa <HAL_RCCEx_PeriphCLKConfig+0x96>
 80059a8:	6833      	ldr	r3, [r6, #0]
 80059aa:	011f      	lsls	r7, r3, #4
 80059ac:	d4f7      	bmi.n	800599e <HAL_RCCEx_PeriphCLKConfig+0x3a>
 80059ae:	e9d4 1301 	ldrd	r1, r3, [r4, #4]
 80059b2:	4a3d      	ldr	r2, [pc, #244]	; (8005aa8 <HAL_RCCEx_PeriphCLKConfig+0x144>)
 80059b4:	4f3d      	ldr	r7, [pc, #244]	; (8005aac <HAL_RCCEx_PeriphCLKConfig+0x148>)
 80059b6:	071b      	lsls	r3, r3, #28
 80059b8:	ea43 1381 	orr.w	r3, r3, r1, lsl #6
 80059bc:	2101      	movs	r1, #1
 80059be:	f8c6 3084 	str.w	r3, [r6, #132]	; 0x84
 80059c2:	6011      	str	r1, [r2, #0]
 80059c4:	f7fe fa5a 	bl	8003e7c <HAL_GetTick>
 80059c8:	4605      	mov	r5, r0
 80059ca:	e004      	b.n	80059d6 <HAL_RCCEx_PeriphCLKConfig+0x72>
 80059cc:	f7fe fa56 	bl	8003e7c <HAL_GetTick>
 80059d0:	1b40      	subs	r0, r0, r5
 80059d2:	2802      	cmp	r0, #2
 80059d4:	d811      	bhi.n	80059fa <HAL_RCCEx_PeriphCLKConfig+0x96>
 80059d6:	683b      	ldr	r3, [r7, #0]
 80059d8:	011e      	lsls	r6, r3, #4
 80059da:	d5f7      	bpl.n	80059cc <HAL_RCCEx_PeriphCLKConfig+0x68>
 80059dc:	6823      	ldr	r3, [r4, #0]
 80059de:	e7c8      	b.n	8005972 <HAL_RCCEx_PeriphCLKConfig+0xe>
 80059e0:	f7fe fa4c 	bl	8003e7c <HAL_GetTick>
 80059e4:	f241 3788 	movw	r7, #5000	; 0x1388
 80059e8:	4606      	mov	r6, r0
 80059ea:	6f2b      	ldr	r3, [r5, #112]	; 0x70
 80059ec:	079b      	lsls	r3, r3, #30
 80059ee:	d43a      	bmi.n	8005a66 <HAL_RCCEx_PeriphCLKConfig+0x102>
 80059f0:	f7fe fa44 	bl	8003e7c <HAL_GetTick>
 80059f4:	1b80      	subs	r0, r0, r6
 80059f6:	42b8      	cmp	r0, r7
 80059f8:	d9f7      	bls.n	80059ea <HAL_RCCEx_PeriphCLKConfig+0x86>
 80059fa:	2003      	movs	r0, #3
 80059fc:	b003      	add	sp, #12
 80059fe:	bdf0      	pop	{r4, r5, r6, r7, pc}
 8005a00:	4b2a      	ldr	r3, [pc, #168]	; (8005aac <HAL_RCCEx_PeriphCLKConfig+0x148>)
 8005a02:	4d2b      	ldr	r5, [pc, #172]	; (8005ab0 <HAL_RCCEx_PeriphCLKConfig+0x14c>)
 8005a04:	2200      	movs	r2, #0
 8005a06:	9201      	str	r2, [sp, #4]
 8005a08:	6c1a      	ldr	r2, [r3, #64]	; 0x40
 8005a0a:	f042 5280 	orr.w	r2, r2, #268435456	; 0x10000000
 8005a0e:	641a      	str	r2, [r3, #64]	; 0x40
 8005a10:	6c1b      	ldr	r3, [r3, #64]	; 0x40
 8005a12:	f003 5380 	and.w	r3, r3, #268435456	; 0x10000000
 8005a16:	9301      	str	r3, [sp, #4]
 8005a18:	9b01      	ldr	r3, [sp, #4]
 8005a1a:	682b      	ldr	r3, [r5, #0]
 8005a1c:	f443 7380 	orr.w	r3, r3, #256	; 0x100
 8005a20:	602b      	str	r3, [r5, #0]
 8005a22:	f7fe fa2b 	bl	8003e7c <HAL_GetTick>
 8005a26:	4606      	mov	r6, r0
 8005a28:	e004      	b.n	8005a34 <HAL_RCCEx_PeriphCLKConfig+0xd0>
 8005a2a:	f7fe fa27 	bl	8003e7c <HAL_GetTick>
 8005a2e:	1b83      	subs	r3, r0, r6
 8005a30:	2b02      	cmp	r3, #2
 8005a32:	d8e2      	bhi.n	80059fa <HAL_RCCEx_PeriphCLKConfig+0x96>
 8005a34:	682b      	ldr	r3, [r5, #0]
 8005a36:	05d9      	lsls	r1, r3, #23
 8005a38:	d5f7      	bpl.n	8005a2a <HAL_RCCEx_PeriphCLKConfig+0xc6>
 8005a3a:	4d1c      	ldr	r5, [pc, #112]	; (8005aac <HAL_RCCEx_PeriphCLKConfig+0x148>)
 8005a3c:	68e3      	ldr	r3, [r4, #12]
 8005a3e:	6f2a      	ldr	r2, [r5, #112]	; 0x70
 8005a40:	f412 7240 	ands.w	r2, r2, #768	; 0x300
 8005a44:	d010      	beq.n	8005a68 <HAL_RCCEx_PeriphCLKConfig+0x104>
 8005a46:	f403 7140 	and.w	r1, r3, #768	; 0x300
 8005a4a:	4291      	cmp	r1, r2
 8005a4c:	d00e      	beq.n	8005a6c <HAL_RCCEx_PeriphCLKConfig+0x108>
 8005a4e:	6f2b      	ldr	r3, [r5, #112]	; 0x70
 8005a50:	4a18      	ldr	r2, [pc, #96]	; (8005ab4 <HAL_RCCEx_PeriphCLKConfig+0x150>)
 8005a52:	f423 7340 	bic.w	r3, r3, #768	; 0x300
 8005a56:	2001      	movs	r0, #1
 8005a58:	2100      	movs	r1, #0
 8005a5a:	6010      	str	r0, [r2, #0]
 8005a5c:	6011      	str	r1, [r2, #0]
 8005a5e:	672b      	str	r3, [r5, #112]	; 0x70
 8005a60:	6f2b      	ldr	r3, [r5, #112]	; 0x70
 8005a62:	07da      	lsls	r2, r3, #31
 8005a64:	d4bc      	bmi.n	80059e0 <HAL_RCCEx_PeriphCLKConfig+0x7c>
 8005a66:	68e3      	ldr	r3, [r4, #12]
 8005a68:	f403 7240 	and.w	r2, r3, #768	; 0x300
 8005a6c:	f5b2 7f40 	cmp.w	r2, #768	; 0x300
 8005a70:	d00c      	beq.n	8005a8c <HAL_RCCEx_PeriphCLKConfig+0x128>
 8005a72:	490e      	ldr	r1, [pc, #56]	; (8005aac <HAL_RCCEx_PeriphCLKConfig+0x148>)
 8005a74:	688a      	ldr	r2, [r1, #8]
 8005a76:	f422 12f8 	bic.w	r2, r2, #2031616	; 0x1f0000
 8005a7a:	608a      	str	r2, [r1, #8]
 8005a7c:	4a0b      	ldr	r2, [pc, #44]	; (8005aac <HAL_RCCEx_PeriphCLKConfig+0x148>)
 8005a7e:	6f11      	ldr	r1, [r2, #112]	; 0x70
 8005a80:	f3c3 030b 	ubfx	r3, r3, #0, #12
 8005a84:	430b      	orrs	r3, r1
 8005a86:	6713      	str	r3, [r2, #112]	; 0x70
 8005a88:	6823      	ldr	r3, [r4, #0]
 8005a8a:	e774      	b.n	8005976 <HAL_RCCEx_PeriphCLKConfig+0x12>
 8005a8c:	4807      	ldr	r0, [pc, #28]	; (8005aac <HAL_RCCEx_PeriphCLKConfig+0x148>)
 8005a8e:	6882      	ldr	r2, [r0, #8]
 8005a90:	f023 4170 	bic.w	r1, r3, #4026531840	; 0xf0000000
 8005a94:	f422 12f8 	bic.w	r2, r2, #2031616	; 0x1f0000
 8005a98:	f421 7140 	bic.w	r1, r1, #768	; 0x300
 8005a9c:	430a      	orrs	r2, r1
 8005a9e:	6082      	str	r2, [r0, #8]
 8005aa0:	e7ec      	b.n	8005a7c <HAL_RCCEx_PeriphCLKConfig+0x118>
 8005aa2:	bf00      	nop
 8005aa4:	424711e0 	.word	0x424711e0
 8005aa8:	42470068 	.word	0x42470068
 8005aac:	40023800 	.word	0x40023800
 8005ab0:	40007000 	.word	0x40007000
 8005ab4:	42470e40 	.word	0x42470e40

08005ab8 <HAL_RCCEx_GetPeriphCLKFreq>:
 8005ab8:	2801      	cmp	r0, #1
 8005aba:	d001      	beq.n	8005ac0 <HAL_RCCEx_GetPeriphCLKFreq+0x8>
 8005abc:	2000      	movs	r0, #0
 8005abe:	4770      	bx	lr
 8005ac0:	4b0d      	ldr	r3, [pc, #52]	; (8005af8 <HAL_RCCEx_GetPeriphCLKFreq+0x40>)
 8005ac2:	689a      	ldr	r2, [r3, #8]
 8005ac4:	0211      	lsls	r1, r2, #8
 8005ac6:	d4f9      	bmi.n	8005abc <HAL_RCCEx_GetPeriphCLKFreq+0x4>
 8005ac8:	685a      	ldr	r2, [r3, #4]
 8005aca:	685b      	ldr	r3, [r3, #4]
 8005acc:	0252      	lsls	r2, r2, #9
 8005ace:	bf4c      	ite	mi
 8005ad0:	480a      	ldrmi	r0, [pc, #40]	; (8005afc <HAL_RCCEx_GetPeriphCLKFreq+0x44>)
 8005ad2:	480b      	ldrpl	r0, [pc, #44]	; (8005b00 <HAL_RCCEx_GetPeriphCLKFreq+0x48>)
 8005ad4:	f003 033f 	and.w	r3, r3, #63	; 0x3f
 8005ad8:	fbb0 f0f3 	udiv	r0, r0, r3
 8005adc:	4b06      	ldr	r3, [pc, #24]	; (8005af8 <HAL_RCCEx_GetPeriphCLKFreq+0x40>)
 8005ade:	f8d3 2084 	ldr.w	r2, [r3, #132]	; 0x84
 8005ae2:	f8d3 3084 	ldr.w	r3, [r3, #132]	; 0x84
 8005ae6:	f3c2 1288 	ubfx	r2, r2, #6, #9
 8005aea:	fb00 f002 	mul.w	r0, r0, r2
 8005aee:	f3c3 7302 	ubfx	r3, r3, #28, #3
 8005af2:	fbb0 f0f3 	udiv	r0, r0, r3
 8005af6:	4770      	bx	lr
 8005af8:	40023800 	.word	0x40023800
 8005afc:	017d7840 	.word	0x017d7840
 8005b00:	00f42400 	.word	0x00f42400

08005b04 <SPI_WaitFlagStateUntilTimeout.constprop.0>:
 8005b04:	e92d 41f0 	stmdb	sp!, {r4, r5, r6, r7, r8, lr}
 8005b08:	b082      	sub	sp, #8
 8005b0a:	4698      	mov	r8, r3
 8005b0c:	4616      	mov	r6, r2
 8005b0e:	460c      	mov	r4, r1
 8005b10:	4607      	mov	r7, r0
 8005b12:	f7fe f9b3 	bl	8003e7c <HAL_GetTick>
 8005b16:	44b0      	add	r8, r6
 8005b18:	eba8 0500 	sub.w	r5, r8, r0
 8005b1c:	f7fe f9ae 	bl	8003e7c <HAL_GetTick>
 8005b20:	4b27      	ldr	r3, [pc, #156]	; (8005bc0 <SPI_WaitFlagStateUntilTimeout.constprop.0+0xbc>)
 8005b22:	681b      	ldr	r3, [r3, #0]
 8005b24:	f3c3 33cb 	ubfx	r3, r3, #15, #12
 8005b28:	fb05 f303 	mul.w	r3, r5, r3
 8005b2c:	4680      	mov	r8, r0
 8005b2e:	9301      	str	r3, [sp, #4]
 8005b30:	1c73      	adds	r3, r6, #1
 8005b32:	6839      	ldr	r1, [r7, #0]
 8005b34:	d107      	bne.n	8005b46 <SPI_WaitFlagStateUntilTimeout.constprop.0+0x42>
 8005b36:	688b      	ldr	r3, [r1, #8]
 8005b38:	ea34 0303 	bics.w	r3, r4, r3
 8005b3c:	d0fb      	beq.n	8005b36 <SPI_WaitFlagStateUntilTimeout.constprop.0+0x32>
 8005b3e:	2000      	movs	r0, #0
 8005b40:	b002      	add	sp, #8
 8005b42:	e8bd 81f0 	ldmia.w	sp!, {r4, r5, r6, r7, r8, pc}
 8005b46:	688b      	ldr	r3, [r1, #8]
 8005b48:	ea34 0303 	bics.w	r3, r4, r3
 8005b4c:	d1f7      	bne.n	8005b3e <SPI_WaitFlagStateUntilTimeout.constprop.0+0x3a>
 8005b4e:	f7fe f995 	bl	8003e7c <HAL_GetTick>
 8005b52:	eba0 0308 	sub.w	r3, r0, r8
 8005b56:	42ab      	cmp	r3, r5
 8005b58:	d208      	bcs.n	8005b6c <SPI_WaitFlagStateUntilTimeout.constprop.0+0x68>
 8005b5a:	9a01      	ldr	r2, [sp, #4]
 8005b5c:	9b01      	ldr	r3, [sp, #4]
 8005b5e:	2a00      	cmp	r2, #0
 8005b60:	f103 33ff 	add.w	r3, r3, #4294967295	; 0xffffffff
 8005b64:	bf08      	it	eq
 8005b66:	2500      	moveq	r5, #0
 8005b68:	9301      	str	r3, [sp, #4]
 8005b6a:	e7e1      	b.n	8005b30 <SPI_WaitFlagStateUntilTimeout.constprop.0+0x2c>
 8005b6c:	e9d7 3100 	ldrd	r3, r1, [r7]
 8005b70:	685a      	ldr	r2, [r3, #4]
 8005b72:	f5b1 7f82 	cmp.w	r1, #260	; 0x104
 8005b76:	f022 02e0 	bic.w	r2, r2, #224	; 0xe0
 8005b7a:	605a      	str	r2, [r3, #4]
 8005b7c:	d014      	beq.n	8005ba8 <SPI_WaitFlagStateUntilTimeout.constprop.0+0xa4>
 8005b7e:	6aba      	ldr	r2, [r7, #40]	; 0x28
 8005b80:	f5b2 5f00 	cmp.w	r2, #8192	; 0x2000
 8005b84:	d007      	beq.n	8005b96 <SPI_WaitFlagStateUntilTimeout.constprop.0+0x92>
 8005b86:	2201      	movs	r2, #1
 8005b88:	2300      	movs	r3, #0
 8005b8a:	f887 2051 	strb.w	r2, [r7, #81]	; 0x51
 8005b8e:	f887 3050 	strb.w	r3, [r7, #80]	; 0x50
 8005b92:	2003      	movs	r0, #3
 8005b94:	e7d4      	b.n	8005b40 <SPI_WaitFlagStateUntilTimeout.constprop.0+0x3c>
 8005b96:	681a      	ldr	r2, [r3, #0]
 8005b98:	f422 5200 	bic.w	r2, r2, #8192	; 0x2000
 8005b9c:	601a      	str	r2, [r3, #0]
 8005b9e:	681a      	ldr	r2, [r3, #0]
 8005ba0:	f442 5200 	orr.w	r2, r2, #8192	; 0x2000
 8005ba4:	601a      	str	r2, [r3, #0]
 8005ba6:	e7ee      	b.n	8005b86 <SPI_WaitFlagStateUntilTimeout.constprop.0+0x82>
 8005ba8:	68ba      	ldr	r2, [r7, #8]
 8005baa:	f5b2 4f00 	cmp.w	r2, #32768	; 0x8000
 8005bae:	d002      	beq.n	8005bb6 <SPI_WaitFlagStateUntilTimeout.constprop.0+0xb2>
 8005bb0:	f5b2 6f80 	cmp.w	r2, #1024	; 0x400
 8005bb4:	d1e3      	bne.n	8005b7e <SPI_WaitFlagStateUntilTimeout.constprop.0+0x7a>
 8005bb6:	681a      	ldr	r2, [r3, #0]
 8005bb8:	f022 0240 	bic.w	r2, r2, #64	; 0x40
 8005bbc:	601a      	str	r2, [r3, #0]
 8005bbe:	e7de      	b.n	8005b7e <SPI_WaitFlagStateUntilTimeout.constprop.0+0x7a>
 8005bc0:	2000001c 	.word	0x2000001c

08005bc4 <HAL_SPI_Init>:
 8005bc4:	2800      	cmp	r0, #0
 8005bc6:	d05b      	beq.n	8005c80 <HAL_SPI_Init+0xbc>
 8005bc8:	b5f8      	push	{r3, r4, r5, r6, r7, lr}
 8005bca:	6a47      	ldr	r7, [r0, #36]	; 0x24
 8005bcc:	4604      	mov	r4, r0
 8005bce:	2f00      	cmp	r7, #0
 8005bd0:	d046      	beq.n	8005c60 <HAL_SPI_Init+0x9c>
 8005bd2:	2300      	movs	r3, #0
 8005bd4:	e9c0 3304 	strd	r3, r3, [r0, #16]
 8005bd8:	f894 2051 	ldrb.w	r2, [r4, #81]	; 0x51
 8005bdc:	2000      	movs	r0, #0
 8005bde:	f002 01ff 	and.w	r1, r2, #255	; 0xff
 8005be2:	62a0      	str	r0, [r4, #40]	; 0x28
 8005be4:	2a00      	cmp	r2, #0
 8005be6:	d041      	beq.n	8005c6c <HAL_SPI_Init+0xa8>
 8005be8:	e9d4 3501 	ldrd	r3, r5, [r4, #4]
 8005bec:	68e1      	ldr	r1, [r4, #12]
 8005bee:	69a6      	ldr	r6, [r4, #24]
 8005bf0:	f403 7282 	and.w	r2, r3, #260	; 0x104
 8005bf4:	f405 4504 	and.w	r5, r5, #33792	; 0x8400
 8005bf8:	6923      	ldr	r3, [r4, #16]
 8005bfa:	432a      	orrs	r2, r5
 8005bfc:	f401 6100 	and.w	r1, r1, #2048	; 0x800
 8005c00:	430a      	orrs	r2, r1
 8005c02:	f003 0102 	and.w	r1, r3, #2
 8005c06:	6963      	ldr	r3, [r4, #20]
 8005c08:	430a      	orrs	r2, r1
 8005c0a:	f003 0301 	and.w	r3, r3, #1
 8005c0e:	431a      	orrs	r2, r3
 8005c10:	69e3      	ldr	r3, [r4, #28]
 8005c12:	6821      	ldr	r1, [r4, #0]
 8005c14:	f003 0e38 	and.w	lr, r3, #56	; 0x38
 8005c18:	f406 7300 	and.w	r3, r6, #512	; 0x200
 8005c1c:	4313      	orrs	r3, r2
 8005c1e:	2202      	movs	r2, #2
 8005c20:	f884 2051 	strb.w	r2, [r4, #81]	; 0x51
 8005c24:	6a22      	ldr	r2, [r4, #32]
 8005c26:	0c35      	lsrs	r5, r6, #16
 8005c28:	ea43 030e 	orr.w	r3, r3, lr
 8005c2c:	f002 0680 	and.w	r6, r2, #128	; 0x80
 8005c30:	f005 0204 	and.w	r2, r5, #4
 8005c34:	680d      	ldr	r5, [r1, #0]
 8005c36:	f007 0710 	and.w	r7, r7, #16
 8005c3a:	4333      	orrs	r3, r6
 8005c3c:	433a      	orrs	r2, r7
 8005c3e:	4303      	orrs	r3, r0
 8005c40:	f025 0540 	bic.w	r5, r5, #64	; 0x40
 8005c44:	600d      	str	r5, [r1, #0]
 8005c46:	600b      	str	r3, [r1, #0]
 8005c48:	604a      	str	r2, [r1, #4]
 8005c4a:	69cb      	ldr	r3, [r1, #28]
 8005c4c:	2200      	movs	r2, #0
 8005c4e:	f423 6300 	bic.w	r3, r3, #2048	; 0x800
 8005c52:	2501      	movs	r5, #1
 8005c54:	61cb      	str	r3, [r1, #28]
 8005c56:	6562      	str	r2, [r4, #84]	; 0x54
 8005c58:	f884 5051 	strb.w	r5, [r4, #81]	; 0x51
 8005c5c:	4610      	mov	r0, r2
 8005c5e:	bdf8      	pop	{r3, r4, r5, r6, r7, pc}
 8005c60:	6843      	ldr	r3, [r0, #4]
 8005c62:	f5b3 7f82 	cmp.w	r3, #260	; 0x104
 8005c66:	d0b7      	beq.n	8005bd8 <HAL_SPI_Init+0x14>
 8005c68:	61c7      	str	r7, [r0, #28]
 8005c6a:	e7b5      	b.n	8005bd8 <HAL_SPI_Init+0x14>
 8005c6c:	4620      	mov	r0, r4
 8005c6e:	f884 1050 	strb.w	r1, [r4, #80]	; 0x50
 8005c72:	f7fd fedf 	bl	8003a34 <HAL_SPI_MspInit>
 8005c76:	e9d4 7309 	ldrd	r7, r3, [r4, #36]	; 0x24
 8005c7a:	f403 5000 	and.w	r0, r3, #8192	; 0x2000
 8005c7e:	e7b3      	b.n	8005be8 <HAL_SPI_Init+0x24>
 8005c80:	2001      	movs	r0, #1
 8005c82:	4770      	bx	lr

08005c84 <HAL_SPI_Transmit>:
 8005c84:	e92d 41f0 	stmdb	sp!, {r4, r5, r6, r7, r8, lr}
 8005c88:	4604      	mov	r4, r0
 8005c8a:	f890 0050 	ldrb.w	r0, [r0, #80]	; 0x50
 8005c8e:	2801      	cmp	r0, #1
 8005c90:	b082      	sub	sp, #8
 8005c92:	f000 8086 	beq.w	8005da2 <HAL_SPI_Transmit+0x11e>
 8005c96:	461d      	mov	r5, r3
 8005c98:	2301      	movs	r3, #1
 8005c9a:	f884 3050 	strb.w	r3, [r4, #80]	; 0x50
 8005c9e:	4688      	mov	r8, r1
 8005ca0:	4617      	mov	r7, r2
 8005ca2:	f7fe f8eb 	bl	8003e7c <HAL_GetTick>
 8005ca6:	f894 3051 	ldrb.w	r3, [r4, #81]	; 0x51
 8005caa:	2b01      	cmp	r3, #1
 8005cac:	4606      	mov	r6, r0
 8005cae:	b2d8      	uxtb	r0, r3
 8005cb0:	d009      	beq.n	8005cc6 <HAL_SPI_Transmit+0x42>
 8005cb2:	2002      	movs	r0, #2
 8005cb4:	2201      	movs	r2, #1
 8005cb6:	2300      	movs	r3, #0
 8005cb8:	f884 2051 	strb.w	r2, [r4, #81]	; 0x51
 8005cbc:	f884 3050 	strb.w	r3, [r4, #80]	; 0x50
 8005cc0:	b002      	add	sp, #8
 8005cc2:	e8bd 81f0 	ldmia.w	sp!, {r4, r5, r6, r7, r8, pc}
 8005cc6:	f1b8 0f00 	cmp.w	r8, #0
 8005cca:	d0f3      	beq.n	8005cb4 <HAL_SPI_Transmit+0x30>
 8005ccc:	2f00      	cmp	r7, #0
 8005cce:	d0f1      	beq.n	8005cb4 <HAL_SPI_Transmit+0x30>
 8005cd0:	68a2      	ldr	r2, [r4, #8]
 8005cd2:	6820      	ldr	r0, [r4, #0]
 8005cd4:	f8c4 8030 	str.w	r8, [r4, #48]	; 0x30
 8005cd8:	2303      	movs	r3, #3
 8005cda:	f884 3051 	strb.w	r3, [r4, #81]	; 0x51
 8005cde:	f5b2 4f00 	cmp.w	r2, #32768	; 0x8000
 8005ce2:	f04f 0300 	mov.w	r3, #0
 8005ce6:	6563      	str	r3, [r4, #84]	; 0x54
 8005ce8:	e9c4 3310 	strd	r3, r3, [r4, #64]	; 0x40
 8005cec:	86e7      	strh	r7, [r4, #54]	; 0x36
 8005cee:	86a7      	strh	r7, [r4, #52]	; 0x34
 8005cf0:	63a3      	str	r3, [r4, #56]	; 0x38
 8005cf2:	87a3      	strh	r3, [r4, #60]	; 0x3c
 8005cf4:	87e3      	strh	r3, [r4, #62]	; 0x3e
 8005cf6:	f000 8085 	beq.w	8005e04 <HAL_SPI_Transmit+0x180>
 8005cfa:	6802      	ldr	r2, [r0, #0]
 8005cfc:	0652      	lsls	r2, r2, #25
 8005cfe:	4603      	mov	r3, r0
 8005d00:	d403      	bmi.n	8005d0a <HAL_SPI_Transmit+0x86>
 8005d02:	6802      	ldr	r2, [r0, #0]
 8005d04:	f042 0240 	orr.w	r2, r2, #64	; 0x40
 8005d08:	6002      	str	r2, [r0, #0]
 8005d0a:	68e2      	ldr	r2, [r4, #12]
 8005d0c:	f5b2 6f00 	cmp.w	r2, #2048	; 0x800
 8005d10:	d04b      	beq.n	8005daa <HAL_SPI_Transmit+0x126>
 8005d12:	6863      	ldr	r3, [r4, #4]
 8005d14:	2b00      	cmp	r3, #0
 8005d16:	f000 8097 	beq.w	8005e48 <HAL_SPI_Transmit+0x1c4>
 8005d1a:	2f01      	cmp	r7, #1
 8005d1c:	f000 8094 	beq.w	8005e48 <HAL_SPI_Transmit+0x1c4>
 8005d20:	8ee3      	ldrh	r3, [r4, #54]	; 0x36
 8005d22:	b29b      	uxth	r3, r3
 8005d24:	b1ab      	cbz	r3, 8005d52 <HAL_SPI_Transmit+0xce>
 8005d26:	1c68      	adds	r0, r5, #1
 8005d28:	f040 8083 	bne.w	8005e32 <HAL_SPI_Transmit+0x1ae>
 8005d2c:	6823      	ldr	r3, [r4, #0]
 8005d2e:	689a      	ldr	r2, [r3, #8]
 8005d30:	0791      	lsls	r1, r2, #30
 8005d32:	f140 8094 	bpl.w	8005e5e <HAL_SPI_Transmit+0x1da>
 8005d36:	6b22      	ldr	r2, [r4, #48]	; 0x30
 8005d38:	7812      	ldrb	r2, [r2, #0]
 8005d3a:	731a      	strb	r2, [r3, #12]
 8005d3c:	8ee2      	ldrh	r2, [r4, #54]	; 0x36
 8005d3e:	6b23      	ldr	r3, [r4, #48]	; 0x30
 8005d40:	3a01      	subs	r2, #1
 8005d42:	b292      	uxth	r2, r2
 8005d44:	86e2      	strh	r2, [r4, #54]	; 0x36
 8005d46:	8ee2      	ldrh	r2, [r4, #54]	; 0x36
 8005d48:	3301      	adds	r3, #1
 8005d4a:	b292      	uxth	r2, r2
 8005d4c:	6323      	str	r3, [r4, #48]	; 0x30
 8005d4e:	2a00      	cmp	r2, #0
 8005d50:	d1ec      	bne.n	8005d2c <HAL_SPI_Transmit+0xa8>
 8005d52:	6861      	ldr	r1, [r4, #4]
 8005d54:	4b5b      	ldr	r3, [pc, #364]	; (8005ec4 <HAL_SPI_Transmit+0x240>)
 8005d56:	4a5c      	ldr	r2, [pc, #368]	; (8005ec8 <HAL_SPI_Transmit+0x244>)
 8005d58:	681b      	ldr	r3, [r3, #0]
 8005d5a:	fba2 2303 	umull	r2, r3, r2, r3
 8005d5e:	0d5b      	lsrs	r3, r3, #21
 8005d60:	f44f 727a 	mov.w	r2, #1000	; 0x3e8
 8005d64:	fb02 f303 	mul.w	r3, r2, r3
 8005d68:	f5b1 7f82 	cmp.w	r1, #260	; 0x104
 8005d6c:	9301      	str	r3, [sp, #4]
 8005d6e:	d107      	bne.n	8005d80 <HAL_SPI_Transmit+0xfc>
 8005d70:	e098      	b.n	8005ea4 <HAL_SPI_Transmit+0x220>
 8005d72:	9b01      	ldr	r3, [sp, #4]
 8005d74:	6822      	ldr	r2, [r4, #0]
 8005d76:	3b01      	subs	r3, #1
 8005d78:	9301      	str	r3, [sp, #4]
 8005d7a:	6893      	ldr	r3, [r2, #8]
 8005d7c:	061b      	lsls	r3, r3, #24
 8005d7e:	d502      	bpl.n	8005d86 <HAL_SPI_Transmit+0x102>
 8005d80:	9b01      	ldr	r3, [sp, #4]
 8005d82:	2b00      	cmp	r3, #0
 8005d84:	d1f5      	bne.n	8005d72 <HAL_SPI_Transmit+0xee>
 8005d86:	68a3      	ldr	r3, [r4, #8]
 8005d88:	b933      	cbnz	r3, 8005d98 <HAL_SPI_Transmit+0x114>
 8005d8a:	6822      	ldr	r2, [r4, #0]
 8005d8c:	9300      	str	r3, [sp, #0]
 8005d8e:	68d3      	ldr	r3, [r2, #12]
 8005d90:	9300      	str	r3, [sp, #0]
 8005d92:	6893      	ldr	r3, [r2, #8]
 8005d94:	9300      	str	r3, [sp, #0]
 8005d96:	9b00      	ldr	r3, [sp, #0]
 8005d98:	6d60      	ldr	r0, [r4, #84]	; 0x54
 8005d9a:	3800      	subs	r0, #0
 8005d9c:	bf18      	it	ne
 8005d9e:	2001      	movne	r0, #1
 8005da0:	e788      	b.n	8005cb4 <HAL_SPI_Transmit+0x30>
 8005da2:	2002      	movs	r0, #2
 8005da4:	b002      	add	sp, #8
 8005da6:	e8bd 81f0 	ldmia.w	sp!, {r4, r5, r6, r7, r8, pc}
 8005daa:	6861      	ldr	r1, [r4, #4]
 8005dac:	2900      	cmp	r1, #0
 8005dae:	d176      	bne.n	8005e9e <HAL_SPI_Transmit+0x21a>
 8005db0:	4647      	mov	r7, r8
 8005db2:	f837 2b02 	ldrh.w	r2, [r7], #2
 8005db6:	60c2      	str	r2, [r0, #12]
 8005db8:	8ee2      	ldrh	r2, [r4, #54]	; 0x36
 8005dba:	6327      	str	r7, [r4, #48]	; 0x30
 8005dbc:	3a01      	subs	r2, #1
 8005dbe:	b292      	uxth	r2, r2
 8005dc0:	86e2      	strh	r2, [r4, #54]	; 0x36
 8005dc2:	8ee2      	ldrh	r2, [r4, #54]	; 0x36
 8005dc4:	b292      	uxth	r2, r2
 8005dc6:	2a00      	cmp	r2, #0
 8005dc8:	d0c4      	beq.n	8005d54 <HAL_SPI_Transmit+0xd0>
 8005dca:	1c6a      	adds	r2, r5, #1
 8005dcc:	d15e      	bne.n	8005e8c <HAL_SPI_Transmit+0x208>
 8005dce:	6883      	ldr	r3, [r0, #8]
 8005dd0:	079f      	lsls	r7, r3, #30
 8005dd2:	d50f      	bpl.n	8005df4 <HAL_SPI_Transmit+0x170>
 8005dd4:	6b22      	ldr	r2, [r4, #48]	; 0x30
 8005dd6:	f832 3b02 	ldrh.w	r3, [r2], #2
 8005dda:	60c3      	str	r3, [r0, #12]
 8005ddc:	8ee3      	ldrh	r3, [r4, #54]	; 0x36
 8005dde:	6322      	str	r2, [r4, #48]	; 0x30
 8005de0:	3b01      	subs	r3, #1
 8005de2:	b29b      	uxth	r3, r3
 8005de4:	86e3      	strh	r3, [r4, #54]	; 0x36
 8005de6:	8ee3      	ldrh	r3, [r4, #54]	; 0x36
 8005de8:	b29b      	uxth	r3, r3
 8005dea:	2b00      	cmp	r3, #0
 8005dec:	d0b1      	beq.n	8005d52 <HAL_SPI_Transmit+0xce>
 8005dee:	6883      	ldr	r3, [r0, #8]
 8005df0:	079f      	lsls	r7, r3, #30
 8005df2:	d4ef      	bmi.n	8005dd4 <HAL_SPI_Transmit+0x150>
 8005df4:	f7fe f842 	bl	8003e7c <HAL_GetTick>
 8005df8:	8ee3      	ldrh	r3, [r4, #54]	; 0x36
 8005dfa:	b29b      	uxth	r3, r3
 8005dfc:	2b00      	cmp	r3, #0
 8005dfe:	d0a8      	beq.n	8005d52 <HAL_SPI_Transmit+0xce>
 8005e00:	6820      	ldr	r0, [r4, #0]
 8005e02:	e7e4      	b.n	8005dce <HAL_SPI_Transmit+0x14a>
 8005e04:	6803      	ldr	r3, [r0, #0]
 8005e06:	f023 0340 	bic.w	r3, r3, #64	; 0x40
 8005e0a:	6003      	str	r3, [r0, #0]
 8005e0c:	6803      	ldr	r3, [r0, #0]
 8005e0e:	f443 4380 	orr.w	r3, r3, #16384	; 0x4000
 8005e12:	6003      	str	r3, [r0, #0]
 8005e14:	e771      	b.n	8005cfa <HAL_SPI_Transmit+0x76>
 8005e16:	6b22      	ldr	r2, [r4, #48]	; 0x30
 8005e18:	7812      	ldrb	r2, [r2, #0]
 8005e1a:	731a      	strb	r2, [r3, #12]
 8005e1c:	8ee3      	ldrh	r3, [r4, #54]	; 0x36
 8005e1e:	6b22      	ldr	r2, [r4, #48]	; 0x30
 8005e20:	3b01      	subs	r3, #1
 8005e22:	b29b      	uxth	r3, r3
 8005e24:	3201      	adds	r2, #1
 8005e26:	86e3      	strh	r3, [r4, #54]	; 0x36
 8005e28:	6322      	str	r2, [r4, #48]	; 0x30
 8005e2a:	8ee3      	ldrh	r3, [r4, #54]	; 0x36
 8005e2c:	b29b      	uxth	r3, r3
 8005e2e:	2b00      	cmp	r3, #0
 8005e30:	d08f      	beq.n	8005d52 <HAL_SPI_Transmit+0xce>
 8005e32:	6823      	ldr	r3, [r4, #0]
 8005e34:	689a      	ldr	r2, [r3, #8]
 8005e36:	0792      	lsls	r2, r2, #30
 8005e38:	d4ed      	bmi.n	8005e16 <HAL_SPI_Transmit+0x192>
 8005e3a:	f7fe f81f 	bl	8003e7c <HAL_GetTick>
 8005e3e:	1b80      	subs	r0, r0, r6
 8005e40:	42a8      	cmp	r0, r5
 8005e42:	d3f2      	bcc.n	8005e2a <HAL_SPI_Transmit+0x1a6>
 8005e44:	2003      	movs	r0, #3
 8005e46:	e735      	b.n	8005cb4 <HAL_SPI_Transmit+0x30>
 8005e48:	f898 3000 	ldrb.w	r3, [r8]
 8005e4c:	7303      	strb	r3, [r0, #12]
 8005e4e:	8ee3      	ldrh	r3, [r4, #54]	; 0x36
 8005e50:	6b22      	ldr	r2, [r4, #48]	; 0x30
 8005e52:	3b01      	subs	r3, #1
 8005e54:	b29b      	uxth	r3, r3
 8005e56:	3201      	adds	r2, #1
 8005e58:	86e3      	strh	r3, [r4, #54]	; 0x36
 8005e5a:	6322      	str	r2, [r4, #48]	; 0x30
 8005e5c:	e760      	b.n	8005d20 <HAL_SPI_Transmit+0x9c>
 8005e5e:	f7fe f80d 	bl	8003e7c <HAL_GetTick>
 8005e62:	8ee3      	ldrh	r3, [r4, #54]	; 0x36
 8005e64:	b29b      	uxth	r3, r3
 8005e66:	2b00      	cmp	r3, #0
 8005e68:	f47f af60 	bne.w	8005d2c <HAL_SPI_Transmit+0xa8>
 8005e6c:	e771      	b.n	8005d52 <HAL_SPI_Transmit+0xce>
 8005e6e:	6b22      	ldr	r2, [r4, #48]	; 0x30
 8005e70:	f832 1b02 	ldrh.w	r1, [r2], #2
 8005e74:	60d9      	str	r1, [r3, #12]
 8005e76:	8ee3      	ldrh	r3, [r4, #54]	; 0x36
 8005e78:	6322      	str	r2, [r4, #48]	; 0x30
 8005e7a:	3b01      	subs	r3, #1
 8005e7c:	b29b      	uxth	r3, r3
 8005e7e:	86e3      	strh	r3, [r4, #54]	; 0x36
 8005e80:	8ee3      	ldrh	r3, [r4, #54]	; 0x36
 8005e82:	b29b      	uxth	r3, r3
 8005e84:	2b00      	cmp	r3, #0
 8005e86:	f43f af64 	beq.w	8005d52 <HAL_SPI_Transmit+0xce>
 8005e8a:	6823      	ldr	r3, [r4, #0]
 8005e8c:	689a      	ldr	r2, [r3, #8]
 8005e8e:	0791      	lsls	r1, r2, #30
 8005e90:	d4ed      	bmi.n	8005e6e <HAL_SPI_Transmit+0x1ea>
 8005e92:	f7fd fff3 	bl	8003e7c <HAL_GetTick>
 8005e96:	1b80      	subs	r0, r0, r6
 8005e98:	42a8      	cmp	r0, r5
 8005e9a:	d3f1      	bcc.n	8005e80 <HAL_SPI_Transmit+0x1fc>
 8005e9c:	e7d2      	b.n	8005e44 <HAL_SPI_Transmit+0x1c0>
 8005e9e:	2f01      	cmp	r7, #1
 8005ea0:	d18f      	bne.n	8005dc2 <HAL_SPI_Transmit+0x13e>
 8005ea2:	e785      	b.n	8005db0 <HAL_SPI_Transmit+0x12c>
 8005ea4:	4633      	mov	r3, r6
 8005ea6:	462a      	mov	r2, r5
 8005ea8:	2180      	movs	r1, #128	; 0x80
 8005eaa:	4620      	mov	r0, r4
 8005eac:	f7ff fe2a 	bl	8005b04 <SPI_WaitFlagStateUntilTimeout.constprop.0>
 8005eb0:	2800      	cmp	r0, #0
 8005eb2:	f43f af68 	beq.w	8005d86 <HAL_SPI_Transmit+0x102>
 8005eb6:	6d63      	ldr	r3, [r4, #84]	; 0x54
 8005eb8:	2220      	movs	r2, #32
 8005eba:	4313      	orrs	r3, r2
 8005ebc:	6563      	str	r3, [r4, #84]	; 0x54
 8005ebe:	6562      	str	r2, [r4, #84]	; 0x54
 8005ec0:	e761      	b.n	8005d86 <HAL_SPI_Transmit+0x102>
 8005ec2:	bf00      	nop
 8005ec4:	2000001c 	.word	0x2000001c
 8005ec8:	165e9f81 	.word	0x165e9f81

08005ecc <HAL_SPI_TransmitReceive>:
 8005ecc:	e92d 43f0 	stmdb	sp!, {r4, r5, r6, r7, r8, r9, lr}
 8005ed0:	4604      	mov	r4, r0
 8005ed2:	f890 0050 	ldrb.w	r0, [r0, #80]	; 0x50
 8005ed6:	2801      	cmp	r0, #1
 8005ed8:	b083      	sub	sp, #12
 8005eda:	f000 80a4 	beq.w	8006026 <HAL_SPI_TransmitReceive+0x15a>
 8005ede:	461f      	mov	r7, r3
 8005ee0:	2301      	movs	r3, #1
 8005ee2:	f884 3050 	strb.w	r3, [r4, #80]	; 0x50
 8005ee6:	4691      	mov	r9, r2
 8005ee8:	4688      	mov	r8, r1
 8005eea:	f7fd ffc7 	bl	8003e7c <HAL_GetTick>
 8005eee:	f894 6051 	ldrb.w	r6, [r4, #81]	; 0x51
 8005ef2:	6863      	ldr	r3, [r4, #4]
 8005ef4:	2e01      	cmp	r6, #1
 8005ef6:	4605      	mov	r5, r0
 8005ef8:	b2f2      	uxtb	r2, r6
 8005efa:	d011      	beq.n	8005f20 <HAL_SPI_TransmitReceive+0x54>
 8005efc:	f5b3 7f82 	cmp.w	r3, #260	; 0x104
 8005f00:	d009      	beq.n	8005f16 <HAL_SPI_TransmitReceive+0x4a>
 8005f02:	2002      	movs	r0, #2
 8005f04:	2201      	movs	r2, #1
 8005f06:	2300      	movs	r3, #0
 8005f08:	f884 2051 	strb.w	r2, [r4, #81]	; 0x51
 8005f0c:	f884 3050 	strb.w	r3, [r4, #80]	; 0x50
 8005f10:	b003      	add	sp, #12
 8005f12:	e8bd 83f0 	ldmia.w	sp!, {r4, r5, r6, r7, r8, r9, pc}
 8005f16:	68a1      	ldr	r1, [r4, #8]
 8005f18:	2900      	cmp	r1, #0
 8005f1a:	d1f2      	bne.n	8005f02 <HAL_SPI_TransmitReceive+0x36>
 8005f1c:	2a04      	cmp	r2, #4
 8005f1e:	d1f0      	bne.n	8005f02 <HAL_SPI_TransmitReceive+0x36>
 8005f20:	f1b8 0f00 	cmp.w	r8, #0
 8005f24:	f000 8083 	beq.w	800602e <HAL_SPI_TransmitReceive+0x162>
 8005f28:	f1b9 0f00 	cmp.w	r9, #0
 8005f2c:	d07f      	beq.n	800602e <HAL_SPI_TransmitReceive+0x162>
 8005f2e:	2f00      	cmp	r7, #0
 8005f30:	d07d      	beq.n	800602e <HAL_SPI_TransmitReceive+0x162>
 8005f32:	f894 2051 	ldrb.w	r2, [r4, #81]	; 0x51
 8005f36:	6820      	ldr	r0, [r4, #0]
 8005f38:	f8c4 9038 	str.w	r9, [r4, #56]	; 0x38
 8005f3c:	2a04      	cmp	r2, #4
 8005f3e:	bf1c      	itt	ne
 8005f40:	2205      	movne	r2, #5
 8005f42:	f884 2051 	strbne.w	r2, [r4, #81]	; 0x51
 8005f46:	2200      	movs	r2, #0
 8005f48:	6562      	str	r2, [r4, #84]	; 0x54
 8005f4a:	87e7      	strh	r7, [r4, #62]	; 0x3e
 8005f4c:	86e7      	strh	r7, [r4, #54]	; 0x36
 8005f4e:	6801      	ldr	r1, [r0, #0]
 8005f50:	87a7      	strh	r7, [r4, #60]	; 0x3c
 8005f52:	e9c4 2210 	strd	r2, r2, [r4, #64]	; 0x40
 8005f56:	064a      	lsls	r2, r1, #25
 8005f58:	f8c4 8030 	str.w	r8, [r4, #48]	; 0x30
 8005f5c:	86a7      	strh	r7, [r4, #52]	; 0x34
 8005f5e:	d403      	bmi.n	8005f68 <HAL_SPI_TransmitReceive+0x9c>
 8005f60:	6802      	ldr	r2, [r0, #0]
 8005f62:	f042 0240 	orr.w	r2, r2, #64	; 0x40
 8005f66:	6002      	str	r2, [r0, #0]
 8005f68:	68e2      	ldr	r2, [r4, #12]
 8005f6a:	f5b2 6f00 	cmp.w	r2, #2048	; 0x800
 8005f6e:	f000 80ac 	beq.w	80060ca <HAL_SPI_TransmitReceive+0x1fe>
 8005f72:	2b00      	cmp	r3, #0
 8005f74:	f000 809e 	beq.w	80060b4 <HAL_SPI_TransmitReceive+0x1e8>
 8005f78:	2f01      	cmp	r7, #1
 8005f7a:	f000 809b 	beq.w	80060b4 <HAL_SPI_TransmitReceive+0x1e8>
 8005f7e:	9b0a      	ldr	r3, [sp, #40]	; 0x28
 8005f80:	3301      	adds	r3, #1
 8005f82:	f04f 0601 	mov.w	r6, #1
 8005f86:	d028      	beq.n	8005fda <HAL_SPI_TransmitReceive+0x10e>
 8005f88:	e053      	b.n	8006032 <HAL_SPI_TransmitReceive+0x166>
 8005f8a:	6822      	ldr	r2, [r4, #0]
 8005f8c:	6893      	ldr	r3, [r2, #8]
 8005f8e:	0798      	lsls	r0, r3, #30
 8005f90:	d50f      	bpl.n	8005fb2 <HAL_SPI_TransmitReceive+0xe6>
 8005f92:	8ee3      	ldrh	r3, [r4, #54]	; 0x36
 8005f94:	b29b      	uxth	r3, r3
 8005f96:	b163      	cbz	r3, 8005fb2 <HAL_SPI_TransmitReceive+0xe6>
 8005f98:	b15e      	cbz	r6, 8005fb2 <HAL_SPI_TransmitReceive+0xe6>
 8005f9a:	6b23      	ldr	r3, [r4, #48]	; 0x30
 8005f9c:	781b      	ldrb	r3, [r3, #0]
 8005f9e:	7313      	strb	r3, [r2, #12]
 8005fa0:	8ee3      	ldrh	r3, [r4, #54]	; 0x36
 8005fa2:	6b21      	ldr	r1, [r4, #48]	; 0x30
 8005fa4:	6822      	ldr	r2, [r4, #0]
 8005fa6:	3b01      	subs	r3, #1
 8005fa8:	b29b      	uxth	r3, r3
 8005faa:	3101      	adds	r1, #1
 8005fac:	86e3      	strh	r3, [r4, #54]	; 0x36
 8005fae:	6321      	str	r1, [r4, #48]	; 0x30
 8005fb0:	2600      	movs	r6, #0
 8005fb2:	6893      	ldr	r3, [r2, #8]
 8005fb4:	f013 0301 	ands.w	r3, r3, #1
 8005fb8:	d00d      	beq.n	8005fd6 <HAL_SPI_TransmitReceive+0x10a>
 8005fba:	8fe1      	ldrh	r1, [r4, #62]	; 0x3e
 8005fbc:	b289      	uxth	r1, r1
 8005fbe:	b151      	cbz	r1, 8005fd6 <HAL_SPI_TransmitReceive+0x10a>
 8005fc0:	6ba1      	ldr	r1, [r4, #56]	; 0x38
 8005fc2:	68d2      	ldr	r2, [r2, #12]
 8005fc4:	700a      	strb	r2, [r1, #0]
 8005fc6:	8fe2      	ldrh	r2, [r4, #62]	; 0x3e
 8005fc8:	6ba1      	ldr	r1, [r4, #56]	; 0x38
 8005fca:	3a01      	subs	r2, #1
 8005fcc:	b292      	uxth	r2, r2
 8005fce:	3101      	adds	r1, #1
 8005fd0:	461e      	mov	r6, r3
 8005fd2:	87e2      	strh	r2, [r4, #62]	; 0x3e
 8005fd4:	63a1      	str	r1, [r4, #56]	; 0x38
 8005fd6:	f7fd ff51 	bl	8003e7c <HAL_GetTick>
 8005fda:	8ee3      	ldrh	r3, [r4, #54]	; 0x36
 8005fdc:	b29b      	uxth	r3, r3
 8005fde:	2b00      	cmp	r3, #0
 8005fe0:	d1d3      	bne.n	8005f8a <HAL_SPI_TransmitReceive+0xbe>
 8005fe2:	8fe3      	ldrh	r3, [r4, #62]	; 0x3e
 8005fe4:	b29b      	uxth	r3, r3
 8005fe6:	2b00      	cmp	r3, #0
 8005fe8:	d1cf      	bne.n	8005f8a <HAL_SPI_TransmitReceive+0xbe>
 8005fea:	4b79      	ldr	r3, [pc, #484]	; (80061d0 <HAL_SPI_TransmitReceive+0x304>)
 8005fec:	4a79      	ldr	r2, [pc, #484]	; (80061d4 <HAL_SPI_TransmitReceive+0x308>)
 8005fee:	681b      	ldr	r3, [r3, #0]
 8005ff0:	6861      	ldr	r1, [r4, #4]
 8005ff2:	fba2 2303 	umull	r2, r3, r2, r3
 8005ff6:	0d5b      	lsrs	r3, r3, #21
 8005ff8:	f44f 727a 	mov.w	r2, #1000	; 0x3e8
 8005ffc:	fb02 f303 	mul.w	r3, r2, r3
 8006000:	f5b1 7f82 	cmp.w	r1, #260	; 0x104
 8006004:	9301      	str	r3, [sp, #4]
 8006006:	d146      	bne.n	8006096 <HAL_SPI_TransmitReceive+0x1ca>
 8006008:	9a0a      	ldr	r2, [sp, #40]	; 0x28
 800600a:	462b      	mov	r3, r5
 800600c:	2180      	movs	r1, #128	; 0x80
 800600e:	4620      	mov	r0, r4
 8006010:	f7ff fd78 	bl	8005b04 <SPI_WaitFlagStateUntilTimeout.constprop.0>
 8006014:	2800      	cmp	r0, #0
 8006016:	d041      	beq.n	800609c <HAL_SPI_TransmitReceive+0x1d0>
 8006018:	6d63      	ldr	r3, [r4, #84]	; 0x54
 800601a:	2220      	movs	r2, #32
 800601c:	4313      	orrs	r3, r2
 800601e:	6563      	str	r3, [r4, #84]	; 0x54
 8006020:	2001      	movs	r0, #1
 8006022:	6562      	str	r2, [r4, #84]	; 0x54
 8006024:	e76e      	b.n	8005f04 <HAL_SPI_TransmitReceive+0x38>
 8006026:	2002      	movs	r0, #2
 8006028:	b003      	add	sp, #12
 800602a:	e8bd 83f0 	ldmia.w	sp!, {r4, r5, r6, r7, r8, r9, pc}
 800602e:	2001      	movs	r0, #1
 8006030:	e768      	b.n	8005f04 <HAL_SPI_TransmitReceive+0x38>
 8006032:	8ee3      	ldrh	r3, [r4, #54]	; 0x36
 8006034:	b29b      	uxth	r3, r3
 8006036:	b91b      	cbnz	r3, 8006040 <HAL_SPI_TransmitReceive+0x174>
 8006038:	8fe3      	ldrh	r3, [r4, #62]	; 0x3e
 800603a:	b29b      	uxth	r3, r3
 800603c:	2b00      	cmp	r3, #0
 800603e:	d0d4      	beq.n	8005fea <HAL_SPI_TransmitReceive+0x11e>
 8006040:	6822      	ldr	r2, [r4, #0]
 8006042:	6893      	ldr	r3, [r2, #8]
 8006044:	0799      	lsls	r1, r3, #30
 8006046:	d50f      	bpl.n	8006068 <HAL_SPI_TransmitReceive+0x19c>
 8006048:	8ee3      	ldrh	r3, [r4, #54]	; 0x36
 800604a:	b29b      	uxth	r3, r3
 800604c:	b163      	cbz	r3, 8006068 <HAL_SPI_TransmitReceive+0x19c>
 800604e:	b15e      	cbz	r6, 8006068 <HAL_SPI_TransmitReceive+0x19c>
 8006050:	6b23      	ldr	r3, [r4, #48]	; 0x30
 8006052:	781b      	ldrb	r3, [r3, #0]
 8006054:	7313      	strb	r3, [r2, #12]
 8006056:	8ee3      	ldrh	r3, [r4, #54]	; 0x36
 8006058:	6b21      	ldr	r1, [r4, #48]	; 0x30
 800605a:	6822      	ldr	r2, [r4, #0]
 800605c:	3b01      	subs	r3, #1
 800605e:	b29b      	uxth	r3, r3
 8006060:	3101      	adds	r1, #1
 8006062:	86e3      	strh	r3, [r4, #54]	; 0x36
 8006064:	6321      	str	r1, [r4, #48]	; 0x30
 8006066:	2600      	movs	r6, #0
 8006068:	6893      	ldr	r3, [r2, #8]
 800606a:	f013 0301 	ands.w	r3, r3, #1
 800606e:	d003      	beq.n	8006078 <HAL_SPI_TransmitReceive+0x1ac>
 8006070:	8fe1      	ldrh	r1, [r4, #62]	; 0x3e
 8006072:	b289      	uxth	r1, r1
 8006074:	2900      	cmp	r1, #0
 8006076:	d167      	bne.n	8006148 <HAL_SPI_TransmitReceive+0x27c>
 8006078:	f7fd ff00 	bl	8003e7c <HAL_GetTick>
 800607c:	9b0a      	ldr	r3, [sp, #40]	; 0x28
 800607e:	1b40      	subs	r0, r0, r5
 8006080:	4298      	cmp	r0, r3
 8006082:	d3d6      	bcc.n	8006032 <HAL_SPI_TransmitReceive+0x166>
 8006084:	2003      	movs	r0, #3
 8006086:	e73d      	b.n	8005f04 <HAL_SPI_TransmitReceive+0x38>
 8006088:	9b01      	ldr	r3, [sp, #4]
 800608a:	6822      	ldr	r2, [r4, #0]
 800608c:	3b01      	subs	r3, #1
 800608e:	9301      	str	r3, [sp, #4]
 8006090:	6893      	ldr	r3, [r2, #8]
 8006092:	061b      	lsls	r3, r3, #24
 8006094:	d502      	bpl.n	800609c <HAL_SPI_TransmitReceive+0x1d0>
 8006096:	9b01      	ldr	r3, [sp, #4]
 8006098:	2b00      	cmp	r3, #0
 800609a:	d1f5      	bne.n	8006088 <HAL_SPI_TransmitReceive+0x1bc>
 800609c:	68a0      	ldr	r0, [r4, #8]
 800609e:	2800      	cmp	r0, #0
 80060a0:	f040 8093 	bne.w	80061ca <HAL_SPI_TransmitReceive+0x2fe>
 80060a4:	6823      	ldr	r3, [r4, #0]
 80060a6:	9000      	str	r0, [sp, #0]
 80060a8:	68da      	ldr	r2, [r3, #12]
 80060aa:	9200      	str	r2, [sp, #0]
 80060ac:	689b      	ldr	r3, [r3, #8]
 80060ae:	9300      	str	r3, [sp, #0]
 80060b0:	9b00      	ldr	r3, [sp, #0]
 80060b2:	e727      	b.n	8005f04 <HAL_SPI_TransmitReceive+0x38>
 80060b4:	f898 3000 	ldrb.w	r3, [r8]
 80060b8:	7303      	strb	r3, [r0, #12]
 80060ba:	8ee3      	ldrh	r3, [r4, #54]	; 0x36
 80060bc:	6b22      	ldr	r2, [r4, #48]	; 0x30
 80060be:	3b01      	subs	r3, #1
 80060c0:	b29b      	uxth	r3, r3
 80060c2:	3201      	adds	r2, #1
 80060c4:	86e3      	strh	r3, [r4, #54]	; 0x36
 80060c6:	6322      	str	r2, [r4, #48]	; 0x30
 80060c8:	e759      	b.n	8005f7e <HAL_SPI_TransmitReceive+0xb2>
 80060ca:	2b00      	cmp	r3, #0
 80060cc:	d148      	bne.n	8006160 <HAL_SPI_TransmitReceive+0x294>
 80060ce:	4641      	mov	r1, r8
 80060d0:	f831 3b02 	ldrh.w	r3, [r1], #2
 80060d4:	60c3      	str	r3, [r0, #12]
 80060d6:	8ee3      	ldrh	r3, [r4, #54]	; 0x36
 80060d8:	6321      	str	r1, [r4, #48]	; 0x30
 80060da:	3b01      	subs	r3, #1
 80060dc:	b29b      	uxth	r3, r3
 80060de:	86e3      	strh	r3, [r4, #54]	; 0x36
 80060e0:	9b0a      	ldr	r3, [sp, #40]	; 0x28
 80060e2:	3301      	adds	r3, #1
 80060e4:	f04f 0601 	mov.w	r6, #1
 80060e8:	d025      	beq.n	8006136 <HAL_SPI_TransmitReceive+0x26a>
 80060ea:	e03c      	b.n	8006166 <HAL_SPI_TransmitReceive+0x29a>
 80060ec:	6822      	ldr	r2, [r4, #0]
 80060ee:	6893      	ldr	r3, [r2, #8]
 80060f0:	079b      	lsls	r3, r3, #30
 80060f2:	d50d      	bpl.n	8006110 <HAL_SPI_TransmitReceive+0x244>
 80060f4:	8ee3      	ldrh	r3, [r4, #54]	; 0x36
 80060f6:	b29b      	uxth	r3, r3
 80060f8:	b153      	cbz	r3, 8006110 <HAL_SPI_TransmitReceive+0x244>
 80060fa:	b14e      	cbz	r6, 8006110 <HAL_SPI_TransmitReceive+0x244>
 80060fc:	6b21      	ldr	r1, [r4, #48]	; 0x30
 80060fe:	f831 3b02 	ldrh.w	r3, [r1], #2
 8006102:	60d3      	str	r3, [r2, #12]
 8006104:	8ee3      	ldrh	r3, [r4, #54]	; 0x36
 8006106:	6321      	str	r1, [r4, #48]	; 0x30
 8006108:	3b01      	subs	r3, #1
 800610a:	b29b      	uxth	r3, r3
 800610c:	86e3      	strh	r3, [r4, #54]	; 0x36
 800610e:	2600      	movs	r6, #0
 8006110:	6893      	ldr	r3, [r2, #8]
 8006112:	f013 0301 	ands.w	r3, r3, #1
 8006116:	d00c      	beq.n	8006132 <HAL_SPI_TransmitReceive+0x266>
 8006118:	8fe1      	ldrh	r1, [r4, #62]	; 0x3e
 800611a:	b289      	uxth	r1, r1
 800611c:	b149      	cbz	r1, 8006132 <HAL_SPI_TransmitReceive+0x266>
 800611e:	6ba1      	ldr	r1, [r4, #56]	; 0x38
 8006120:	68d2      	ldr	r2, [r2, #12]
 8006122:	f821 2b02 	strh.w	r2, [r1], #2
 8006126:	8fe2      	ldrh	r2, [r4, #62]	; 0x3e
 8006128:	63a1      	str	r1, [r4, #56]	; 0x38
 800612a:	3a01      	subs	r2, #1
 800612c:	b292      	uxth	r2, r2
 800612e:	461e      	mov	r6, r3
 8006130:	87e2      	strh	r2, [r4, #62]	; 0x3e
 8006132:	f7fd fea3 	bl	8003e7c <HAL_GetTick>
 8006136:	8ee3      	ldrh	r3, [r4, #54]	; 0x36
 8006138:	b29b      	uxth	r3, r3
 800613a:	2b00      	cmp	r3, #0
 800613c:	d1d6      	bne.n	80060ec <HAL_SPI_TransmitReceive+0x220>
 800613e:	8fe3      	ldrh	r3, [r4, #62]	; 0x3e
 8006140:	b29b      	uxth	r3, r3
 8006142:	2b00      	cmp	r3, #0
 8006144:	d1d2      	bne.n	80060ec <HAL_SPI_TransmitReceive+0x220>
 8006146:	e750      	b.n	8005fea <HAL_SPI_TransmitReceive+0x11e>
 8006148:	6ba1      	ldr	r1, [r4, #56]	; 0x38
 800614a:	68d2      	ldr	r2, [r2, #12]
 800614c:	700a      	strb	r2, [r1, #0]
 800614e:	8fe2      	ldrh	r2, [r4, #62]	; 0x3e
 8006150:	6ba1      	ldr	r1, [r4, #56]	; 0x38
 8006152:	3a01      	subs	r2, #1
 8006154:	b292      	uxth	r2, r2
 8006156:	3101      	adds	r1, #1
 8006158:	461e      	mov	r6, r3
 800615a:	87e2      	strh	r2, [r4, #62]	; 0x3e
 800615c:	63a1      	str	r1, [r4, #56]	; 0x38
 800615e:	e78b      	b.n	8006078 <HAL_SPI_TransmitReceive+0x1ac>
 8006160:	2f01      	cmp	r7, #1
 8006162:	d1bd      	bne.n	80060e0 <HAL_SPI_TransmitReceive+0x214>
 8006164:	e7b3      	b.n	80060ce <HAL_SPI_TransmitReceive+0x202>
 8006166:	8ee3      	ldrh	r3, [r4, #54]	; 0x36
 8006168:	b29b      	uxth	r3, r3
 800616a:	b923      	cbnz	r3, 8006176 <HAL_SPI_TransmitReceive+0x2aa>
 800616c:	8fe3      	ldrh	r3, [r4, #62]	; 0x3e
 800616e:	b29b      	uxth	r3, r3
 8006170:	2b00      	cmp	r3, #0
 8006172:	f43f af3a 	beq.w	8005fea <HAL_SPI_TransmitReceive+0x11e>
 8006176:	6822      	ldr	r2, [r4, #0]
 8006178:	6893      	ldr	r3, [r2, #8]
 800617a:	079f      	lsls	r7, r3, #30
 800617c:	d50d      	bpl.n	800619a <HAL_SPI_TransmitReceive+0x2ce>
 800617e:	8ee3      	ldrh	r3, [r4, #54]	; 0x36
 8006180:	b29b      	uxth	r3, r3
 8006182:	b153      	cbz	r3, 800619a <HAL_SPI_TransmitReceive+0x2ce>
 8006184:	b14e      	cbz	r6, 800619a <HAL_SPI_TransmitReceive+0x2ce>
 8006186:	6b21      	ldr	r1, [r4, #48]	; 0x30
 8006188:	f831 3b02 	ldrh.w	r3, [r1], #2
 800618c:	60d3      	str	r3, [r2, #12]
 800618e:	8ee3      	ldrh	r3, [r4, #54]	; 0x36
 8006190:	6321      	str	r1, [r4, #48]	; 0x30
 8006192:	3b01      	subs	r3, #1
 8006194:	b29b      	uxth	r3, r3
 8006196:	86e3      	strh	r3, [r4, #54]	; 0x36
 8006198:	2600      	movs	r6, #0
 800619a:	6893      	ldr	r3, [r2, #8]
 800619c:	f013 0301 	ands.w	r3, r3, #1
 80061a0:	d00c      	beq.n	80061bc <HAL_SPI_TransmitReceive+0x2f0>
 80061a2:	8fe1      	ldrh	r1, [r4, #62]	; 0x3e
 80061a4:	b289      	uxth	r1, r1
 80061a6:	b149      	cbz	r1, 80061bc <HAL_SPI_TransmitReceive+0x2f0>
 80061a8:	6ba1      	ldr	r1, [r4, #56]	; 0x38
 80061aa:	68d2      	ldr	r2, [r2, #12]
 80061ac:	f821 2b02 	strh.w	r2, [r1], #2
 80061b0:	8fe2      	ldrh	r2, [r4, #62]	; 0x3e
 80061b2:	63a1      	str	r1, [r4, #56]	; 0x38
 80061b4:	3a01      	subs	r2, #1
 80061b6:	b292      	uxth	r2, r2
 80061b8:	461e      	mov	r6, r3
 80061ba:	87e2      	strh	r2, [r4, #62]	; 0x3e
 80061bc:	f7fd fe5e 	bl	8003e7c <HAL_GetTick>
 80061c0:	9b0a      	ldr	r3, [sp, #40]	; 0x28
 80061c2:	1b40      	subs	r0, r0, r5
 80061c4:	4298      	cmp	r0, r3
 80061c6:	d3ce      	bcc.n	8006166 <HAL_SPI_TransmitReceive+0x29a>
 80061c8:	e75c      	b.n	8006084 <HAL_SPI_TransmitReceive+0x1b8>
 80061ca:	2000      	movs	r0, #0
 80061cc:	e69a      	b.n	8005f04 <HAL_SPI_TransmitReceive+0x38>
 80061ce:	bf00      	nop
 80061d0:	2000001c 	.word	0x2000001c
 80061d4:	165e9f81 	.word	0x165e9f81

080061d8 <HAL_TIM_Base_Init>:
 80061d8:	2800      	cmp	r0, #0
 80061da:	d076      	beq.n	80062ca <HAL_TIM_Base_Init+0xf2>
 80061dc:	b538      	push	{r3, r4, r5, lr}
 80061de:	f890 303d 	ldrb.w	r3, [r0, #61]	; 0x3d
 80061e2:	4604      	mov	r4, r0
 80061e4:	f003 02ff 	and.w	r2, r3, #255	; 0xff
 80061e8:	2b00      	cmp	r3, #0
 80061ea:	d055      	beq.n	8006298 <HAL_TIM_Base_Init+0xc0>
 80061ec:	6822      	ldr	r2, [r4, #0]
 80061ee:	4938      	ldr	r1, [pc, #224]	; (80062d0 <HAL_TIM_Base_Init+0xf8>)
 80061f0:	2302      	movs	r3, #2
 80061f2:	f884 303d 	strb.w	r3, [r4, #61]	; 0x3d
 80061f6:	428a      	cmp	r2, r1
 80061f8:	6813      	ldr	r3, [r2, #0]
 80061fa:	d052      	beq.n	80062a2 <HAL_TIM_Base_Init+0xca>
 80061fc:	f1b2 4f80 	cmp.w	r2, #1073741824	; 0x40000000
 8006200:	d021      	beq.n	8006246 <HAL_TIM_Base_Init+0x6e>
 8006202:	f5a1 417c 	sub.w	r1, r1, #64512	; 0xfc00
 8006206:	428a      	cmp	r2, r1
 8006208:	d01d      	beq.n	8006246 <HAL_TIM_Base_Init+0x6e>
 800620a:	f501 6180 	add.w	r1, r1, #1024	; 0x400
 800620e:	428a      	cmp	r2, r1
 8006210:	d019      	beq.n	8006246 <HAL_TIM_Base_Init+0x6e>
 8006212:	f501 6180 	add.w	r1, r1, #1024	; 0x400
 8006216:	428a      	cmp	r2, r1
 8006218:	d015      	beq.n	8006246 <HAL_TIM_Base_Init+0x6e>
 800621a:	f501 319a 	add.w	r1, r1, #78848	; 0x13400
 800621e:	428a      	cmp	r2, r1
 8006220:	d015      	beq.n	800624e <HAL_TIM_Base_Init+0x76>
 8006222:	f501 6180 	add.w	r1, r1, #1024	; 0x400
 8006226:	428a      	cmp	r2, r1
 8006228:	d011      	beq.n	800624e <HAL_TIM_Base_Init+0x76>
 800622a:	f501 6180 	add.w	r1, r1, #1024	; 0x400
 800622e:	428a      	cmp	r2, r1
 8006230:	d00d      	beq.n	800624e <HAL_TIM_Base_Init+0x76>
 8006232:	69a5      	ldr	r5, [r4, #24]
 8006234:	68e0      	ldr	r0, [r4, #12]
 8006236:	6861      	ldr	r1, [r4, #4]
 8006238:	f023 0380 	bic.w	r3, r3, #128	; 0x80
 800623c:	432b      	orrs	r3, r5
 800623e:	6013      	str	r3, [r2, #0]
 8006240:	62d0      	str	r0, [r2, #44]	; 0x2c
 8006242:	6291      	str	r1, [r2, #40]	; 0x28
 8006244:	e010      	b.n	8006268 <HAL_TIM_Base_Init+0x90>
 8006246:	68a1      	ldr	r1, [r4, #8]
 8006248:	f023 0370 	bic.w	r3, r3, #112	; 0x70
 800624c:	430b      	orrs	r3, r1
 800624e:	6925      	ldr	r5, [r4, #16]
 8006250:	69a1      	ldr	r1, [r4, #24]
 8006252:	68e0      	ldr	r0, [r4, #12]
 8006254:	f423 7340 	bic.w	r3, r3, #768	; 0x300
 8006258:	432b      	orrs	r3, r5
 800625a:	f023 0380 	bic.w	r3, r3, #128	; 0x80
 800625e:	430b      	orrs	r3, r1
 8006260:	6861      	ldr	r1, [r4, #4]
 8006262:	6013      	str	r3, [r2, #0]
 8006264:	62d0      	str	r0, [r2, #44]	; 0x2c
 8006266:	6291      	str	r1, [r2, #40]	; 0x28
 8006268:	2301      	movs	r3, #1
 800626a:	6153      	str	r3, [r2, #20]
 800626c:	f884 3046 	strb.w	r3, [r4, #70]	; 0x46
 8006270:	f884 303e 	strb.w	r3, [r4, #62]	; 0x3e
 8006274:	f884 303f 	strb.w	r3, [r4, #63]	; 0x3f
 8006278:	f884 3040 	strb.w	r3, [r4, #64]	; 0x40
 800627c:	f884 3041 	strb.w	r3, [r4, #65]	; 0x41
 8006280:	f884 3042 	strb.w	r3, [r4, #66]	; 0x42
 8006284:	f884 3043 	strb.w	r3, [r4, #67]	; 0x43
 8006288:	f884 3044 	strb.w	r3, [r4, #68]	; 0x44
 800628c:	f884 3045 	strb.w	r3, [r4, #69]	; 0x45
 8006290:	f884 303d 	strb.w	r3, [r4, #61]	; 0x3d
 8006294:	2000      	movs	r0, #0
 8006296:	bd38      	pop	{r3, r4, r5, pc}
 8006298:	f880 203c 	strb.w	r2, [r0, #60]	; 0x3c
 800629c:	f7fd fc5c 	bl	8003b58 <HAL_TIM_Base_MspInit>
 80062a0:	e7a4      	b.n	80061ec <HAL_TIM_Base_Init+0x14>
 80062a2:	68a5      	ldr	r5, [r4, #8]
 80062a4:	6920      	ldr	r0, [r4, #16]
 80062a6:	69a1      	ldr	r1, [r4, #24]
 80062a8:	f023 0370 	bic.w	r3, r3, #112	; 0x70
 80062ac:	432b      	orrs	r3, r5
 80062ae:	f423 7340 	bic.w	r3, r3, #768	; 0x300
 80062b2:	4303      	orrs	r3, r0
 80062b4:	f023 0380 	bic.w	r3, r3, #128	; 0x80
 80062b8:	430b      	orrs	r3, r1
 80062ba:	6013      	str	r3, [r2, #0]
 80062bc:	68e3      	ldr	r3, [r4, #12]
 80062be:	62d3      	str	r3, [r2, #44]	; 0x2c
 80062c0:	6863      	ldr	r3, [r4, #4]
 80062c2:	6293      	str	r3, [r2, #40]	; 0x28
 80062c4:	6963      	ldr	r3, [r4, #20]
 80062c6:	6313      	str	r3, [r2, #48]	; 0x30
 80062c8:	e7ce      	b.n	8006268 <HAL_TIM_Base_Init+0x90>
 80062ca:	2001      	movs	r0, #1
 80062cc:	4770      	bx	lr
 80062ce:	bf00      	nop
 80062d0:	40010000 	.word	0x40010000

080062d4 <HAL_TIM_Base_Start>:
 80062d4:	f890 303d 	ldrb.w	r3, [r0, #61]	; 0x3d
 80062d8:	2b01      	cmp	r3, #1
 80062da:	d124      	bne.n	8006326 <HAL_TIM_Base_Start+0x52>
 80062dc:	6803      	ldr	r3, [r0, #0]
 80062de:	4a14      	ldr	r2, [pc, #80]	; (8006330 <HAL_TIM_Base_Start+0x5c>)
 80062e0:	2102      	movs	r1, #2
 80062e2:	4293      	cmp	r3, r2
 80062e4:	f880 103d 	strb.w	r1, [r0, #61]	; 0x3d
 80062e8:	d012      	beq.n	8006310 <HAL_TIM_Base_Start+0x3c>
 80062ea:	f1b3 4f80 	cmp.w	r3, #1073741824	; 0x40000000
 80062ee:	d00f      	beq.n	8006310 <HAL_TIM_Base_Start+0x3c>
 80062f0:	f5a2 427c 	sub.w	r2, r2, #64512	; 0xfc00
 80062f4:	4293      	cmp	r3, r2
 80062f6:	d00b      	beq.n	8006310 <HAL_TIM_Base_Start+0x3c>
 80062f8:	f502 6280 	add.w	r2, r2, #1024	; 0x400
 80062fc:	4293      	cmp	r3, r2
 80062fe:	d007      	beq.n	8006310 <HAL_TIM_Base_Start+0x3c>
 8006300:	f502 6280 	add.w	r2, r2, #1024	; 0x400
 8006304:	4293      	cmp	r3, r2
 8006306:	d003      	beq.n	8006310 <HAL_TIM_Base_Start+0x3c>
 8006308:	f502 329a 	add.w	r2, r2, #78848	; 0x13400
 800630c:	4293      	cmp	r3, r2
 800630e:	d104      	bne.n	800631a <HAL_TIM_Base_Start+0x46>
 8006310:	689a      	ldr	r2, [r3, #8]
 8006312:	f002 0207 	and.w	r2, r2, #7
 8006316:	2a06      	cmp	r2, #6
 8006318:	d007      	beq.n	800632a <HAL_TIM_Base_Start+0x56>
 800631a:	681a      	ldr	r2, [r3, #0]
 800631c:	f042 0201 	orr.w	r2, r2, #1
 8006320:	601a      	str	r2, [r3, #0]
 8006322:	2000      	movs	r0, #0
 8006324:	4770      	bx	lr
 8006326:	2001      	movs	r0, #1
 8006328:	4770      	bx	lr
 800632a:	2000      	movs	r0, #0
 800632c:	4770      	bx	lr
 800632e:	bf00      	nop
 8006330:	40010000 	.word	0x40010000

08006334 <HAL_TIM_Encoder_Init>:
 8006334:	2800      	cmp	r0, #0
 8006336:	f000 80a5 	beq.w	8006484 <HAL_TIM_Encoder_Init+0x150>
 800633a:	e92d 41f0 	stmdb	sp!, {r4, r5, r6, r7, r8, lr}
 800633e:	f890 303d 	ldrb.w	r3, [r0, #61]	; 0x3d
 8006342:	460d      	mov	r5, r1
 8006344:	4604      	mov	r4, r0
 8006346:	f003 02ff 	and.w	r2, r3, #255	; 0xff
 800634a:	2b00      	cmp	r3, #0
 800634c:	f000 8081 	beq.w	8006452 <HAL_TIM_Encoder_Init+0x11e>
 8006350:	6823      	ldr	r3, [r4, #0]
 8006352:	494d      	ldr	r1, [pc, #308]	; (8006488 <HAL_TIM_Encoder_Init+0x154>)
 8006354:	2202      	movs	r2, #2
 8006356:	f884 203d 	strb.w	r2, [r4, #61]	; 0x3d
 800635a:	689a      	ldr	r2, [r3, #8]
 800635c:	f422 4280 	bic.w	r2, r2, #16384	; 0x4000
 8006360:	f022 0207 	bic.w	r2, r2, #7
 8006364:	609a      	str	r2, [r3, #8]
 8006366:	428b      	cmp	r3, r1
 8006368:	681a      	ldr	r2, [r3, #0]
 800636a:	d077      	beq.n	800645c <HAL_TIM_Encoder_Init+0x128>
 800636c:	f1b3 4f80 	cmp.w	r3, #1073741824	; 0x40000000
 8006370:	d021      	beq.n	80063b6 <HAL_TIM_Encoder_Init+0x82>
 8006372:	f5a1 417c 	sub.w	r1, r1, #64512	; 0xfc00
 8006376:	428b      	cmp	r3, r1
 8006378:	d01d      	beq.n	80063b6 <HAL_TIM_Encoder_Init+0x82>
 800637a:	f501 6180 	add.w	r1, r1, #1024	; 0x400
 800637e:	428b      	cmp	r3, r1
 8006380:	d019      	beq.n	80063b6 <HAL_TIM_Encoder_Init+0x82>
 8006382:	f501 6180 	add.w	r1, r1, #1024	; 0x400
 8006386:	428b      	cmp	r3, r1
 8006388:	d015      	beq.n	80063b6 <HAL_TIM_Encoder_Init+0x82>
 800638a:	f501 319a 	add.w	r1, r1, #78848	; 0x13400
 800638e:	428b      	cmp	r3, r1
 8006390:	d015      	beq.n	80063be <HAL_TIM_Encoder_Init+0x8a>
 8006392:	f501 6180 	add.w	r1, r1, #1024	; 0x400
 8006396:	428b      	cmp	r3, r1
 8006398:	d011      	beq.n	80063be <HAL_TIM_Encoder_Init+0x8a>
 800639a:	f501 6180 	add.w	r1, r1, #1024	; 0x400
 800639e:	428b      	cmp	r3, r1
 80063a0:	d00d      	beq.n	80063be <HAL_TIM_Encoder_Init+0x8a>
 80063a2:	69a1      	ldr	r1, [r4, #24]
 80063a4:	68e0      	ldr	r0, [r4, #12]
 80063a6:	f022 0280 	bic.w	r2, r2, #128	; 0x80
 80063aa:	430a      	orrs	r2, r1
 80063ac:	6861      	ldr	r1, [r4, #4]
 80063ae:	601a      	str	r2, [r3, #0]
 80063b0:	62d8      	str	r0, [r3, #44]	; 0x2c
 80063b2:	6299      	str	r1, [r3, #40]	; 0x28
 80063b4:	e010      	b.n	80063d8 <HAL_TIM_Encoder_Init+0xa4>
 80063b6:	68a1      	ldr	r1, [r4, #8]
 80063b8:	f022 0270 	bic.w	r2, r2, #112	; 0x70
 80063bc:	430a      	orrs	r2, r1
 80063be:	6920      	ldr	r0, [r4, #16]
 80063c0:	69a1      	ldr	r1, [r4, #24]
 80063c2:	f422 7240 	bic.w	r2, r2, #768	; 0x300
 80063c6:	4302      	orrs	r2, r0
 80063c8:	f022 0280 	bic.w	r2, r2, #128	; 0x80
 80063cc:	68e0      	ldr	r0, [r4, #12]
 80063ce:	430a      	orrs	r2, r1
 80063d0:	6861      	ldr	r1, [r4, #4]
 80063d2:	601a      	str	r2, [r3, #0]
 80063d4:	62d8      	str	r0, [r3, #44]	; 0x2c
 80063d6:	6299      	str	r1, [r3, #40]	; 0x28
 80063d8:	2601      	movs	r6, #1
 80063da:	615e      	str	r6, [r3, #20]
 80063dc:	f8d3 c008 	ldr.w	ip, [r3, #8]
 80063e0:	6999      	ldr	r1, [r3, #24]
 80063e2:	69af      	ldr	r7, [r5, #24]
 80063e4:	692a      	ldr	r2, [r5, #16]
 80063e6:	69e8      	ldr	r0, [r5, #28]
 80063e8:	f8d5 e000 	ldr.w	lr, [r5]
 80063ec:	f421 7840 	bic.w	r8, r1, #768	; 0x300
 80063f0:	68a9      	ldr	r1, [r5, #8]
 80063f2:	0112      	lsls	r2, r2, #4
 80063f4:	ea41 2707 	orr.w	r7, r1, r7, lsl #8
 80063f8:	68e9      	ldr	r1, [r5, #12]
 80063fa:	ea42 2200 	orr.w	r2, r2, r0, lsl #8
 80063fe:	430a      	orrs	r2, r1
 8006400:	6a29      	ldr	r1, [r5, #32]
 8006402:	6a18      	ldr	r0, [r3, #32]
 8006404:	f028 0803 	bic.w	r8, r8, #3
 8006408:	ea47 0708 	orr.w	r7, r7, r8
 800640c:	ea42 3201 	orr.w	r2, r2, r1, lsl #12
 8006410:	f8d5 8014 	ldr.w	r8, [r5, #20]
 8006414:	6869      	ldr	r1, [r5, #4]
 8006416:	f427 477c 	bic.w	r7, r7, #64512	; 0xfc00
 800641a:	f027 07fc 	bic.w	r7, r7, #252	; 0xfc
 800641e:	f020 00aa 	bic.w	r0, r0, #170	; 0xaa
 8006422:	ea41 1108 	orr.w	r1, r1, r8, lsl #4
 8006426:	4301      	orrs	r1, r0
 8006428:	ea4c 050e 	orr.w	r5, ip, lr
 800642c:	433a      	orrs	r2, r7
 800642e:	609d      	str	r5, [r3, #8]
 8006430:	619a      	str	r2, [r3, #24]
 8006432:	6219      	str	r1, [r3, #32]
 8006434:	f884 6046 	strb.w	r6, [r4, #70]	; 0x46
 8006438:	f884 603e 	strb.w	r6, [r4, #62]	; 0x3e
 800643c:	f884 603f 	strb.w	r6, [r4, #63]	; 0x3f
 8006440:	f884 6042 	strb.w	r6, [r4, #66]	; 0x42
 8006444:	f884 6043 	strb.w	r6, [r4, #67]	; 0x43
 8006448:	f884 603d 	strb.w	r6, [r4, #61]	; 0x3d
 800644c:	2000      	movs	r0, #0
 800644e:	e8bd 81f0 	ldmia.w	sp!, {r4, r5, r6, r7, r8, pc}
 8006452:	f880 203c 	strb.w	r2, [r0, #60]	; 0x3c
 8006456:	f7fd fb49 	bl	8003aec <HAL_TIM_Encoder_MspInit>
 800645a:	e779      	b.n	8006350 <HAL_TIM_Encoder_Init+0x1c>
 800645c:	68a0      	ldr	r0, [r4, #8]
 800645e:	6921      	ldr	r1, [r4, #16]
 8006460:	f022 0270 	bic.w	r2, r2, #112	; 0x70
 8006464:	4302      	orrs	r2, r0
 8006466:	f422 7240 	bic.w	r2, r2, #768	; 0x300
 800646a:	430a      	orrs	r2, r1
 800646c:	69a1      	ldr	r1, [r4, #24]
 800646e:	f022 0280 	bic.w	r2, r2, #128	; 0x80
 8006472:	430a      	orrs	r2, r1
 8006474:	601a      	str	r2, [r3, #0]
 8006476:	68e2      	ldr	r2, [r4, #12]
 8006478:	62da      	str	r2, [r3, #44]	; 0x2c
 800647a:	6862      	ldr	r2, [r4, #4]
 800647c:	629a      	str	r2, [r3, #40]	; 0x28
 800647e:	6962      	ldr	r2, [r4, #20]
 8006480:	631a      	str	r2, [r3, #48]	; 0x30
 8006482:	e7a9      	b.n	80063d8 <HAL_TIM_Encoder_Init+0xa4>
 8006484:	2001      	movs	r0, #1
 8006486:	4770      	bx	lr
 8006488:	40010000 	.word	0x40010000

0800648c <HAL_TIM_Encoder_Start>:
 800648c:	b430      	push	{r4, r5}
 800648e:	f890 303e 	ldrb.w	r3, [r0, #62]	; 0x3e
 8006492:	f890 203f 	ldrb.w	r2, [r0, #63]	; 0x3f
 8006496:	f890 4042 	ldrb.w	r4, [r0, #66]	; 0x42
 800649a:	f890 5043 	ldrb.w	r5, [r0, #67]	; 0x43
 800649e:	b2db      	uxtb	r3, r3
 80064a0:	b2e4      	uxtb	r4, r4
 80064a2:	b929      	cbnz	r1, 80064b0 <HAL_TIM_Encoder_Start+0x24>
 80064a4:	2b01      	cmp	r3, #1
 80064a6:	d022      	beq.n	80064ee <HAL_TIM_Encoder_Start+0x62>
 80064a8:	2301      	movs	r3, #1
 80064aa:	4618      	mov	r0, r3
 80064ac:	bc30      	pop	{r4, r5}
 80064ae:	4770      	bx	lr
 80064b0:	2904      	cmp	r1, #4
 80064b2:	b2d2      	uxtb	r2, r2
 80064b4:	b2ed      	uxtb	r5, r5
 80064b6:	d032      	beq.n	800651e <HAL_TIM_Encoder_Start+0x92>
 80064b8:	2b01      	cmp	r3, #1
 80064ba:	d1f5      	bne.n	80064a8 <HAL_TIM_Encoder_Start+0x1c>
 80064bc:	2a01      	cmp	r2, #1
 80064be:	d1f4      	bne.n	80064aa <HAL_TIM_Encoder_Start+0x1e>
 80064c0:	2c01      	cmp	r4, #1
 80064c2:	d1f2      	bne.n	80064aa <HAL_TIM_Encoder_Start+0x1e>
 80064c4:	2d01      	cmp	r5, #1
 80064c6:	d1f0      	bne.n	80064aa <HAL_TIM_Encoder_Start+0x1e>
 80064c8:	2202      	movs	r2, #2
 80064ca:	6803      	ldr	r3, [r0, #0]
 80064cc:	f880 203e 	strb.w	r2, [r0, #62]	; 0x3e
 80064d0:	f880 203f 	strb.w	r2, [r0, #63]	; 0x3f
 80064d4:	f880 2042 	strb.w	r2, [r0, #66]	; 0x42
 80064d8:	f880 2043 	strb.w	r2, [r0, #67]	; 0x43
 80064dc:	6a1a      	ldr	r2, [r3, #32]
 80064de:	f022 0201 	bic.w	r2, r2, #1
 80064e2:	621a      	str	r2, [r3, #32]
 80064e4:	6a1a      	ldr	r2, [r3, #32]
 80064e6:	f042 0201 	orr.w	r2, r2, #1
 80064ea:	621a      	str	r2, [r3, #32]
 80064ec:	e021      	b.n	8006532 <HAL_TIM_Encoder_Start+0xa6>
 80064ee:	2c01      	cmp	r4, #1
 80064f0:	d1db      	bne.n	80064aa <HAL_TIM_Encoder_Start+0x1e>
 80064f2:	6803      	ldr	r3, [r0, #0]
 80064f4:	2202      	movs	r2, #2
 80064f6:	f880 203e 	strb.w	r2, [r0, #62]	; 0x3e
 80064fa:	f880 2042 	strb.w	r2, [r0, #66]	; 0x42
 80064fe:	6a1a      	ldr	r2, [r3, #32]
 8006500:	f022 0201 	bic.w	r2, r2, #1
 8006504:	621a      	str	r2, [r3, #32]
 8006506:	6a1a      	ldr	r2, [r3, #32]
 8006508:	f042 0201 	orr.w	r2, r2, #1
 800650c:	621a      	str	r2, [r3, #32]
 800650e:	681a      	ldr	r2, [r3, #0]
 8006510:	f042 0201 	orr.w	r2, r2, #1
 8006514:	601a      	str	r2, [r3, #0]
 8006516:	2300      	movs	r3, #0
 8006518:	4618      	mov	r0, r3
 800651a:	bc30      	pop	{r4, r5}
 800651c:	4770      	bx	lr
 800651e:	2a01      	cmp	r2, #1
 8006520:	d1c2      	bne.n	80064a8 <HAL_TIM_Encoder_Start+0x1c>
 8006522:	2d01      	cmp	r5, #1
 8006524:	d1c0      	bne.n	80064a8 <HAL_TIM_Encoder_Start+0x1c>
 8006526:	2202      	movs	r2, #2
 8006528:	6803      	ldr	r3, [r0, #0]
 800652a:	f880 203f 	strb.w	r2, [r0, #63]	; 0x3f
 800652e:	f880 2043 	strb.w	r2, [r0, #67]	; 0x43
 8006532:	6a1a      	ldr	r2, [r3, #32]
 8006534:	f022 0210 	bic.w	r2, r2, #16
 8006538:	621a      	str	r2, [r3, #32]
 800653a:	6a1a      	ldr	r2, [r3, #32]
 800653c:	f042 0210 	orr.w	r2, r2, #16
 8006540:	621a      	str	r2, [r3, #32]
 8006542:	e7e4      	b.n	800650e <HAL_TIM_Encoder_Start+0x82>

08006544 <HAL_TIM_ConfigClockSource>:
 8006544:	f890 303c 	ldrb.w	r3, [r0, #60]	; 0x3c
 8006548:	2b01      	cmp	r3, #1
 800654a:	d075      	beq.n	8006638 <HAL_TIM_ConfigClockSource+0xf4>
 800654c:	4602      	mov	r2, r0
 800654e:	b4f0      	push	{r4, r5, r6, r7}
 8006550:	2302      	movs	r3, #2
 8006552:	6814      	ldr	r4, [r2, #0]
 8006554:	f882 303d 	strb.w	r3, [r2, #61]	; 0x3d
 8006558:	2001      	movs	r0, #1
 800655a:	f882 003c 	strb.w	r0, [r2, #60]	; 0x3c
 800655e:	68a5      	ldr	r5, [r4, #8]
 8006560:	680b      	ldr	r3, [r1, #0]
 8006562:	f425 457f 	bic.w	r5, r5, #65280	; 0xff00
 8006566:	f025 0577 	bic.w	r5, r5, #119	; 0x77
 800656a:	2b60      	cmp	r3, #96	; 0x60
 800656c:	60a5      	str	r5, [r4, #8]
 800656e:	d065      	beq.n	800663c <HAL_TIM_ConfigClockSource+0xf8>
 8006570:	d824      	bhi.n	80065bc <HAL_TIM_ConfigClockSource+0x78>
 8006572:	2b40      	cmp	r3, #64	; 0x40
 8006574:	d07c      	beq.n	8006670 <HAL_TIM_ConfigClockSource+0x12c>
 8006576:	d94b      	bls.n	8006610 <HAL_TIM_ConfigClockSource+0xcc>
 8006578:	2b50      	cmp	r3, #80	; 0x50
 800657a:	d117      	bne.n	80065ac <HAL_TIM_ConfigClockSource+0x68>
 800657c:	6a25      	ldr	r5, [r4, #32]
 800657e:	6a26      	ldr	r6, [r4, #32]
 8006580:	6848      	ldr	r0, [r1, #4]
 8006582:	68cf      	ldr	r7, [r1, #12]
 8006584:	f026 0601 	bic.w	r6, r6, #1
 8006588:	6226      	str	r6, [r4, #32]
 800658a:	69a3      	ldr	r3, [r4, #24]
 800658c:	f025 010a 	bic.w	r1, r5, #10
 8006590:	f023 03f0 	bic.w	r3, r3, #240	; 0xf0
 8006594:	4301      	orrs	r1, r0
 8006596:	ea43 1307 	orr.w	r3, r3, r7, lsl #4
 800659a:	61a3      	str	r3, [r4, #24]
 800659c:	6221      	str	r1, [r4, #32]
 800659e:	68a3      	ldr	r3, [r4, #8]
 80065a0:	f023 0370 	bic.w	r3, r3, #112	; 0x70
 80065a4:	f043 0357 	orr.w	r3, r3, #87	; 0x57
 80065a8:	60a3      	str	r3, [r4, #8]
 80065aa:	2000      	movs	r0, #0
 80065ac:	2101      	movs	r1, #1
 80065ae:	2300      	movs	r3, #0
 80065b0:	f882 103d 	strb.w	r1, [r2, #61]	; 0x3d
 80065b4:	f882 303c 	strb.w	r3, [r2, #60]	; 0x3c
 80065b8:	bcf0      	pop	{r4, r5, r6, r7}
 80065ba:	4770      	bx	lr
 80065bc:	f5b3 5f80 	cmp.w	r3, #4096	; 0x1000
 80065c0:	d038      	beq.n	8006634 <HAL_TIM_ConfigClockSource+0xf0>
 80065c2:	f5b3 5f00 	cmp.w	r3, #8192	; 0x2000
 80065c6:	d110      	bne.n	80065ea <HAL_TIM_ConfigClockSource+0xa6>
 80065c8:	e9d1 5301 	ldrd	r5, r3, [r1, #4]
 80065cc:	68c8      	ldr	r0, [r1, #12]
 80065ce:	68a1      	ldr	r1, [r4, #8]
 80065d0:	432b      	orrs	r3, r5
 80065d2:	ea43 2300 	orr.w	r3, r3, r0, lsl #8
 80065d6:	f421 417f 	bic.w	r1, r1, #65280	; 0xff00
 80065da:	430b      	orrs	r3, r1
 80065dc:	60a3      	str	r3, [r4, #8]
 80065de:	68a3      	ldr	r3, [r4, #8]
 80065e0:	f443 4380 	orr.w	r3, r3, #16384	; 0x4000
 80065e4:	60a3      	str	r3, [r4, #8]
 80065e6:	2000      	movs	r0, #0
 80065e8:	e7e0      	b.n	80065ac <HAL_TIM_ConfigClockSource+0x68>
 80065ea:	2b70      	cmp	r3, #112	; 0x70
 80065ec:	d1de      	bne.n	80065ac <HAL_TIM_ConfigClockSource+0x68>
 80065ee:	e9d1 5301 	ldrd	r5, r3, [r1, #4]
 80065f2:	68c8      	ldr	r0, [r1, #12]
 80065f4:	68a1      	ldr	r1, [r4, #8]
 80065f6:	432b      	orrs	r3, r5
 80065f8:	ea43 2300 	orr.w	r3, r3, r0, lsl #8
 80065fc:	f421 417f 	bic.w	r1, r1, #65280	; 0xff00
 8006600:	430b      	orrs	r3, r1
 8006602:	60a3      	str	r3, [r4, #8]
 8006604:	68a3      	ldr	r3, [r4, #8]
 8006606:	f043 0377 	orr.w	r3, r3, #119	; 0x77
 800660a:	60a3      	str	r3, [r4, #8]
 800660c:	2000      	movs	r0, #0
 800660e:	e7cd      	b.n	80065ac <HAL_TIM_ConfigClockSource+0x68>
 8006610:	2b20      	cmp	r3, #32
 8006612:	d002      	beq.n	800661a <HAL_TIM_ConfigClockSource+0xd6>
 8006614:	d90a      	bls.n	800662c <HAL_TIM_ConfigClockSource+0xe8>
 8006616:	2b30      	cmp	r3, #48	; 0x30
 8006618:	d1c8      	bne.n	80065ac <HAL_TIM_ConfigClockSource+0x68>
 800661a:	68a1      	ldr	r1, [r4, #8]
 800661c:	f021 0170 	bic.w	r1, r1, #112	; 0x70
 8006620:	430b      	orrs	r3, r1
 8006622:	f043 0307 	orr.w	r3, r3, #7
 8006626:	60a3      	str	r3, [r4, #8]
 8006628:	2000      	movs	r0, #0
 800662a:	e7bf      	b.n	80065ac <HAL_TIM_ConfigClockSource+0x68>
 800662c:	f033 0110 	bics.w	r1, r3, #16
 8006630:	d1bc      	bne.n	80065ac <HAL_TIM_ConfigClockSource+0x68>
 8006632:	e7f2      	b.n	800661a <HAL_TIM_ConfigClockSource+0xd6>
 8006634:	2000      	movs	r0, #0
 8006636:	e7b9      	b.n	80065ac <HAL_TIM_ConfigClockSource+0x68>
 8006638:	2002      	movs	r0, #2
 800663a:	4770      	bx	lr
 800663c:	6a20      	ldr	r0, [r4, #32]
 800663e:	684d      	ldr	r5, [r1, #4]
 8006640:	68ce      	ldr	r6, [r1, #12]
 8006642:	f020 0010 	bic.w	r0, r0, #16
 8006646:	6220      	str	r0, [r4, #32]
 8006648:	69a1      	ldr	r1, [r4, #24]
 800664a:	6a23      	ldr	r3, [r4, #32]
 800664c:	f421 4170 	bic.w	r1, r1, #61440	; 0xf000
 8006650:	f023 03a0 	bic.w	r3, r3, #160	; 0xa0
 8006654:	ea43 1305 	orr.w	r3, r3, r5, lsl #4
 8006658:	ea41 3106 	orr.w	r1, r1, r6, lsl #12
 800665c:	61a1      	str	r1, [r4, #24]
 800665e:	6223      	str	r3, [r4, #32]
 8006660:	68a3      	ldr	r3, [r4, #8]
 8006662:	f023 0370 	bic.w	r3, r3, #112	; 0x70
 8006666:	f043 0367 	orr.w	r3, r3, #103	; 0x67
 800666a:	60a3      	str	r3, [r4, #8]
 800666c:	2000      	movs	r0, #0
 800666e:	e79d      	b.n	80065ac <HAL_TIM_ConfigClockSource+0x68>
 8006670:	6a25      	ldr	r5, [r4, #32]
 8006672:	6a26      	ldr	r6, [r4, #32]
 8006674:	6848      	ldr	r0, [r1, #4]
 8006676:	68cf      	ldr	r7, [r1, #12]
 8006678:	f026 0601 	bic.w	r6, r6, #1
 800667c:	6226      	str	r6, [r4, #32]
 800667e:	69a3      	ldr	r3, [r4, #24]
 8006680:	f025 010a 	bic.w	r1, r5, #10
 8006684:	f023 03f0 	bic.w	r3, r3, #240	; 0xf0
 8006688:	4301      	orrs	r1, r0
 800668a:	ea43 1307 	orr.w	r3, r3, r7, lsl #4
 800668e:	61a3      	str	r3, [r4, #24]
 8006690:	6221      	str	r1, [r4, #32]
 8006692:	68a3      	ldr	r3, [r4, #8]
 8006694:	f023 0370 	bic.w	r3, r3, #112	; 0x70
 8006698:	f043 0347 	orr.w	r3, r3, #71	; 0x47
 800669c:	60a3      	str	r3, [r4, #8]
 800669e:	2000      	movs	r0, #0
 80066a0:	e784      	b.n	80065ac <HAL_TIM_ConfigClockSource+0x68>
 80066a2:	bf00      	nop

080066a4 <HAL_TIMEx_MasterConfigSynchronization>:
 80066a4:	f890 303c 	ldrb.w	r3, [r0, #60]	; 0x3c
 80066a8:	2b01      	cmp	r3, #1
 80066aa:	d02e      	beq.n	800670a <HAL_TIMEx_MasterConfigSynchronization+0x66>
 80066ac:	6803      	ldr	r3, [r0, #0]
 80066ae:	2202      	movs	r2, #2
 80066b0:	b430      	push	{r4, r5}
 80066b2:	f880 203d 	strb.w	r2, [r0, #61]	; 0x3d
 80066b6:	685a      	ldr	r2, [r3, #4]
 80066b8:	680c      	ldr	r4, [r1, #0]
 80066ba:	4d15      	ldr	r5, [pc, #84]	; (8006710 <HAL_TIMEx_MasterConfigSynchronization+0x6c>)
 80066bc:	f022 0270 	bic.w	r2, r2, #112	; 0x70
 80066c0:	4322      	orrs	r2, r4
 80066c2:	42ab      	cmp	r3, r5
 80066c4:	689c      	ldr	r4, [r3, #8]
 80066c6:	605a      	str	r2, [r3, #4]
 80066c8:	d011      	beq.n	80066ee <HAL_TIMEx_MasterConfigSynchronization+0x4a>
 80066ca:	f1b3 4f80 	cmp.w	r3, #1073741824	; 0x40000000
 80066ce:	d00e      	beq.n	80066ee <HAL_TIMEx_MasterConfigSynchronization+0x4a>
 80066d0:	4a10      	ldr	r2, [pc, #64]	; (8006714 <HAL_TIMEx_MasterConfigSynchronization+0x70>)
 80066d2:	4293      	cmp	r3, r2
 80066d4:	d00b      	beq.n	80066ee <HAL_TIMEx_MasterConfigSynchronization+0x4a>
 80066d6:	f502 6280 	add.w	r2, r2, #1024	; 0x400
 80066da:	4293      	cmp	r3, r2
 80066dc:	d007      	beq.n	80066ee <HAL_TIMEx_MasterConfigSynchronization+0x4a>
 80066de:	f502 6280 	add.w	r2, r2, #1024	; 0x400
 80066e2:	4293      	cmp	r3, r2
 80066e4:	d003      	beq.n	80066ee <HAL_TIMEx_MasterConfigSynchronization+0x4a>
 80066e6:	f502 329a 	add.w	r2, r2, #78848	; 0x13400
 80066ea:	4293      	cmp	r3, r2
 80066ec:	d104      	bne.n	80066f8 <HAL_TIMEx_MasterConfigSynchronization+0x54>
 80066ee:	684a      	ldr	r2, [r1, #4]
 80066f0:	f024 0480 	bic.w	r4, r4, #128	; 0x80
 80066f4:	4314      	orrs	r4, r2
 80066f6:	609c      	str	r4, [r3, #8]
 80066f8:	2300      	movs	r3, #0
 80066fa:	2201      	movs	r2, #1
 80066fc:	f880 203d 	strb.w	r2, [r0, #61]	; 0x3d
 8006700:	f880 303c 	strb.w	r3, [r0, #60]	; 0x3c
 8006704:	bc30      	pop	{r4, r5}
 8006706:	4618      	mov	r0, r3
 8006708:	4770      	bx	lr
 800670a:	2002      	movs	r0, #2
 800670c:	4770      	bx	lr
 800670e:	bf00      	nop
 8006710:	40010000 	.word	0x40010000
 8006714:	40000400 	.word	0x40000400

08006718 <HAL_UART_Init>:
 8006718:	2800      	cmp	r0, #0
 800671a:	f000 8090 	beq.w	800683e <HAL_UART_Init+0x126>
 800671e:	b570      	push	{r4, r5, r6, lr}
 8006720:	f890 303d 	ldrb.w	r3, [r0, #61]	; 0x3d
 8006724:	4604      	mov	r4, r0
 8006726:	f003 02ff 	and.w	r2, r3, #255	; 0xff
 800672a:	2b00      	cmp	r3, #0
 800672c:	f000 8082 	beq.w	8006834 <HAL_UART_Init+0x11c>
 8006730:	6823      	ldr	r3, [r4, #0]
 8006732:	6926      	ldr	r6, [r4, #16]
 8006734:	2224      	movs	r2, #36	; 0x24
 8006736:	f884 203d 	strb.w	r2, [r4, #61]	; 0x3d
 800673a:	68d8      	ldr	r0, [r3, #12]
 800673c:	f420 5000 	bic.w	r0, r0, #8192	; 0x2000
 8006740:	e9d4 2502 	ldrd	r2, r5, [r4, #8]
 8006744:	60d8      	str	r0, [r3, #12]
 8006746:	6919      	ldr	r1, [r3, #16]
 8006748:	69e0      	ldr	r0, [r4, #28]
 800674a:	f421 5140 	bic.w	r1, r1, #12288	; 0x3000
 800674e:	4329      	orrs	r1, r5
 8006750:	6119      	str	r1, [r3, #16]
 8006752:	68d9      	ldr	r1, [r3, #12]
 8006754:	6965      	ldr	r5, [r4, #20]
 8006756:	4332      	orrs	r2, r6
 8006758:	f421 4116 	bic.w	r1, r1, #38400	; 0x9600
 800675c:	432a      	orrs	r2, r5
 800675e:	f021 010c 	bic.w	r1, r1, #12
 8006762:	4302      	orrs	r2, r0
 8006764:	430a      	orrs	r2, r1
 8006766:	60da      	str	r2, [r3, #12]
 8006768:	695a      	ldr	r2, [r3, #20]
 800676a:	69a0      	ldr	r0, [r4, #24]
 800676c:	4935      	ldr	r1, [pc, #212]	; (8006844 <HAL_UART_Init+0x12c>)
 800676e:	f422 7240 	bic.w	r2, r2, #768	; 0x300
 8006772:	4302      	orrs	r2, r0
 8006774:	428b      	cmp	r3, r1
 8006776:	615a      	str	r2, [r3, #20]
 8006778:	d035      	beq.n	80067e6 <HAL_UART_Init+0xce>
 800677a:	4a33      	ldr	r2, [pc, #204]	; (8006848 <HAL_UART_Init+0x130>)
 800677c:	4293      	cmp	r3, r2
 800677e:	d032      	beq.n	80067e6 <HAL_UART_Init+0xce>
 8006780:	f7ff f8d0 	bl	8005924 <HAL_RCC_GetPCLK1Freq>
 8006784:	69e3      	ldr	r3, [r4, #28]
 8006786:	f5b3 4f00 	cmp.w	r3, #32768	; 0x8000
 800678a:	d032      	beq.n	80067f2 <HAL_UART_Init+0xda>
 800678c:	6863      	ldr	r3, [r4, #4]
 800678e:	4e2f      	ldr	r6, [pc, #188]	; (800684c <HAL_UART_Init+0x134>)
 8006790:	2119      	movs	r1, #25
 8006792:	009a      	lsls	r2, r3, #2
 8006794:	fba0 0101 	umull	r0, r1, r0, r1
 8006798:	0f9b      	lsrs	r3, r3, #30
 800679a:	f7fa fa5d 	bl	8000c58 <__aeabi_uldivmod>
 800679e:	fba6 2500 	umull	r2, r5, r6, r0
 80067a2:	096d      	lsrs	r5, r5, #5
 80067a4:	2164      	movs	r1, #100	; 0x64
 80067a6:	fb01 0215 	mls	r2, r1, r5, r0
 80067aa:	0112      	lsls	r2, r2, #4
 80067ac:	3232      	adds	r2, #50	; 0x32
 80067ae:	6823      	ldr	r3, [r4, #0]
 80067b0:	fba6 1202 	umull	r1, r2, r6, r2
 80067b4:	012d      	lsls	r5, r5, #4
 80067b6:	eb05 1252 	add.w	r2, r5, r2, lsr #5
 80067ba:	609a      	str	r2, [r3, #8]
 80067bc:	691a      	ldr	r2, [r3, #16]
 80067be:	f422 4290 	bic.w	r2, r2, #18432	; 0x4800
 80067c2:	611a      	str	r2, [r3, #16]
 80067c4:	695a      	ldr	r2, [r3, #20]
 80067c6:	f022 022a 	bic.w	r2, r2, #42	; 0x2a
 80067ca:	615a      	str	r2, [r3, #20]
 80067cc:	68da      	ldr	r2, [r3, #12]
 80067ce:	2500      	movs	r5, #0
 80067d0:	2120      	movs	r1, #32
 80067d2:	f442 5200 	orr.w	r2, r2, #8192	; 0x2000
 80067d6:	60da      	str	r2, [r3, #12]
 80067d8:	6425      	str	r5, [r4, #64]	; 0x40
 80067da:	f884 103d 	strb.w	r1, [r4, #61]	; 0x3d
 80067de:	f884 103e 	strb.w	r1, [r4, #62]	; 0x3e
 80067e2:	4628      	mov	r0, r5
 80067e4:	bd70      	pop	{r4, r5, r6, pc}
 80067e6:	f7ff f8ad 	bl	8005944 <HAL_RCC_GetPCLK2Freq>
 80067ea:	69e3      	ldr	r3, [r4, #28]
 80067ec:	f5b3 4f00 	cmp.w	r3, #32768	; 0x8000
 80067f0:	d1cc      	bne.n	800678c <HAL_UART_Init+0x74>
 80067f2:	6862      	ldr	r2, [r4, #4]
 80067f4:	4e15      	ldr	r6, [pc, #84]	; (800684c <HAL_UART_Init+0x134>)
 80067f6:	1892      	adds	r2, r2, r2
 80067f8:	f04f 0300 	mov.w	r3, #0
 80067fc:	f04f 0119 	mov.w	r1, #25
 8006800:	415b      	adcs	r3, r3
 8006802:	fba0 0101 	umull	r0, r1, r0, r1
 8006806:	f7fa fa27 	bl	8000c58 <__aeabi_uldivmod>
 800680a:	fba6 2100 	umull	r2, r1, r6, r0
 800680e:	094d      	lsrs	r5, r1, #5
 8006810:	2164      	movs	r1, #100	; 0x64
 8006812:	fb01 0215 	mls	r2, r1, r5, r0
 8006816:	00d2      	lsls	r2, r2, #3
 8006818:	3232      	adds	r2, #50	; 0x32
 800681a:	fba6 1202 	umull	r1, r2, r6, r2
 800681e:	f3c2 1142 	ubfx	r1, r2, #5, #3
 8006822:	0912      	lsrs	r2, r2, #4
 8006824:	6823      	ldr	r3, [r4, #0]
 8006826:	eb01 1105 	add.w	r1, r1, r5, lsl #4
 800682a:	f402 72f8 	and.w	r2, r2, #496	; 0x1f0
 800682e:	440a      	add	r2, r1
 8006830:	609a      	str	r2, [r3, #8]
 8006832:	e7c3      	b.n	80067bc <HAL_UART_Init+0xa4>
 8006834:	f880 203c 	strb.w	r2, [r0, #60]	; 0x3c
 8006838:	f7fd f9a6 	bl	8003b88 <HAL_UART_MspInit>
 800683c:	e778      	b.n	8006730 <HAL_UART_Init+0x18>
 800683e:	2001      	movs	r0, #1
 8006840:	4770      	bx	lr
 8006842:	bf00      	nop
 8006844:	40011000 	.word	0x40011000
 8006848:	40011400 	.word	0x40011400
 800684c:	51eb851f 	.word	0x51eb851f

08006850 <HAL_UART_Transmit>:
 8006850:	e92d 43f8 	stmdb	sp!, {r3, r4, r5, r6, r7, r8, r9, lr}
 8006854:	4604      	mov	r4, r0
 8006856:	f890 003d 	ldrb.w	r0, [r0, #61]	; 0x3d
 800685a:	2820      	cmp	r0, #32
 800685c:	d177      	bne.n	800694e <HAL_UART_Transmit+0xfe>
 800685e:	4688      	mov	r8, r1
 8006860:	2900      	cmp	r1, #0
 8006862:	d040      	beq.n	80068e6 <HAL_UART_Transmit+0x96>
 8006864:	4617      	mov	r7, r2
 8006866:	2a00      	cmp	r2, #0
 8006868:	d03d      	beq.n	80068e6 <HAL_UART_Transmit+0x96>
 800686a:	461d      	mov	r5, r3
 800686c:	f894 303c 	ldrb.w	r3, [r4, #60]	; 0x3c
 8006870:	2b01      	cmp	r3, #1
 8006872:	d06c      	beq.n	800694e <HAL_UART_Transmit+0xfe>
 8006874:	2321      	movs	r3, #33	; 0x21
 8006876:	2201      	movs	r2, #1
 8006878:	f04f 0900 	mov.w	r9, #0
 800687c:	f8c4 9040 	str.w	r9, [r4, #64]	; 0x40
 8006880:	f884 203c 	strb.w	r2, [r4, #60]	; 0x3c
 8006884:	f884 303d 	strb.w	r3, [r4, #61]	; 0x3d
 8006888:	f7fd faf8 	bl	8003e7c <HAL_GetTick>
 800688c:	68a3      	ldr	r3, [r4, #8]
 800688e:	84a7      	strh	r7, [r4, #36]	; 0x24
 8006890:	f5b3 5f80 	cmp.w	r3, #4096	; 0x1000
 8006894:	4606      	mov	r6, r0
 8006896:	84e7      	strh	r7, [r4, #38]	; 0x26
 8006898:	d05c      	beq.n	8006954 <HAL_UART_Transmit+0x104>
 800689a:	8ce3      	ldrh	r3, [r4, #38]	; 0x26
 800689c:	2200      	movs	r2, #0
 800689e:	b29b      	uxth	r3, r3
 80068a0:	f884 203c 	strb.w	r2, [r4, #60]	; 0x3c
 80068a4:	2b00      	cmp	r3, #0
 80068a6:	d07e      	beq.n	80069a6 <HAL_UART_Transmit+0x156>
 80068a8:	6822      	ldr	r2, [r4, #0]
 80068aa:	1c69      	adds	r1, r5, #1
 80068ac:	d11e      	bne.n	80068ec <HAL_UART_Transmit+0x9c>
 80068ae:	6813      	ldr	r3, [r2, #0]
 80068b0:	061b      	lsls	r3, r3, #24
 80068b2:	d5fc      	bpl.n	80068ae <HAL_UART_Transmit+0x5e>
 80068b4:	f1b8 0f00 	cmp.w	r8, #0
 80068b8:	d044      	beq.n	8006944 <HAL_UART_Transmit+0xf4>
 80068ba:	f818 3b01 	ldrb.w	r3, [r8], #1
 80068be:	6053      	str	r3, [r2, #4]
 80068c0:	8ce3      	ldrh	r3, [r4, #38]	; 0x26
 80068c2:	3b01      	subs	r3, #1
 80068c4:	b29b      	uxth	r3, r3
 80068c6:	84e3      	strh	r3, [r4, #38]	; 0x26
 80068c8:	8ce3      	ldrh	r3, [r4, #38]	; 0x26
 80068ca:	b29b      	uxth	r3, r3
 80068cc:	2b00      	cmp	r3, #0
 80068ce:	d1ec      	bne.n	80068aa <HAL_UART_Transmit+0x5a>
 80068d0:	1c68      	adds	r0, r5, #1
 80068d2:	d145      	bne.n	8006960 <HAL_UART_Transmit+0x110>
 80068d4:	6813      	ldr	r3, [r2, #0]
 80068d6:	0659      	lsls	r1, r3, #25
 80068d8:	d5fc      	bpl.n	80068d4 <HAL_UART_Transmit+0x84>
 80068da:	2320      	movs	r3, #32
 80068dc:	f884 303d 	strb.w	r3, [r4, #61]	; 0x3d
 80068e0:	2000      	movs	r0, #0
 80068e2:	e8bd 83f8 	ldmia.w	sp!, {r3, r4, r5, r6, r7, r8, r9, pc}
 80068e6:	2001      	movs	r0, #1
 80068e8:	e8bd 83f8 	ldmia.w	sp!, {r3, r4, r5, r6, r7, r8, r9, pc}
 80068ec:	6813      	ldr	r3, [r2, #0]
 80068ee:	061f      	lsls	r7, r3, #24
 80068f0:	d4e0      	bmi.n	80068b4 <HAL_UART_Transmit+0x64>
 80068f2:	b12d      	cbz	r5, 8006900 <HAL_UART_Transmit+0xb0>
 80068f4:	f7fd fac2 	bl	8003e7c <HAL_GetTick>
 80068f8:	1b80      	subs	r0, r0, r6
 80068fa:	4285      	cmp	r5, r0
 80068fc:	6822      	ldr	r2, [r4, #0]
 80068fe:	d2d4      	bcs.n	80068aa <HAL_UART_Transmit+0x5a>
 8006900:	f102 030c 	add.w	r3, r2, #12
 8006904:	e853 3f00 	ldrex	r3, [r3]
 8006908:	f423 73d0 	bic.w	r3, r3, #416	; 0x1a0
 800690c:	f102 000c 	add.w	r0, r2, #12
 8006910:	e840 3100 	strex	r1, r3, [r0]
 8006914:	2900      	cmp	r1, #0
 8006916:	d1f3      	bne.n	8006900 <HAL_UART_Transmit+0xb0>
 8006918:	f102 0314 	add.w	r3, r2, #20
 800691c:	e853 3f00 	ldrex	r3, [r3]
 8006920:	f023 0301 	bic.w	r3, r3, #1
 8006924:	f102 0014 	add.w	r0, r2, #20
 8006928:	e840 3100 	strex	r1, r3, [r0]
 800692c:	2900      	cmp	r1, #0
 800692e:	d1f3      	bne.n	8006918 <HAL_UART_Transmit+0xc8>
 8006930:	2320      	movs	r3, #32
 8006932:	f884 303d 	strb.w	r3, [r4, #61]	; 0x3d
 8006936:	f884 103c 	strb.w	r1, [r4, #60]	; 0x3c
 800693a:	f884 303e 	strb.w	r3, [r4, #62]	; 0x3e
 800693e:	2003      	movs	r0, #3
 8006940:	e8bd 83f8 	ldmia.w	sp!, {r3, r4, r5, r6, r7, r8, r9, pc}
 8006944:	f839 3b02 	ldrh.w	r3, [r9], #2
 8006948:	f3c3 0308 	ubfx	r3, r3, #0, #9
 800694c:	e7b7      	b.n	80068be <HAL_UART_Transmit+0x6e>
 800694e:	2002      	movs	r0, #2
 8006950:	e8bd 83f8 	ldmia.w	sp!, {r3, r4, r5, r6, r7, r8, r9, pc}
 8006954:	6923      	ldr	r3, [r4, #16]
 8006956:	2b00      	cmp	r3, #0
 8006958:	d19f      	bne.n	800689a <HAL_UART_Transmit+0x4a>
 800695a:	46c1      	mov	r9, r8
 800695c:	4698      	mov	r8, r3
 800695e:	e79c      	b.n	800689a <HAL_UART_Transmit+0x4a>
 8006960:	6813      	ldr	r3, [r2, #0]
 8006962:	065b      	lsls	r3, r3, #25
 8006964:	d4b9      	bmi.n	80068da <HAL_UART_Transmit+0x8a>
 8006966:	b12d      	cbz	r5, 8006974 <HAL_UART_Transmit+0x124>
 8006968:	f7fd fa88 	bl	8003e7c <HAL_GetTick>
 800696c:	1b80      	subs	r0, r0, r6
 800696e:	4285      	cmp	r5, r0
 8006970:	6822      	ldr	r2, [r4, #0]
 8006972:	d2ad      	bcs.n	80068d0 <HAL_UART_Transmit+0x80>
 8006974:	f102 030c 	add.w	r3, r2, #12
 8006978:	e853 3f00 	ldrex	r3, [r3]
 800697c:	f423 73d0 	bic.w	r3, r3, #416	; 0x1a0
 8006980:	f102 000c 	add.w	r0, r2, #12
 8006984:	e840 3100 	strex	r1, r3, [r0]
 8006988:	2900      	cmp	r1, #0
 800698a:	d1f3      	bne.n	8006974 <HAL_UART_Transmit+0x124>
 800698c:	f102 0314 	add.w	r3, r2, #20
 8006990:	e853 3f00 	ldrex	r3, [r3]
 8006994:	f023 0301 	bic.w	r3, r3, #1
 8006998:	f102 0014 	add.w	r0, r2, #20
 800699c:	e840 3100 	strex	r1, r3, [r0]
 80069a0:	2900      	cmp	r1, #0
 80069a2:	d1f3      	bne.n	800698c <HAL_UART_Transmit+0x13c>
 80069a4:	e7c4      	b.n	8006930 <HAL_UART_Transmit+0xe0>
 80069a6:	6822      	ldr	r2, [r4, #0]
 80069a8:	e792      	b.n	80068d0 <HAL_UART_Transmit+0x80>
 80069aa:	bf00      	nop

080069ac <LL_GPIO_Init>:
 80069ac:	e92d 47f0 	stmdb	sp!, {r4, r5, r6, r7, r8, r9, sl, lr}
 80069b0:	680c      	ldr	r4, [r1, #0]
 80069b2:	fa94 f2a4 	rbit	r2, r4
 80069b6:	fab2 f282 	clz	r2, r2
 80069ba:	fa34 f302 	lsrs.w	r3, r4, r2
 80069be:	d07d      	beq.n	8006abc <LL_GPIO_Init+0x110>
 80069c0:	f04f 0c01 	mov.w	ip, #1
 80069c4:	2703      	movs	r7, #3
 80069c6:	f04f 0e0f 	mov.w	lr, #15
 80069ca:	e016      	b.n	80069fa <LL_GPIO_Init+0x4e>
 80069cc:	f8d0 8000 	ldr.w	r8, [r0]
 80069d0:	fa93 f6a3 	rbit	r6, r3
 80069d4:	fab6 f686 	clz	r6, r6
 80069d8:	fa93 f3a3 	rbit	r3, r3
 80069dc:	fab3 f383 	clz	r3, r3
 80069e0:	0076      	lsls	r6, r6, #1
 80069e2:	005b      	lsls	r3, r3, #1
 80069e4:	fa07 f606 	lsl.w	r6, r7, r6
 80069e8:	409d      	lsls	r5, r3
 80069ea:	ea28 0606 	bic.w	r6, r8, r6
 80069ee:	4335      	orrs	r5, r6
 80069f0:	6005      	str	r5, [r0, #0]
 80069f2:	3201      	adds	r2, #1
 80069f4:	fa34 f302 	lsrs.w	r3, r4, r2
 80069f8:	d060      	beq.n	8006abc <LL_GPIO_Init+0x110>
 80069fa:	fa0c f302 	lsl.w	r3, ip, r2
 80069fe:	4023      	ands	r3, r4
 8006a00:	d0f7      	beq.n	80069f2 <LL_GPIO_Init+0x46>
 8006a02:	684d      	ldr	r5, [r1, #4]
 8006a04:	1e6e      	subs	r6, r5, #1
 8006a06:	2e01      	cmp	r6, #1
 8006a08:	d81f      	bhi.n	8006a4a <LL_GPIO_Init+0x9e>
 8006a0a:	6886      	ldr	r6, [r0, #8]
 8006a0c:	fa93 f8a3 	rbit	r8, r3
 8006a10:	fab8 f888 	clz	r8, r8
 8006a14:	fa93 faa3 	rbit	sl, r3
 8006a18:	ea4f 0848 	mov.w	r8, r8, lsl #1
 8006a1c:	fa07 f808 	lsl.w	r8, r7, r8
 8006a20:	ea26 0808 	bic.w	r8, r6, r8
 8006a24:	faba fa8a 	clz	sl, sl
 8006a28:	688e      	ldr	r6, [r1, #8]
 8006a2a:	ea4f 0a4a 	mov.w	sl, sl, lsl #1
 8006a2e:	fa06 f60a 	lsl.w	r6, r6, sl
 8006a32:	ea48 0606 	orr.w	r6, r8, r6
 8006a36:	6086      	str	r6, [r0, #8]
 8006a38:	6846      	ldr	r6, [r0, #4]
 8006a3a:	ea26 0803 	bic.w	r8, r6, r3
 8006a3e:	68ce      	ldr	r6, [r1, #12]
 8006a40:	fb06 f603 	mul.w	r6, r6, r3
 8006a44:	ea48 0606 	orr.w	r6, r8, r6
 8006a48:	6046      	str	r6, [r0, #4]
 8006a4a:	68c6      	ldr	r6, [r0, #12]
 8006a4c:	fa93 f8a3 	rbit	r8, r3
 8006a50:	fab8 f888 	clz	r8, r8
 8006a54:	fa93 faa3 	rbit	sl, r3
 8006a58:	ea4f 0848 	mov.w	r8, r8, lsl #1
 8006a5c:	fa07 f808 	lsl.w	r8, r7, r8
 8006a60:	ea26 0808 	bic.w	r8, r6, r8
 8006a64:	faba fa8a 	clz	sl, sl
 8006a68:	690e      	ldr	r6, [r1, #16]
 8006a6a:	ea4f 0a4a 	mov.w	sl, sl, lsl #1
 8006a6e:	fa06 f60a 	lsl.w	r6, r6, sl
 8006a72:	ea48 0606 	orr.w	r6, r8, r6
 8006a76:	2d02      	cmp	r5, #2
 8006a78:	60c6      	str	r6, [r0, #12]
 8006a7a:	d1a7      	bne.n	80069cc <LL_GPIO_Init+0x20>
 8006a7c:	fa93 f6a3 	rbit	r6, r3
 8006a80:	fab6 f686 	clz	r6, r6
 8006a84:	2e07      	cmp	r6, #7
 8006a86:	ea4f 2813 	mov.w	r8, r3, lsr #8
 8006a8a:	dc1a      	bgt.n	8006ac2 <LL_GPIO_Init+0x116>
 8006a8c:	6a06      	ldr	r6, [r0, #32]
 8006a8e:	fa93 f8a3 	rbit	r8, r3
 8006a92:	fab8 f888 	clz	r8, r8
 8006a96:	fa93 faa3 	rbit	sl, r3
 8006a9a:	ea4f 0888 	mov.w	r8, r8, lsl #2
 8006a9e:	fa0e f808 	lsl.w	r8, lr, r8
 8006aa2:	ea26 0808 	bic.w	r8, r6, r8
 8006aa6:	faba fa8a 	clz	sl, sl
 8006aaa:	694e      	ldr	r6, [r1, #20]
 8006aac:	ea4f 0a8a 	mov.w	sl, sl, lsl #2
 8006ab0:	fa06 f60a 	lsl.w	r6, r6, sl
 8006ab4:	ea48 0606 	orr.w	r6, r8, r6
 8006ab8:	6206      	str	r6, [r0, #32]
 8006aba:	e787      	b.n	80069cc <LL_GPIO_Init+0x20>
 8006abc:	2000      	movs	r0, #0
 8006abe:	e8bd 87f0 	ldmia.w	sp!, {r4, r5, r6, r7, r8, r9, sl, pc}
 8006ac2:	6a46      	ldr	r6, [r0, #36]	; 0x24
 8006ac4:	fa98 faa8 	rbit	sl, r8
 8006ac8:	faba fa8a 	clz	sl, sl
 8006acc:	fa98 f8a8 	rbit	r8, r8
 8006ad0:	ea4f 0a8a 	mov.w	sl, sl, lsl #2
 8006ad4:	fa0e fa0a 	lsl.w	sl, lr, sl
 8006ad8:	ea26 090a 	bic.w	r9, r6, sl
 8006adc:	fab8 f888 	clz	r8, r8
 8006ae0:	694e      	ldr	r6, [r1, #20]
 8006ae2:	ea4f 0888 	mov.w	r8, r8, lsl #2
 8006ae6:	fa06 f608 	lsl.w	r6, r6, r8
 8006aea:	ea49 0606 	orr.w	r6, r9, r6
 8006aee:	6246      	str	r6, [r0, #36]	; 0x24
 8006af0:	e76c      	b.n	80069cc <LL_GPIO_Init+0x20>
 8006af2:	bf00      	nop

08006af4 <LL_TIM_Init>:
 8006af4:	4a24      	ldr	r2, [pc, #144]	; (8006b88 <LL_TIM_Init+0x94>)
 8006af6:	6803      	ldr	r3, [r0, #0]
 8006af8:	4290      	cmp	r0, r2
 8006afa:	b430      	push	{r4, r5}
 8006afc:	d034      	beq.n	8006b68 <LL_TIM_Init+0x74>
 8006afe:	f1b0 4f80 	cmp.w	r0, #1073741824	; 0x40000000
 8006b02:	d01d      	beq.n	8006b40 <LL_TIM_Init+0x4c>
 8006b04:	f5a2 427c 	sub.w	r2, r2, #64512	; 0xfc00
 8006b08:	4290      	cmp	r0, r2
 8006b0a:	d019      	beq.n	8006b40 <LL_TIM_Init+0x4c>
 8006b0c:	f502 6280 	add.w	r2, r2, #1024	; 0x400
 8006b10:	4290      	cmp	r0, r2
 8006b12:	d015      	beq.n	8006b40 <LL_TIM_Init+0x4c>
 8006b14:	f502 6280 	add.w	r2, r2, #1024	; 0x400
 8006b18:	4290      	cmp	r0, r2
 8006b1a:	d011      	beq.n	8006b40 <LL_TIM_Init+0x4c>
 8006b1c:	f502 329a 	add.w	r2, r2, #78848	; 0x13400
 8006b20:	4290      	cmp	r0, r2
 8006b22:	d011      	beq.n	8006b48 <LL_TIM_Init+0x54>
 8006b24:	f502 6280 	add.w	r2, r2, #1024	; 0x400
 8006b28:	4290      	cmp	r0, r2
 8006b2a:	d00d      	beq.n	8006b48 <LL_TIM_Init+0x54>
 8006b2c:	f502 6280 	add.w	r2, r2, #1024	; 0x400
 8006b30:	4290      	cmp	r0, r2
 8006b32:	d009      	beq.n	8006b48 <LL_TIM_Init+0x54>
 8006b34:	688c      	ldr	r4, [r1, #8]
 8006b36:	880a      	ldrh	r2, [r1, #0]
 8006b38:	6003      	str	r3, [r0, #0]
 8006b3a:	62c4      	str	r4, [r0, #44]	; 0x2c
 8006b3c:	6282      	str	r2, [r0, #40]	; 0x28
 8006b3e:	e00c      	b.n	8006b5a <LL_TIM_Init+0x66>
 8006b40:	684a      	ldr	r2, [r1, #4]
 8006b42:	f023 0370 	bic.w	r3, r3, #112	; 0x70
 8006b46:	4313      	orrs	r3, r2
 8006b48:	e9d1 4502 	ldrd	r4, r5, [r1, #8]
 8006b4c:	f423 7340 	bic.w	r3, r3, #768	; 0x300
 8006b50:	880a      	ldrh	r2, [r1, #0]
 8006b52:	432b      	orrs	r3, r5
 8006b54:	6003      	str	r3, [r0, #0]
 8006b56:	62c4      	str	r4, [r0, #44]	; 0x2c
 8006b58:	6282      	str	r2, [r0, #40]	; 0x28
 8006b5a:	6943      	ldr	r3, [r0, #20]
 8006b5c:	f043 0301 	orr.w	r3, r3, #1
 8006b60:	6143      	str	r3, [r0, #20]
 8006b62:	bc30      	pop	{r4, r5}
 8006b64:	2000      	movs	r0, #0
 8006b66:	4770      	bx	lr
 8006b68:	684d      	ldr	r5, [r1, #4]
 8006b6a:	68cc      	ldr	r4, [r1, #12]
 8006b6c:	880a      	ldrh	r2, [r1, #0]
 8006b6e:	f023 0370 	bic.w	r3, r3, #112	; 0x70
 8006b72:	432b      	orrs	r3, r5
 8006b74:	f423 7340 	bic.w	r3, r3, #768	; 0x300
 8006b78:	4323      	orrs	r3, r4
 8006b7a:	6003      	str	r3, [r0, #0]
 8006b7c:	688b      	ldr	r3, [r1, #8]
 8006b7e:	62c3      	str	r3, [r0, #44]	; 0x2c
 8006b80:	6282      	str	r2, [r0, #40]	; 0x28
 8006b82:	690b      	ldr	r3, [r1, #16]
 8006b84:	6303      	str	r3, [r0, #48]	; 0x30
 8006b86:	e7e8      	b.n	8006b5a <LL_TIM_Init+0x66>
 8006b88:	40010000 	.word	0x40010000

08006b8c <LL_TIM_OC_Init>:
 8006b8c:	f5b1 7f80 	cmp.w	r1, #256	; 0x100
 8006b90:	b4f0      	push	{r4, r5, r6, r7}
 8006b92:	d06b      	beq.n	8006c6c <LL_TIM_OC_Init+0xe0>
 8006b94:	d826      	bhi.n	8006be4 <LL_TIM_OC_Init+0x58>
 8006b96:	2901      	cmp	r1, #1
 8006b98:	f000 808a 	beq.w	8006cb0 <LL_TIM_OC_Init+0x124>
 8006b9c:	2910      	cmp	r1, #16
 8006b9e:	d146      	bne.n	8006c2e <LL_TIM_OC_Init+0xa2>
 8006ba0:	6a04      	ldr	r4, [r0, #32]
 8006ba2:	6911      	ldr	r1, [r2, #16]
 8006ba4:	4d67      	ldr	r5, [pc, #412]	; (8006d44 <LL_TIM_OC_Init+0x1b8>)
 8006ba6:	f024 0410 	bic.w	r4, r4, #16
 8006baa:	e9d2 6700 	ldrd	r6, r7, [r2]
 8006bae:	6204      	str	r4, [r0, #32]
 8006bb0:	6a03      	ldr	r3, [r0, #32]
 8006bb2:	6844      	ldr	r4, [r0, #4]
 8006bb4:	f023 0320 	bic.w	r3, r3, #32
 8006bb8:	ea43 1301 	orr.w	r3, r3, r1, lsl #4
 8006bbc:	6981      	ldr	r1, [r0, #24]
 8006bbe:	f023 0310 	bic.w	r3, r3, #16
 8006bc2:	f421 41e6 	bic.w	r1, r1, #29440	; 0x7300
 8006bc6:	42a8      	cmp	r0, r5
 8006bc8:	ea43 1307 	orr.w	r3, r3, r7, lsl #4
 8006bcc:	ea41 2106 	orr.w	r1, r1, r6, lsl #8
 8006bd0:	d037      	beq.n	8006c42 <LL_TIM_OC_Init+0xb6>
 8006bd2:	68d5      	ldr	r5, [r2, #12]
 8006bd4:	6044      	str	r4, [r0, #4]
 8006bd6:	2200      	movs	r2, #0
 8006bd8:	6181      	str	r1, [r0, #24]
 8006bda:	6385      	str	r5, [r0, #56]	; 0x38
 8006bdc:	6203      	str	r3, [r0, #32]
 8006bde:	bcf0      	pop	{r4, r5, r6, r7}
 8006be0:	4610      	mov	r0, r2
 8006be2:	4770      	bx	lr
 8006be4:	f5b1 5f80 	cmp.w	r1, #4096	; 0x1000
 8006be8:	d121      	bne.n	8006c2e <LL_TIM_OC_Init+0xa2>
 8006bea:	6a04      	ldr	r4, [r0, #32]
 8006bec:	6911      	ldr	r1, [r2, #16]
 8006bee:	4d55      	ldr	r5, [pc, #340]	; (8006d44 <LL_TIM_OC_Init+0x1b8>)
 8006bf0:	f424 5480 	bic.w	r4, r4, #4096	; 0x1000
 8006bf4:	e9d2 6700 	ldrd	r6, r7, [r2]
 8006bf8:	6204      	str	r4, [r0, #32]
 8006bfa:	6a03      	ldr	r3, [r0, #32]
 8006bfc:	6844      	ldr	r4, [r0, #4]
 8006bfe:	f423 5300 	bic.w	r3, r3, #8192	; 0x2000
 8006c02:	ea43 3301 	orr.w	r3, r3, r1, lsl #12
 8006c06:	69c1      	ldr	r1, [r0, #28]
 8006c08:	f423 5380 	bic.w	r3, r3, #4096	; 0x1000
 8006c0c:	f421 41e6 	bic.w	r1, r1, #29440	; 0x7300
 8006c10:	42a8      	cmp	r0, r5
 8006c12:	ea43 3307 	orr.w	r3, r3, r7, lsl #12
 8006c16:	ea41 2106 	orr.w	r1, r1, r6, lsl #8
 8006c1a:	d00c      	beq.n	8006c36 <LL_TIM_OC_Init+0xaa>
 8006c1c:	68d5      	ldr	r5, [r2, #12]
 8006c1e:	6044      	str	r4, [r0, #4]
 8006c20:	2200      	movs	r2, #0
 8006c22:	61c1      	str	r1, [r0, #28]
 8006c24:	6405      	str	r5, [r0, #64]	; 0x40
 8006c26:	6203      	str	r3, [r0, #32]
 8006c28:	bcf0      	pop	{r4, r5, r6, r7}
 8006c2a:	4610      	mov	r0, r2
 8006c2c:	4770      	bx	lr
 8006c2e:	2201      	movs	r2, #1
 8006c30:	4610      	mov	r0, r2
 8006c32:	bcf0      	pop	{r4, r5, r6, r7}
 8006c34:	4770      	bx	lr
 8006c36:	6995      	ldr	r5, [r2, #24]
 8006c38:	f424 4480 	bic.w	r4, r4, #16384	; 0x4000
 8006c3c:	ea44 1485 	orr.w	r4, r4, r5, lsl #6
 8006c40:	e7ec      	b.n	8006c1c <LL_TIM_OC_Init+0x90>
 8006c42:	e9d2 6505 	ldrd	r6, r5, [r2, #20]
 8006c46:	f023 0380 	bic.w	r3, r3, #128	; 0x80
 8006c4a:	f424 6480 	bic.w	r4, r4, #1024	; 0x400
 8006c4e:	ea43 1386 	orr.w	r3, r3, r6, lsl #6
 8006c52:	ea44 0485 	orr.w	r4, r4, r5, lsl #2
 8006c56:	6896      	ldr	r6, [r2, #8]
 8006c58:	69d5      	ldr	r5, [r2, #28]
 8006c5a:	f023 0340 	bic.w	r3, r3, #64	; 0x40
 8006c5e:	f424 6400 	bic.w	r4, r4, #2048	; 0x800
 8006c62:	ea43 1386 	orr.w	r3, r3, r6, lsl #6
 8006c66:	ea44 04c5 	orr.w	r4, r4, r5, lsl #3
 8006c6a:	e7b2      	b.n	8006bd2 <LL_TIM_OC_Init+0x46>
 8006c6c:	6a04      	ldr	r4, [r0, #32]
 8006c6e:	6911      	ldr	r1, [r2, #16]
 8006c70:	4d34      	ldr	r5, [pc, #208]	; (8006d44 <LL_TIM_OC_Init+0x1b8>)
 8006c72:	f424 7480 	bic.w	r4, r4, #256	; 0x100
 8006c76:	e9d2 6700 	ldrd	r6, r7, [r2]
 8006c7a:	6204      	str	r4, [r0, #32]
 8006c7c:	6a03      	ldr	r3, [r0, #32]
 8006c7e:	6844      	ldr	r4, [r0, #4]
 8006c80:	f423 7300 	bic.w	r3, r3, #512	; 0x200
 8006c84:	ea43 2301 	orr.w	r3, r3, r1, lsl #8
 8006c88:	69c1      	ldr	r1, [r0, #28]
 8006c8a:	f423 7380 	bic.w	r3, r3, #256	; 0x100
 8006c8e:	f021 0173 	bic.w	r1, r1, #115	; 0x73
 8006c92:	42a8      	cmp	r0, r5
 8006c94:	ea43 2307 	orr.w	r3, r3, r7, lsl #8
 8006c98:	ea41 0106 	orr.w	r1, r1, r6
 8006c9c:	d029      	beq.n	8006cf2 <LL_TIM_OC_Init+0x166>
 8006c9e:	68d5      	ldr	r5, [r2, #12]
 8006ca0:	6044      	str	r4, [r0, #4]
 8006ca2:	2200      	movs	r2, #0
 8006ca4:	61c1      	str	r1, [r0, #28]
 8006ca6:	63c5      	str	r5, [r0, #60]	; 0x3c
 8006ca8:	6203      	str	r3, [r0, #32]
 8006caa:	bcf0      	pop	{r4, r5, r6, r7}
 8006cac:	4610      	mov	r0, r2
 8006cae:	4770      	bx	lr
 8006cb0:	6a04      	ldr	r4, [r0, #32]
 8006cb2:	6911      	ldr	r1, [r2, #16]
 8006cb4:	4d23      	ldr	r5, [pc, #140]	; (8006d44 <LL_TIM_OC_Init+0x1b8>)
 8006cb6:	f024 0401 	bic.w	r4, r4, #1
 8006cba:	e9d2 6700 	ldrd	r6, r7, [r2]
 8006cbe:	6204      	str	r4, [r0, #32]
 8006cc0:	6a03      	ldr	r3, [r0, #32]
 8006cc2:	6844      	ldr	r4, [r0, #4]
 8006cc4:	f023 0302 	bic.w	r3, r3, #2
 8006cc8:	430b      	orrs	r3, r1
 8006cca:	6981      	ldr	r1, [r0, #24]
 8006ccc:	f023 0301 	bic.w	r3, r3, #1
 8006cd0:	f021 0173 	bic.w	r1, r1, #115	; 0x73
 8006cd4:	42a8      	cmp	r0, r5
 8006cd6:	ea43 0307 	orr.w	r3, r3, r7
 8006cda:	ea41 0106 	orr.w	r1, r1, r6
 8006cde:	d01d      	beq.n	8006d1c <LL_TIM_OC_Init+0x190>
 8006ce0:	68d5      	ldr	r5, [r2, #12]
 8006ce2:	6044      	str	r4, [r0, #4]
 8006ce4:	2200      	movs	r2, #0
 8006ce6:	6181      	str	r1, [r0, #24]
 8006ce8:	6345      	str	r5, [r0, #52]	; 0x34
 8006cea:	6203      	str	r3, [r0, #32]
 8006cec:	bcf0      	pop	{r4, r5, r6, r7}
 8006cee:	4610      	mov	r0, r2
 8006cf0:	4770      	bx	lr
 8006cf2:	e9d2 6505 	ldrd	r6, r5, [r2, #20]
 8006cf6:	f423 6300 	bic.w	r3, r3, #2048	; 0x800
 8006cfa:	f424 5480 	bic.w	r4, r4, #4096	; 0x1000
 8006cfe:	ea43 2386 	orr.w	r3, r3, r6, lsl #10
 8006d02:	ea44 1405 	orr.w	r4, r4, r5, lsl #4
 8006d06:	6896      	ldr	r6, [r2, #8]
 8006d08:	69d5      	ldr	r5, [r2, #28]
 8006d0a:	f423 6380 	bic.w	r3, r3, #1024	; 0x400
 8006d0e:	f424 5400 	bic.w	r4, r4, #8192	; 0x2000
 8006d12:	ea43 2386 	orr.w	r3, r3, r6, lsl #10
 8006d16:	ea44 1445 	orr.w	r4, r4, r5, lsl #5
 8006d1a:	e7c0      	b.n	8006c9e <LL_TIM_OC_Init+0x112>
 8006d1c:	e9d2 6505 	ldrd	r6, r5, [r2, #20]
 8006d20:	f023 0308 	bic.w	r3, r3, #8
 8006d24:	f424 7480 	bic.w	r4, r4, #256	; 0x100
 8006d28:	ea43 0386 	orr.w	r3, r3, r6, lsl #2
 8006d2c:	432c      	orrs	r4, r5
 8006d2e:	6896      	ldr	r6, [r2, #8]
 8006d30:	69d5      	ldr	r5, [r2, #28]
 8006d32:	f023 0304 	bic.w	r3, r3, #4
 8006d36:	f424 7400 	bic.w	r4, r4, #512	; 0x200
 8006d3a:	ea43 0386 	orr.w	r3, r3, r6, lsl #2
 8006d3e:	ea44 0445 	orr.w	r4, r4, r5, lsl #1
 8006d42:	e7cd      	b.n	8006ce0 <LL_TIM_OC_Init+0x154>
 8006d44:	40010000 	.word	0x40010000

08006d48 <LL_TIM_BDTR_Init>:
 8006d48:	b430      	push	{r4, r5}
 8006d4a:	e9d1 4501 	ldrd	r4, r5, [r1, #4]
 8006d4e:	7b0b      	ldrb	r3, [r1, #12]
 8006d50:	680a      	ldr	r2, [r1, #0]
 8006d52:	432b      	orrs	r3, r5
 8006d54:	f423 6380 	bic.w	r3, r3, #1024	; 0x400
 8006d58:	4323      	orrs	r3, r4
 8006d5a:	f423 6300 	bic.w	r3, r3, #2048	; 0x800
 8006d5e:	4313      	orrs	r3, r2
 8006d60:	89ca      	ldrh	r2, [r1, #14]
 8006d62:	f423 5380 	bic.w	r3, r3, #4096	; 0x1000
 8006d66:	e9d1 4104 	ldrd	r4, r1, [r1, #16]
 8006d6a:	4313      	orrs	r3, r2
 8006d6c:	f423 5300 	bic.w	r3, r3, #8192	; 0x2000
 8006d70:	4323      	orrs	r3, r4
 8006d72:	f423 4340 	bic.w	r3, r3, #49152	; 0xc000
 8006d76:	430b      	orrs	r3, r1
 8006d78:	6443      	str	r3, [r0, #68]	; 0x44
 8006d7a:	bc30      	pop	{r4, r5}
 8006d7c:	2000      	movs	r0, #0
 8006d7e:	4770      	bx	lr

08006d80 <USB_CoreInit>:
 8006d80:	b084      	sub	sp, #16
 8006d82:	b470      	push	{r4, r5, r6}
 8006d84:	b083      	sub	sp, #12
 8006d86:	ad07      	add	r5, sp, #28
 8006d88:	9e0c      	ldr	r6, [sp, #48]	; 0x30
 8006d8a:	2e01      	cmp	r6, #1
 8006d8c:	e885 000e 	stmia.w	r5, {r1, r2, r3}
 8006d90:	4604      	mov	r4, r0
 8006d92:	d12c      	bne.n	8006dee <USB_CoreInit+0x6e>
 8006d94:	6b83      	ldr	r3, [r0, #56]	; 0x38
 8006d96:	9a13      	ldr	r2, [sp, #76]	; 0x4c
 8006d98:	f423 3380 	bic.w	r3, r3, #65536	; 0x10000
 8006d9c:	6383      	str	r3, [r0, #56]	; 0x38
 8006d9e:	68c3      	ldr	r3, [r0, #12]
 8006da0:	f423 0384 	bic.w	r3, r3, #4325376	; 0x420000
 8006da4:	f023 0340 	bic.w	r3, r3, #64	; 0x40
 8006da8:	60c3      	str	r3, [r0, #12]
 8006daa:	68c3      	ldr	r3, [r0, #12]
 8006dac:	2a01      	cmp	r2, #1
 8006dae:	f423 1340 	bic.w	r3, r3, #3145728	; 0x300000
 8006db2:	60c3      	str	r3, [r0, #12]
 8006db4:	d05c      	beq.n	8006e70 <USB_CoreInit+0xf0>
 8006db6:	2300      	movs	r3, #0
 8006db8:	4a30      	ldr	r2, [pc, #192]	; (8006e7c <USB_CoreInit+0xfc>)
 8006dba:	9300      	str	r3, [sp, #0]
 8006dbc:	e002      	b.n	8006dc4 <USB_CoreInit+0x44>
 8006dbe:	6923      	ldr	r3, [r4, #16]
 8006dc0:	2b00      	cmp	r3, #0
 8006dc2:	db2c      	blt.n	8006e1e <USB_CoreInit+0x9e>
 8006dc4:	9b00      	ldr	r3, [sp, #0]
 8006dc6:	3301      	adds	r3, #1
 8006dc8:	4293      	cmp	r3, r2
 8006dca:	9300      	str	r3, [sp, #0]
 8006dcc:	d9f7      	bls.n	8006dbe <USB_CoreInit+0x3e>
 8006dce:	2003      	movs	r0, #3
 8006dd0:	9b0a      	ldr	r3, [sp, #40]	; 0x28
 8006dd2:	2b01      	cmp	r3, #1
 8006dd4:	d107      	bne.n	8006de6 <USB_CoreInit+0x66>
 8006dd6:	68a3      	ldr	r3, [r4, #8]
 8006dd8:	f043 0306 	orr.w	r3, r3, #6
 8006ddc:	60a3      	str	r3, [r4, #8]
 8006dde:	68a3      	ldr	r3, [r4, #8]
 8006de0:	f043 0320 	orr.w	r3, r3, #32
 8006de4:	60a3      	str	r3, [r4, #8]
 8006de6:	b003      	add	sp, #12
 8006de8:	bc70      	pop	{r4, r5, r6}
 8006dea:	b004      	add	sp, #16
 8006dec:	4770      	bx	lr
 8006dee:	68c3      	ldr	r3, [r0, #12]
 8006df0:	4a22      	ldr	r2, [pc, #136]	; (8006e7c <USB_CoreInit+0xfc>)
 8006df2:	f043 0340 	orr.w	r3, r3, #64	; 0x40
 8006df6:	2100      	movs	r1, #0
 8006df8:	60c3      	str	r3, [r0, #12]
 8006dfa:	9101      	str	r1, [sp, #4]
 8006dfc:	e002      	b.n	8006e04 <USB_CoreInit+0x84>
 8006dfe:	6923      	ldr	r3, [r4, #16]
 8006e00:	2b00      	cmp	r3, #0
 8006e02:	db23      	blt.n	8006e4c <USB_CoreInit+0xcc>
 8006e04:	9b01      	ldr	r3, [sp, #4]
 8006e06:	3301      	adds	r3, #1
 8006e08:	4293      	cmp	r3, r2
 8006e0a:	9301      	str	r3, [sp, #4]
 8006e0c:	d9f7      	bls.n	8006dfe <USB_CoreInit+0x7e>
 8006e0e:	2003      	movs	r0, #3
 8006e10:	9b10      	ldr	r3, [sp, #64]	; 0x40
 8006e12:	b9b3      	cbnz	r3, 8006e42 <USB_CoreInit+0xc2>
 8006e14:	6ba3      	ldr	r3, [r4, #56]	; 0x38
 8006e16:	f443 3380 	orr.w	r3, r3, #65536	; 0x10000
 8006e1a:	63a3      	str	r3, [r4, #56]	; 0x38
 8006e1c:	e7d8      	b.n	8006dd0 <USB_CoreInit+0x50>
 8006e1e:	2300      	movs	r3, #0
 8006e20:	9300      	str	r3, [sp, #0]
 8006e22:	6923      	ldr	r3, [r4, #16]
 8006e24:	4a15      	ldr	r2, [pc, #84]	; (8006e7c <USB_CoreInit+0xfc>)
 8006e26:	f043 0301 	orr.w	r3, r3, #1
 8006e2a:	6123      	str	r3, [r4, #16]
 8006e2c:	e003      	b.n	8006e36 <USB_CoreInit+0xb6>
 8006e2e:	6920      	ldr	r0, [r4, #16]
 8006e30:	f010 0001 	ands.w	r0, r0, #1
 8006e34:	d0cc      	beq.n	8006dd0 <USB_CoreInit+0x50>
 8006e36:	9b00      	ldr	r3, [sp, #0]
 8006e38:	3301      	adds	r3, #1
 8006e3a:	4293      	cmp	r3, r2
 8006e3c:	9300      	str	r3, [sp, #0]
 8006e3e:	d9f6      	bls.n	8006e2e <USB_CoreInit+0xae>
 8006e40:	e7c5      	b.n	8006dce <USB_CoreInit+0x4e>
 8006e42:	6ba3      	ldr	r3, [r4, #56]	; 0x38
 8006e44:	f423 3380 	bic.w	r3, r3, #65536	; 0x10000
 8006e48:	63a3      	str	r3, [r4, #56]	; 0x38
 8006e4a:	e7c1      	b.n	8006dd0 <USB_CoreInit+0x50>
 8006e4c:	2300      	movs	r3, #0
 8006e4e:	9301      	str	r3, [sp, #4]
 8006e50:	6923      	ldr	r3, [r4, #16]
 8006e52:	4a0a      	ldr	r2, [pc, #40]	; (8006e7c <USB_CoreInit+0xfc>)
 8006e54:	f043 0301 	orr.w	r3, r3, #1
 8006e58:	6123      	str	r3, [r4, #16]
 8006e5a:	e003      	b.n	8006e64 <USB_CoreInit+0xe4>
 8006e5c:	6920      	ldr	r0, [r4, #16]
 8006e5e:	f010 0001 	ands.w	r0, r0, #1
 8006e62:	d0d5      	beq.n	8006e10 <USB_CoreInit+0x90>
 8006e64:	9b01      	ldr	r3, [sp, #4]
 8006e66:	3301      	adds	r3, #1
 8006e68:	4293      	cmp	r3, r2
 8006e6a:	9301      	str	r3, [sp, #4]
 8006e6c:	d9f6      	bls.n	8006e5c <USB_CoreInit+0xdc>
 8006e6e:	e7ce      	b.n	8006e0e <USB_CoreInit+0x8e>
 8006e70:	68c3      	ldr	r3, [r0, #12]
 8006e72:	f443 1380 	orr.w	r3, r3, #1048576	; 0x100000
 8006e76:	60c3      	str	r3, [r0, #12]
 8006e78:	e79d      	b.n	8006db6 <USB_CoreInit+0x36>
 8006e7a:	bf00      	nop
 8006e7c:	00030d40 	.word	0x00030d40

08006e80 <USB_SetTurnaroundTime>:
 8006e80:	2a02      	cmp	r2, #2
 8006e82:	d00a      	beq.n	8006e9a <USB_SetTurnaroundTime+0x1a>
 8006e84:	f44f 5110 	mov.w	r1, #9216	; 0x2400
 8006e88:	68c2      	ldr	r2, [r0, #12]
 8006e8a:	f422 5270 	bic.w	r2, r2, #15360	; 0x3c00
 8006e8e:	60c2      	str	r2, [r0, #12]
 8006e90:	68c3      	ldr	r3, [r0, #12]
 8006e92:	430b      	orrs	r3, r1
 8006e94:	60c3      	str	r3, [r0, #12]
 8006e96:	2000      	movs	r0, #0
 8006e98:	4770      	bx	lr
 8006e9a:	4b26      	ldr	r3, [pc, #152]	; (8006f34 <USB_SetTurnaroundTime+0xb4>)
 8006e9c:	4a26      	ldr	r2, [pc, #152]	; (8006f38 <USB_SetTurnaroundTime+0xb8>)
 8006e9e:	440b      	add	r3, r1
 8006ea0:	4293      	cmp	r3, r2
 8006ea2:	d932      	bls.n	8006f0a <USB_SetTurnaroundTime+0x8a>
 8006ea4:	4b25      	ldr	r3, [pc, #148]	; (8006f3c <USB_SetTurnaroundTime+0xbc>)
 8006ea6:	4a26      	ldr	r2, [pc, #152]	; (8006f40 <USB_SetTurnaroundTime+0xc0>)
 8006ea8:	440b      	add	r3, r1
 8006eaa:	4293      	cmp	r3, r2
 8006eac:	d930      	bls.n	8006f10 <USB_SetTurnaroundTime+0x90>
 8006eae:	4a25      	ldr	r2, [pc, #148]	; (8006f44 <USB_SetTurnaroundTime+0xc4>)
 8006eb0:	f5a1 0374 	sub.w	r3, r1, #15990784	; 0xf40000
 8006eb4:	f5a3 5310 	sub.w	r3, r3, #9216	; 0x2400
 8006eb8:	4293      	cmp	r3, r2
 8006eba:	d92c      	bls.n	8006f16 <USB_SetTurnaroundTime+0x96>
 8006ebc:	4a22      	ldr	r2, [pc, #136]	; (8006f48 <USB_SetTurnaroundTime+0xc8>)
 8006ebe:	f1a1 7383 	sub.w	r3, r1, #17170432	; 0x1060000
 8006ec2:	f5a3 43e7 	sub.w	r3, r3, #29568	; 0x7380
 8006ec6:	4293      	cmp	r3, r2
 8006ec8:	d328      	bcc.n	8006f1c <USB_SetTurnaroundTime+0x9c>
 8006eca:	4b20      	ldr	r3, [pc, #128]	; (8006f4c <USB_SetTurnaroundTime+0xcc>)
 8006ecc:	4a20      	ldr	r2, [pc, #128]	; (8006f50 <USB_SetTurnaroundTime+0xd0>)
 8006ece:	440b      	add	r3, r1
 8006ed0:	4293      	cmp	r3, r2
 8006ed2:	d926      	bls.n	8006f22 <USB_SetTurnaroundTime+0xa2>
 8006ed4:	4b1f      	ldr	r3, [pc, #124]	; (8006f54 <USB_SetTurnaroundTime+0xd4>)
 8006ed6:	4a20      	ldr	r2, [pc, #128]	; (8006f58 <USB_SetTurnaroundTime+0xd8>)
 8006ed8:	440b      	add	r3, r1
 8006eda:	4293      	cmp	r3, r2
 8006edc:	d324      	bcc.n	8006f28 <USB_SetTurnaroundTime+0xa8>
 8006ede:	4b1f      	ldr	r3, [pc, #124]	; (8006f5c <USB_SetTurnaroundTime+0xdc>)
 8006ee0:	4a1f      	ldr	r2, [pc, #124]	; (8006f60 <USB_SetTurnaroundTime+0xe0>)
 8006ee2:	440b      	add	r3, r1
 8006ee4:	4293      	cmp	r3, r2
 8006ee6:	d3cd      	bcc.n	8006e84 <USB_SetTurnaroundTime+0x4>
 8006ee8:	4a1e      	ldr	r2, [pc, #120]	; (8006f64 <USB_SetTurnaroundTime+0xe4>)
 8006eea:	f1a1 73b7 	sub.w	r3, r1, #23986176	; 0x16e0000
 8006eee:	f5a3 5358 	sub.w	r3, r3, #13824	; 0x3600
 8006ef2:	4293      	cmp	r3, r2
 8006ef4:	d31b      	bcc.n	8006f2e <USB_SetTurnaroundTime+0xae>
 8006ef6:	4b1c      	ldr	r3, [pc, #112]	; (8006f68 <USB_SetTurnaroundTime+0xe8>)
 8006ef8:	4a1c      	ldr	r2, [pc, #112]	; (8006f6c <USB_SetTurnaroundTime+0xec>)
 8006efa:	440b      	add	r3, r1
 8006efc:	4293      	cmp	r3, r2
 8006efe:	bf34      	ite	cc
 8006f00:	f44f 51e0 	movcc.w	r1, #7168	; 0x1c00
 8006f04:	f44f 51c0 	movcs.w	r1, #6144	; 0x1800
 8006f08:	e7be      	b.n	8006e88 <USB_SetTurnaroundTime+0x8>
 8006f0a:	f44f 5170 	mov.w	r1, #15360	; 0x3c00
 8006f0e:	e7bb      	b.n	8006e88 <USB_SetTurnaroundTime+0x8>
 8006f10:	f44f 5160 	mov.w	r1, #14336	; 0x3800
 8006f14:	e7b8      	b.n	8006e88 <USB_SetTurnaroundTime+0x8>
 8006f16:	f44f 5150 	mov.w	r1, #13312	; 0x3400
 8006f1a:	e7b5      	b.n	8006e88 <USB_SetTurnaroundTime+0x8>
 8006f1c:	f44f 5140 	mov.w	r1, #12288	; 0x3000
 8006f20:	e7b2      	b.n	8006e88 <USB_SetTurnaroundTime+0x8>
 8006f22:	f44f 5130 	mov.w	r1, #11264	; 0x2c00
 8006f26:	e7af      	b.n	8006e88 <USB_SetTurnaroundTime+0x8>
 8006f28:	f44f 5120 	mov.w	r1, #10240	; 0x2800
 8006f2c:	e7ac      	b.n	8006e88 <USB_SetTurnaroundTime+0x8>
 8006f2e:	f44f 5100 	mov.w	r1, #8192	; 0x2000
 8006f32:	e7a9      	b.n	8006e88 <USB_SetTurnaroundTime+0x8>
 8006f34:	ff275340 	.word	0xff275340
 8006f38:	000c34ff 	.word	0x000c34ff
 8006f3c:	ff1b1e40 	.word	0xff1b1e40
 8006f40:	000f423f 	.word	0x000f423f
 8006f44:	00124f7f 	.word	0x00124f7f
 8006f48:	0013d620 	.word	0x0013d620
 8006f4c:	fee5b660 	.word	0xfee5b660
 8006f50:	0016e35f 	.word	0x0016e35f
 8006f54:	feced300 	.word	0xfeced300
 8006f58:	001b7740 	.word	0x001b7740
 8006f5c:	feb35bc0 	.word	0xfeb35bc0
 8006f60:	002191c0 	.word	0x002191c0
 8006f64:	00387520 	.word	0x00387520
 8006f68:	fe5954e0 	.word	0xfe5954e0
 8006f6c:	00419ce0 	.word	0x00419ce0

08006f70 <USB_EnableGlobalInt>:
 8006f70:	4603      	mov	r3, r0
 8006f72:	2000      	movs	r0, #0
 8006f74:	689a      	ldr	r2, [r3, #8]
 8006f76:	f042 0201 	orr.w	r2, r2, #1
 8006f7a:	609a      	str	r2, [r3, #8]
 8006f7c:	4770      	bx	lr
 8006f7e:	bf00      	nop

08006f80 <USB_DisableGlobalInt>:
 8006f80:	4603      	mov	r3, r0
 8006f82:	2000      	movs	r0, #0
 8006f84:	689a      	ldr	r2, [r3, #8]
 8006f86:	f022 0201 	bic.w	r2, r2, #1
 8006f8a:	609a      	str	r2, [r3, #8]
 8006f8c:	4770      	bx	lr
 8006f8e:	bf00      	nop

08006f90 <USB_SetCurrentMode>:
 8006f90:	b538      	push	{r3, r4, r5, lr}
 8006f92:	68c3      	ldr	r3, [r0, #12]
 8006f94:	2901      	cmp	r1, #1
 8006f96:	f023 43c0 	bic.w	r3, r3, #1610612736	; 0x60000000
 8006f9a:	4605      	mov	r5, r0
 8006f9c:	60c3      	str	r3, [r0, #12]
 8006f9e:	d018      	beq.n	8006fd2 <USB_SetCurrentMode+0x42>
 8006fa0:	b9a9      	cbnz	r1, 8006fce <USB_SetCurrentMode+0x3e>
 8006fa2:	68c3      	ldr	r3, [r0, #12]
 8006fa4:	f043 4380 	orr.w	r3, r3, #1073741824	; 0x40000000
 8006fa8:	460c      	mov	r4, r1
 8006faa:	60c3      	str	r3, [r0, #12]
 8006fac:	e001      	b.n	8006fb2 <USB_SetCurrentMode+0x22>
 8006fae:	2c32      	cmp	r4, #50	; 0x32
 8006fb0:	d00d      	beq.n	8006fce <USB_SetCurrentMode+0x3e>
 8006fb2:	2001      	movs	r0, #1
 8006fb4:	f7fc ff68 	bl	8003e88 <HAL_Delay>
 8006fb8:	696b      	ldr	r3, [r5, #20]
 8006fba:	07db      	lsls	r3, r3, #31
 8006fbc:	f104 0401 	add.w	r4, r4, #1
 8006fc0:	d4f5      	bmi.n	8006fae <USB_SetCurrentMode+0x1e>
 8006fc2:	f1a4 0032 	sub.w	r0, r4, #50	; 0x32
 8006fc6:	fab0 f080 	clz	r0, r0
 8006fca:	0940      	lsrs	r0, r0, #5
 8006fcc:	bd38      	pop	{r3, r4, r5, pc}
 8006fce:	2001      	movs	r0, #1
 8006fd0:	bd38      	pop	{r3, r4, r5, pc}
 8006fd2:	68c3      	ldr	r3, [r0, #12]
 8006fd4:	f043 5300 	orr.w	r3, r3, #536870912	; 0x20000000
 8006fd8:	60c3      	str	r3, [r0, #12]
 8006fda:	2400      	movs	r4, #0
 8006fdc:	e001      	b.n	8006fe2 <USB_SetCurrentMode+0x52>
 8006fde:	2c32      	cmp	r4, #50	; 0x32
 8006fe0:	d0f5      	beq.n	8006fce <USB_SetCurrentMode+0x3e>
 8006fe2:	2001      	movs	r0, #1
 8006fe4:	f7fc ff50 	bl	8003e88 <HAL_Delay>
 8006fe8:	696b      	ldr	r3, [r5, #20]
 8006fea:	07da      	lsls	r2, r3, #31
 8006fec:	f104 0401 	add.w	r4, r4, #1
 8006ff0:	d5f5      	bpl.n	8006fde <USB_SetCurrentMode+0x4e>
 8006ff2:	f1a4 0032 	sub.w	r0, r4, #50	; 0x32
 8006ff6:	fab0 f080 	clz	r0, r0
 8006ffa:	0940      	lsrs	r0, r0, #5
 8006ffc:	e7e6      	b.n	8006fcc <USB_SetCurrentMode+0x3c>
 8006ffe:	bf00      	nop

08007000 <USB_DevInit>:
 8007000:	b084      	sub	sp, #16
 8007002:	e92d 43f0 	stmdb	sp!, {r4, r5, r6, r7, r8, r9, lr}
 8007006:	b083      	sub	sp, #12
 8007008:	ac0b      	add	r4, sp, #44	; 0x2c
 800700a:	e884 000e 	stmia.w	r4, {r1, r2, r3}
 800700e:	9e15      	ldr	r6, [sp, #84]	; 0x54
 8007010:	2200      	movs	r2, #0
 8007012:	f8c0 2104 	str.w	r2, [r0, #260]	; 0x104
 8007016:	4603      	mov	r3, r0
 8007018:	f8c0 2108 	str.w	r2, [r0, #264]	; 0x108
 800701c:	460c      	mov	r4, r1
 800701e:	f8c0 210c 	str.w	r2, [r0, #268]	; 0x10c
 8007022:	f8c0 2110 	str.w	r2, [r0, #272]	; 0x110
 8007026:	f8c0 2114 	str.w	r2, [r0, #276]	; 0x114
 800702a:	f8c0 2118 	str.w	r2, [r0, #280]	; 0x118
 800702e:	f8c0 211c 	str.w	r2, [r0, #284]	; 0x11c
 8007032:	f8c0 2120 	str.w	r2, [r0, #288]	; 0x120
 8007036:	f8c0 2124 	str.w	r2, [r0, #292]	; 0x124
 800703a:	f8c0 2128 	str.w	r2, [r0, #296]	; 0x128
 800703e:	f8c0 212c 	str.w	r2, [r0, #300]	; 0x12c
 8007042:	f8c0 2130 	str.w	r2, [r0, #304]	; 0x130
 8007046:	f8c0 2134 	str.w	r2, [r0, #308]	; 0x134
 800704a:	f8c0 2138 	str.w	r2, [r0, #312]	; 0x138
 800704e:	f8c0 213c 	str.w	r2, [r0, #316]	; 0x13c
 8007052:	2e00      	cmp	r6, #0
 8007054:	f040 80ab 	bne.w	80071ae <USB_DevInit+0x1ae>
 8007058:	f8d0 2804 	ldr.w	r2, [r0, #2052]	; 0x804
 800705c:	f042 0202 	orr.w	r2, r2, #2
 8007060:	f8c0 2804 	str.w	r2, [r0, #2052]	; 0x804
 8007064:	6b82      	ldr	r2, [r0, #56]	; 0x38
 8007066:	f442 1200 	orr.w	r2, r2, #2097152	; 0x200000
 800706a:	6382      	str	r2, [r0, #56]	; 0x38
 800706c:	6b82      	ldr	r2, [r0, #56]	; 0x38
 800706e:	f422 2200 	bic.w	r2, r2, #524288	; 0x80000
 8007072:	6382      	str	r2, [r0, #56]	; 0x38
 8007074:	6b82      	ldr	r2, [r0, #56]	; 0x38
 8007076:	f422 2280 	bic.w	r2, r2, #262144	; 0x40000
 800707a:	f500 6500 	add.w	r5, r0, #2048	; 0x800
 800707e:	6382      	str	r2, [r0, #56]	; 0x38
 8007080:	2200      	movs	r2, #0
 8007082:	f8c3 2e00 	str.w	r2, [r3, #3584]	; 0xe00
 8007086:	9a10      	ldr	r2, [sp, #64]	; 0x40
 8007088:	6829      	ldr	r1, [r5, #0]
 800708a:	6029      	str	r1, [r5, #0]
 800708c:	2a01      	cmp	r2, #1
 800708e:	f000 8099 	beq.w	80071c4 <USB_DevInit+0x1c4>
 8007092:	682a      	ldr	r2, [r5, #0]
 8007094:	f042 0203 	orr.w	r2, r2, #3
 8007098:	602a      	str	r2, [r5, #0]
 800709a:	2100      	movs	r1, #0
 800709c:	f44f 6284 	mov.w	r2, #1056	; 0x420
 80070a0:	9100      	str	r1, [sp, #0]
 80070a2:	494d      	ldr	r1, [pc, #308]	; (80071d8 <USB_DevInit+0x1d8>)
 80070a4:	611a      	str	r2, [r3, #16]
 80070a6:	e003      	b.n	80070b0 <USB_DevInit+0xb0>
 80070a8:	6918      	ldr	r0, [r3, #16]
 80070aa:	f010 0020 	ands.w	r0, r0, #32
 80070ae:	d005      	beq.n	80070bc <USB_DevInit+0xbc>
 80070b0:	9a00      	ldr	r2, [sp, #0]
 80070b2:	3201      	adds	r2, #1
 80070b4:	428a      	cmp	r2, r1
 80070b6:	9200      	str	r2, [sp, #0]
 80070b8:	d9f6      	bls.n	80070a8 <USB_DevInit+0xa8>
 80070ba:	2001      	movs	r0, #1
 80070bc:	2100      	movs	r1, #0
 80070be:	2210      	movs	r2, #16
 80070c0:	9101      	str	r1, [sp, #4]
 80070c2:	4945      	ldr	r1, [pc, #276]	; (80071d8 <USB_DevInit+0x1d8>)
 80070c4:	611a      	str	r2, [r3, #16]
 80070c6:	e002      	b.n	80070ce <USB_DevInit+0xce>
 80070c8:	691a      	ldr	r2, [r3, #16]
 80070ca:	06d2      	lsls	r2, r2, #27
 80070cc:	d505      	bpl.n	80070da <USB_DevInit+0xda>
 80070ce:	9a01      	ldr	r2, [sp, #4]
 80070d0:	3201      	adds	r2, #1
 80070d2:	428a      	cmp	r2, r1
 80070d4:	9201      	str	r2, [sp, #4]
 80070d6:	d9f7      	bls.n	80070c8 <USB_DevInit+0xc8>
 80070d8:	2001      	movs	r0, #1
 80070da:	2100      	movs	r1, #0
 80070dc:	6129      	str	r1, [r5, #16]
 80070de:	6169      	str	r1, [r5, #20]
 80070e0:	61e9      	str	r1, [r5, #28]
 80070e2:	b1f4      	cbz	r4, 8007122 <USB_DevInit+0x122>
 80070e4:	468c      	mov	ip, r1
 80070e6:	f503 6210 	add.w	r2, r3, #2304	; 0x900
 80070ea:	f04f 4890 	mov.w	r8, #1207959552	; 0x48000000
 80070ee:	f04f 6900 	mov.w	r9, #134217728	; 0x8000000
 80070f2:	f64f 3e7f 	movw	lr, #64383	; 0xfb7f
 80070f6:	e00a      	b.n	800710e <USB_DevInit+0x10e>
 80070f8:	f8c2 c000 	str.w	ip, [r2]
 80070fc:	3101      	adds	r1, #1
 80070fe:	42a1      	cmp	r1, r4
 8007100:	f8c2 c010 	str.w	ip, [r2, #16]
 8007104:	f8c2 e008 	str.w	lr, [r2, #8]
 8007108:	f102 0220 	add.w	r2, r2, #32
 800710c:	d02f      	beq.n	800716e <USB_DevInit+0x16e>
 800710e:	6817      	ldr	r7, [r2, #0]
 8007110:	2f00      	cmp	r7, #0
 8007112:	daf1      	bge.n	80070f8 <USB_DevInit+0xf8>
 8007114:	b111      	cbz	r1, 800711c <USB_DevInit+0x11c>
 8007116:	f8c2 8000 	str.w	r8, [r2]
 800711a:	e7ef      	b.n	80070fc <USB_DevInit+0xfc>
 800711c:	f8c2 9000 	str.w	r9, [r2]
 8007120:	e7ec      	b.n	80070fc <USB_DevInit+0xfc>
 8007122:	692a      	ldr	r2, [r5, #16]
 8007124:	990e      	ldr	r1, [sp, #56]	; 0x38
 8007126:	f422 7280 	bic.w	r2, r2, #256	; 0x100
 800712a:	612a      	str	r2, [r5, #16]
 800712c:	2400      	movs	r4, #0
 800712e:	f06f 4280 	mvn.w	r2, #1073741824	; 0x40000000
 8007132:	619c      	str	r4, [r3, #24]
 8007134:	615a      	str	r2, [r3, #20]
 8007136:	b919      	cbnz	r1, 8007140 <USB_DevInit+0x140>
 8007138:	699a      	ldr	r2, [r3, #24]
 800713a:	f042 0210 	orr.w	r2, r2, #16
 800713e:	619a      	str	r2, [r3, #24]
 8007140:	699c      	ldr	r4, [r3, #24]
 8007142:	4a26      	ldr	r2, [pc, #152]	; (80071dc <USB_DevInit+0x1dc>)
 8007144:	9911      	ldr	r1, [sp, #68]	; 0x44
 8007146:	4322      	orrs	r2, r4
 8007148:	619a      	str	r2, [r3, #24]
 800714a:	b119      	cbz	r1, 8007154 <USB_DevInit+0x154>
 800714c:	699a      	ldr	r2, [r3, #24]
 800714e:	f042 0208 	orr.w	r2, r2, #8
 8007152:	619a      	str	r2, [r3, #24]
 8007154:	2e01      	cmp	r6, #1
 8007156:	d105      	bne.n	8007164 <USB_DevInit+0x164>
 8007158:	699a      	ldr	r2, [r3, #24]
 800715a:	f042 4280 	orr.w	r2, r2, #1073741824	; 0x40000000
 800715e:	f042 0204 	orr.w	r2, r2, #4
 8007162:	619a      	str	r2, [r3, #24]
 8007164:	b003      	add	sp, #12
 8007166:	e8bd 43f0 	ldmia.w	sp!, {r4, r5, r6, r7, r8, r9, lr}
 800716a:	b004      	add	sp, #16
 800716c:	4770      	bx	lr
 800716e:	2100      	movs	r1, #0
 8007170:	468c      	mov	ip, r1
 8007172:	f503 6230 	add.w	r2, r3, #2816	; 0xb00
 8007176:	f04f 4890 	mov.w	r8, #1207959552	; 0x48000000
 800717a:	f04f 6900 	mov.w	r9, #134217728	; 0x8000000
 800717e:	f64f 3e7f 	movw	lr, #64383	; 0xfb7f
 8007182:	e00a      	b.n	800719a <USB_DevInit+0x19a>
 8007184:	f8c2 c000 	str.w	ip, [r2]
 8007188:	3101      	adds	r1, #1
 800718a:	42a1      	cmp	r1, r4
 800718c:	f8c2 c010 	str.w	ip, [r2, #16]
 8007190:	f8c2 e008 	str.w	lr, [r2, #8]
 8007194:	f102 0220 	add.w	r2, r2, #32
 8007198:	d0c3      	beq.n	8007122 <USB_DevInit+0x122>
 800719a:	6817      	ldr	r7, [r2, #0]
 800719c:	2f00      	cmp	r7, #0
 800719e:	daf1      	bge.n	8007184 <USB_DevInit+0x184>
 80071a0:	b111      	cbz	r1, 80071a8 <USB_DevInit+0x1a8>
 80071a2:	f8c2 8000 	str.w	r8, [r2]
 80071a6:	e7ef      	b.n	8007188 <USB_DevInit+0x188>
 80071a8:	f8c2 9000 	str.w	r9, [r2]
 80071ac:	e7ec      	b.n	8007188 <USB_DevInit+0x188>
 80071ae:	6b82      	ldr	r2, [r0, #56]	; 0x38
 80071b0:	f422 1200 	bic.w	r2, r2, #2097152	; 0x200000
 80071b4:	6382      	str	r2, [r0, #56]	; 0x38
 80071b6:	6b82      	ldr	r2, [r0, #56]	; 0x38
 80071b8:	f442 2200 	orr.w	r2, r2, #524288	; 0x80000
 80071bc:	6382      	str	r2, [r0, #56]	; 0x38
 80071be:	f500 6500 	add.w	r5, r0, #2048	; 0x800
 80071c2:	e75d      	b.n	8007080 <USB_DevInit+0x80>
 80071c4:	9a0d      	ldr	r2, [sp, #52]	; 0x34
 80071c6:	b912      	cbnz	r2, 80071ce <USB_DevInit+0x1ce>
 80071c8:	682a      	ldr	r2, [r5, #0]
 80071ca:	602a      	str	r2, [r5, #0]
 80071cc:	e765      	b.n	800709a <USB_DevInit+0x9a>
 80071ce:	682a      	ldr	r2, [r5, #0]
 80071d0:	f042 0201 	orr.w	r2, r2, #1
 80071d4:	602a      	str	r2, [r5, #0]
 80071d6:	e760      	b.n	800709a <USB_DevInit+0x9a>
 80071d8:	00030d40 	.word	0x00030d40
 80071dc:	803c3800 	.word	0x803c3800

080071e0 <USB_FlushTxFifo>:
 80071e0:	b082      	sub	sp, #8
 80071e2:	0189      	lsls	r1, r1, #6
 80071e4:	f041 0120 	orr.w	r1, r1, #32
 80071e8:	2300      	movs	r3, #0
 80071ea:	9301      	str	r3, [sp, #4]
 80071ec:	4a08      	ldr	r2, [pc, #32]	; (8007210 <USB_FlushTxFifo+0x30>)
 80071ee:	6101      	str	r1, [r0, #16]
 80071f0:	e003      	b.n	80071fa <USB_FlushTxFifo+0x1a>
 80071f2:	6903      	ldr	r3, [r0, #16]
 80071f4:	f013 0320 	ands.w	r3, r3, #32
 80071f8:	d007      	beq.n	800720a <USB_FlushTxFifo+0x2a>
 80071fa:	9b01      	ldr	r3, [sp, #4]
 80071fc:	3301      	adds	r3, #1
 80071fe:	4293      	cmp	r3, r2
 8007200:	9301      	str	r3, [sp, #4]
 8007202:	d9f6      	bls.n	80071f2 <USB_FlushTxFifo+0x12>
 8007204:	2003      	movs	r0, #3
 8007206:	b002      	add	sp, #8
 8007208:	4770      	bx	lr
 800720a:	4618      	mov	r0, r3
 800720c:	b002      	add	sp, #8
 800720e:	4770      	bx	lr
 8007210:	00030d40 	.word	0x00030d40

08007214 <USB_GetDevSpeed>:
 8007214:	f8d0 3808 	ldr.w	r3, [r0, #2056]	; 0x808
 8007218:	f013 0006 	ands.w	r0, r3, #6
 800721c:	d004      	beq.n	8007228 <USB_GetDevSpeed+0x14>
 800721e:	f013 0f02 	tst.w	r3, #2
 8007222:	bf14      	ite	ne
 8007224:	2002      	movne	r0, #2
 8007226:	200f      	moveq	r0, #15
 8007228:	4770      	bx	lr
 800722a:	bf00      	nop

0800722c <USB_ActivateEndpoint>:
 800722c:	b470      	push	{r4, r5, r6}
 800722e:	784b      	ldrb	r3, [r1, #1]
 8007230:	780a      	ldrb	r2, [r1, #0]
 8007232:	2b01      	cmp	r3, #1
 8007234:	d022      	beq.n	800727c <USB_ActivateEndpoint+0x50>
 8007236:	f002 050f 	and.w	r5, r2, #15
 800723a:	f44f 3380 	mov.w	r3, #65536	; 0x10000
 800723e:	40ab      	lsls	r3, r5
 8007240:	f8d0 581c 	ldr.w	r5, [r0, #2076]	; 0x81c
 8007244:	f500 6400 	add.w	r4, r0, #2048	; 0x800
 8007248:	432b      	orrs	r3, r5
 800724a:	eb00 1042 	add.w	r0, r0, r2, lsl #5
 800724e:	61e3      	str	r3, [r4, #28]
 8007250:	f8d0 3b00 	ldr.w	r3, [r0, #2816]	; 0xb00
 8007254:	041b      	lsls	r3, r3, #16
 8007256:	d40e      	bmi.n	8007276 <USB_ActivateEndpoint+0x4a>
 8007258:	688b      	ldr	r3, [r1, #8]
 800725a:	f8d0 4b00 	ldr.w	r4, [r0, #2816]	; 0xb00
 800725e:	78ca      	ldrb	r2, [r1, #3]
 8007260:	f3c3 030a 	ubfx	r3, r3, #0, #11
 8007264:	4323      	orrs	r3, r4
 8007266:	ea43 4382 	orr.w	r3, r3, r2, lsl #18
 800726a:	f043 5380 	orr.w	r3, r3, #268435456	; 0x10000000
 800726e:	f443 4300 	orr.w	r3, r3, #32768	; 0x8000
 8007272:	f8c0 3b00 	str.w	r3, [r0, #2816]	; 0xb00
 8007276:	2000      	movs	r0, #0
 8007278:	bc70      	pop	{r4, r5, r6}
 800727a:	4770      	bx	lr
 800727c:	f8d0 681c 	ldr.w	r6, [r0, #2076]	; 0x81c
 8007280:	f002 040f 	and.w	r4, r2, #15
 8007284:	f500 6500 	add.w	r5, r0, #2048	; 0x800
 8007288:	40a3      	lsls	r3, r4
 800728a:	4333      	orrs	r3, r6
 800728c:	eb00 1042 	add.w	r0, r0, r2, lsl #5
 8007290:	61eb      	str	r3, [r5, #28]
 8007292:	f8d0 3900 	ldr.w	r3, [r0, #2304]	; 0x900
 8007296:	041c      	lsls	r4, r3, #16
 8007298:	d4ed      	bmi.n	8007276 <USB_ActivateEndpoint+0x4a>
 800729a:	688b      	ldr	r3, [r1, #8]
 800729c:	f8d0 4900 	ldr.w	r4, [r0, #2304]	; 0x900
 80072a0:	78c9      	ldrb	r1, [r1, #3]
 80072a2:	f3c3 030a 	ubfx	r3, r3, #0, #11
 80072a6:	4323      	orrs	r3, r4
 80072a8:	ea43 4381 	orr.w	r3, r3, r1, lsl #18
 80072ac:	ea43 5282 	orr.w	r2, r3, r2, lsl #22
 80072b0:	f042 5280 	orr.w	r2, r2, #268435456	; 0x10000000
 80072b4:	f442 4200 	orr.w	r2, r2, #32768	; 0x8000
 80072b8:	f8c0 2900 	str.w	r2, [r0, #2304]	; 0x900
 80072bc:	bc70      	pop	{r4, r5, r6}
 80072be:	2000      	movs	r0, #0
 80072c0:	4770      	bx	lr
 80072c2:	bf00      	nop

080072c4 <USB_DeactivateEndpoint>:
 80072c4:	b430      	push	{r4, r5}
 80072c6:	784a      	ldrb	r2, [r1, #1]
 80072c8:	780b      	ldrb	r3, [r1, #0]
 80072ca:	2a01      	cmp	r2, #1
 80072cc:	eb00 1543 	add.w	r5, r0, r3, lsl #5
 80072d0:	d02b      	beq.n	800732a <USB_DeactivateEndpoint+0x66>
 80072d2:	f8d5 2b00 	ldr.w	r2, [r5, #2816]	; 0xb00
 80072d6:	2a00      	cmp	r2, #0
 80072d8:	db1a      	blt.n	8007310 <USB_DeactivateEndpoint+0x4c>
 80072da:	f8d0 483c 	ldr.w	r4, [r0, #2108]	; 0x83c
 80072de:	4928      	ldr	r1, [pc, #160]	; (8007380 <USB_DeactivateEndpoint+0xbc>)
 80072e0:	f44f 3280 	mov.w	r2, #65536	; 0x10000
 80072e4:	f003 030f 	and.w	r3, r3, #15
 80072e8:	fa02 f303 	lsl.w	r3, r2, r3
 80072ec:	ea24 0403 	bic.w	r4, r4, r3
 80072f0:	f8c0 483c 	str.w	r4, [r0, #2108]	; 0x83c
 80072f4:	f8d0 281c 	ldr.w	r2, [r0, #2076]	; 0x81c
 80072f8:	ea22 0303 	bic.w	r3, r2, r3
 80072fc:	f8c0 381c 	str.w	r3, [r0, #2076]	; 0x81c
 8007300:	f8d5 3b00 	ldr.w	r3, [r5, #2816]	; 0xb00
 8007304:	4019      	ands	r1, r3
 8007306:	f8c5 1b00 	str.w	r1, [r5, #2816]	; 0xb00
 800730a:	2000      	movs	r0, #0
 800730c:	bc30      	pop	{r4, r5}
 800730e:	4770      	bx	lr
 8007310:	f8d5 2b00 	ldr.w	r2, [r5, #2816]	; 0xb00
 8007314:	f042 6200 	orr.w	r2, r2, #134217728	; 0x8000000
 8007318:	f8c5 2b00 	str.w	r2, [r5, #2816]	; 0xb00
 800731c:	f8d5 2b00 	ldr.w	r2, [r5, #2816]	; 0xb00
 8007320:	f042 4280 	orr.w	r2, r2, #1073741824	; 0x40000000
 8007324:	f8c5 2b00 	str.w	r2, [r5, #2816]	; 0xb00
 8007328:	e7d7      	b.n	80072da <USB_DeactivateEndpoint+0x16>
 800732a:	f8d5 2900 	ldr.w	r2, [r5, #2304]	; 0x900
 800732e:	2a00      	cmp	r2, #0
 8007330:	da0b      	bge.n	800734a <USB_DeactivateEndpoint+0x86>
 8007332:	f8d5 2900 	ldr.w	r2, [r5, #2304]	; 0x900
 8007336:	f042 6200 	orr.w	r2, r2, #134217728	; 0x8000000
 800733a:	f8c5 2900 	str.w	r2, [r5, #2304]	; 0x900
 800733e:	f8d5 2900 	ldr.w	r2, [r5, #2304]	; 0x900
 8007342:	f042 4280 	orr.w	r2, r2, #1073741824	; 0x40000000
 8007346:	f8c5 2900 	str.w	r2, [r5, #2304]	; 0x900
 800734a:	f8d0 483c 	ldr.w	r4, [r0, #2108]	; 0x83c
 800734e:	490d      	ldr	r1, [pc, #52]	; (8007384 <USB_DeactivateEndpoint+0xc0>)
 8007350:	2201      	movs	r2, #1
 8007352:	f003 030f 	and.w	r3, r3, #15
 8007356:	fa02 f303 	lsl.w	r3, r2, r3
 800735a:	ea24 0403 	bic.w	r4, r4, r3
 800735e:	f8c0 483c 	str.w	r4, [r0, #2108]	; 0x83c
 8007362:	f8d0 281c 	ldr.w	r2, [r0, #2076]	; 0x81c
 8007366:	ea22 0303 	bic.w	r3, r2, r3
 800736a:	f8c0 381c 	str.w	r3, [r0, #2076]	; 0x81c
 800736e:	f8d5 3900 	ldr.w	r3, [r5, #2304]	; 0x900
 8007372:	4019      	ands	r1, r3
 8007374:	f8c5 1900 	str.w	r1, [r5, #2304]	; 0x900
 8007378:	2000      	movs	r0, #0
 800737a:	bc30      	pop	{r4, r5}
 800737c:	4770      	bx	lr
 800737e:	bf00      	nop
 8007380:	eff37800 	.word	0xeff37800
 8007384:	ec337800 	.word	0xec337800

08007388 <USB_EPStartXfer>:
 8007388:	e92d 43f0 	stmdb	sp!, {r4, r5, r6, r7, r8, r9, lr}
 800738c:	784d      	ldrb	r5, [r1, #1]
 800738e:	780c      	ldrb	r4, [r1, #0]
 8007390:	2d01      	cmp	r5, #1
 8007392:	d053      	beq.n	800743c <USB_EPStartXfer+0xb4>
 8007394:	eb00 1444 	add.w	r4, r0, r4, lsl #5
 8007398:	694d      	ldr	r5, [r1, #20]
 800739a:	f8d4 6b10 	ldr.w	r6, [r4, #2832]	; 0xb10
 800739e:	0cf6      	lsrs	r6, r6, #19
 80073a0:	04f6      	lsls	r6, r6, #19
 80073a2:	f8c4 6b10 	str.w	r6, [r4, #2832]	; 0xb10
 80073a6:	f8d4 6b10 	ldr.w	r6, [r4, #2832]	; 0xb10
 80073aa:	f026 56ff 	bic.w	r6, r6, #534773760	; 0x1fe00000
 80073ae:	f426 16c0 	bic.w	r6, r6, #1572864	; 0x180000
 80073b2:	f504 6330 	add.w	r3, r4, #2816	; 0xb00
 80073b6:	611e      	str	r6, [r3, #16]
 80073b8:	b37d      	cbz	r5, 800741a <USB_EPStartXfer+0x92>
 80073ba:	688e      	ldr	r6, [r1, #8]
 80073bc:	4f7c      	ldr	r7, [pc, #496]	; (80075b0 <USB_EPStartXfer+0x228>)
 80073be:	f8d3 c010 	ldr.w	ip, [r3, #16]
 80073c2:	4435      	add	r5, r6
 80073c4:	3d01      	subs	r5, #1
 80073c6:	fbb5 f5f6 	udiv	r5, r5, r6
 80073ca:	ea07 47c5 	and.w	r7, r7, r5, lsl #19
 80073ce:	ea47 070c 	orr.w	r7, r7, ip
 80073d2:	611f      	str	r7, [r3, #16]
 80073d4:	b2ad      	uxth	r5, r5
 80073d6:	fb06 f505 	mul.w	r5, r6, r5
 80073da:	691e      	ldr	r6, [r3, #16]
 80073dc:	f3c5 0512 	ubfx	r5, r5, #0, #19
 80073e0:	4335      	orrs	r5, r6
 80073e2:	2a01      	cmp	r2, #1
 80073e4:	611d      	str	r5, [r3, #16]
 80073e6:	d024      	beq.n	8007432 <USB_EPStartXfer+0xaa>
 80073e8:	78cb      	ldrb	r3, [r1, #3]
 80073ea:	2b01      	cmp	r3, #1
 80073ec:	d10c      	bne.n	8007408 <USB_EPStartXfer+0x80>
 80073ee:	f8d0 3808 	ldr.w	r3, [r0, #2056]	; 0x808
 80073f2:	f413 7f80 	tst.w	r3, #256	; 0x100
 80073f6:	f8d4 3b00 	ldr.w	r3, [r4, #2816]	; 0xb00
 80073fa:	bf0c      	ite	eq
 80073fc:	f043 5300 	orreq.w	r3, r3, #536870912	; 0x20000000
 8007400:	f043 5380 	orrne.w	r3, r3, #268435456	; 0x10000000
 8007404:	f8c4 3b00 	str.w	r3, [r4, #2816]	; 0xb00
 8007408:	f8d4 3b00 	ldr.w	r3, [r4, #2816]	; 0xb00
 800740c:	f043 4304 	orr.w	r3, r3, #2214592512	; 0x84000000
 8007410:	f8c4 3b00 	str.w	r3, [r4, #2816]	; 0xb00
 8007414:	2000      	movs	r0, #0
 8007416:	e8bd 83f0 	ldmia.w	sp!, {r4, r5, r6, r7, r8, r9, pc}
 800741a:	688d      	ldr	r5, [r1, #8]
 800741c:	691e      	ldr	r6, [r3, #16]
 800741e:	f3c5 0512 	ubfx	r5, r5, #0, #19
 8007422:	4335      	orrs	r5, r6
 8007424:	611d      	str	r5, [r3, #16]
 8007426:	691d      	ldr	r5, [r3, #16]
 8007428:	2a01      	cmp	r2, #1
 800742a:	f445 2500 	orr.w	r5, r5, #524288	; 0x80000
 800742e:	611d      	str	r5, [r3, #16]
 8007430:	d1da      	bne.n	80073e8 <USB_EPStartXfer+0x60>
 8007432:	68ca      	ldr	r2, [r1, #12]
 8007434:	2a00      	cmp	r2, #0
 8007436:	d0d7      	beq.n	80073e8 <USB_EPStartXfer+0x60>
 8007438:	615a      	str	r2, [r3, #20]
 800743a:	e7d5      	b.n	80073e8 <USB_EPStartXfer+0x60>
 800743c:	694e      	ldr	r6, [r1, #20]
 800743e:	2e00      	cmp	r6, #0
 8007440:	d040      	beq.n	80074c4 <USB_EPStartXfer+0x13c>
 8007442:	eb00 1e44 	add.w	lr, r0, r4, lsl #5
 8007446:	f8d1 9008 	ldr.w	r9, [r1, #8]
 800744a:	f8de c910 	ldr.w	ip, [lr, #2320]	; 0x910
 800744e:	4f58      	ldr	r7, [pc, #352]	; (80075b0 <USB_EPStartXfer+0x228>)
 8007450:	ea4f 4cdc 	mov.w	ip, ip, lsr #19
 8007454:	ea4f 4ccc 	mov.w	ip, ip, lsl #19
 8007458:	f8ce c910 	str.w	ip, [lr, #2320]	; 0x910
 800745c:	f8de 8910 	ldr.w	r8, [lr, #2320]	; 0x910
 8007460:	f028 58ff 	bic.w	r8, r8, #534773760	; 0x1fe00000
 8007464:	f428 18c0 	bic.w	r8, r8, #1572864	; 0x180000
 8007468:	f8ce 8910 	str.w	r8, [lr, #2320]	; 0x910
 800746c:	f8de 8910 	ldr.w	r8, [lr, #2320]	; 0x910
 8007470:	eb06 0c09 	add.w	ip, r6, r9
 8007474:	f10c 3cff 	add.w	ip, ip, #4294967295	; 0xffffffff
 8007478:	fbbc fcf9 	udiv	ip, ip, r9
 800747c:	ea07 47cc 	and.w	r7, r7, ip, lsl #19
 8007480:	ea47 0708 	orr.w	r7, r7, r8
 8007484:	f8ce 7910 	str.w	r7, [lr, #2320]	; 0x910
 8007488:	f8de c910 	ldr.w	ip, [lr, #2320]	; 0x910
 800748c:	f3c6 0712 	ubfx	r7, r6, #0, #19
 8007490:	ea47 070c 	orr.w	r7, r7, ip
 8007494:	f8ce 7910 	str.w	r7, [lr, #2320]	; 0x910
 8007498:	78cf      	ldrb	r7, [r1, #3]
 800749a:	2f01      	cmp	r7, #1
 800749c:	f50e 6310 	add.w	r3, lr, #2304	; 0x900
 80074a0:	d055      	beq.n	800754e <USB_EPStartXfer+0x1c6>
 80074a2:	2a01      	cmp	r2, #1
 80074a4:	d06f      	beq.n	8007586 <USB_EPStartXfer+0x1fe>
 80074a6:	f8de 3900 	ldr.w	r3, [lr, #2304]	; 0x900
 80074aa:	f043 4304 	orr.w	r3, r3, #2214592512	; 0x84000000
 80074ae:	f8ce 3900 	str.w	r3, [lr, #2304]	; 0x900
 80074b2:	f8d0 3834 	ldr.w	r3, [r0, #2100]	; 0x834
 80074b6:	f004 040f 	and.w	r4, r4, #15
 80074ba:	40a5      	lsls	r5, r4
 80074bc:	431d      	orrs	r5, r3
 80074be:	f8c0 5834 	str.w	r5, [r0, #2100]	; 0x834
 80074c2:	e7a7      	b.n	8007414 <USB_EPStartXfer+0x8c>
 80074c4:	eb00 1c44 	add.w	ip, r0, r4, lsl #5
 80074c8:	2a01      	cmp	r2, #1
 80074ca:	f8dc 5910 	ldr.w	r5, [ip, #2320]	; 0x910
 80074ce:	f025 55ff 	bic.w	r5, r5, #534773760	; 0x1fe00000
 80074d2:	f425 15c0 	bic.w	r5, r5, #1572864	; 0x180000
 80074d6:	f8cc 5910 	str.w	r5, [ip, #2320]	; 0x910
 80074da:	f8dc 5910 	ldr.w	r5, [ip, #2320]	; 0x910
 80074de:	f445 2500 	orr.w	r5, r5, #524288	; 0x80000
 80074e2:	f8cc 5910 	str.w	r5, [ip, #2320]	; 0x910
 80074e6:	f8dc 5910 	ldr.w	r5, [ip, #2320]	; 0x910
 80074ea:	ea4f 45d5 	mov.w	r5, r5, lsr #19
 80074ee:	ea4f 45c5 	mov.w	r5, r5, lsl #19
 80074f2:	f8cc 5910 	str.w	r5, [ip, #2320]	; 0x910
 80074f6:	f50c 6310 	add.w	r3, ip, #2304	; 0x900
 80074fa:	78cf      	ldrb	r7, [r1, #3]
 80074fc:	d038      	beq.n	8007570 <USB_EPStartXfer+0x1e8>
 80074fe:	f8dc 5900 	ldr.w	r5, [ip, #2304]	; 0x900
 8007502:	2f01      	cmp	r7, #1
 8007504:	f045 4504 	orr.w	r5, r5, #2214592512	; 0x84000000
 8007508:	f8cc 5900 	str.w	r5, [ip, #2304]	; 0x900
 800750c:	d182      	bne.n	8007414 <USB_EPStartXfer+0x8c>
 800750e:	f8d0 5808 	ldr.w	r5, [r0, #2056]	; 0x808
 8007512:	f415 7f80 	tst.w	r5, #256	; 0x100
 8007516:	681d      	ldr	r5, [r3, #0]
 8007518:	bf0c      	ite	eq
 800751a:	f045 5500 	orreq.w	r5, r5, #536870912	; 0x20000000
 800751e:	f045 5580 	orrne.w	r5, r5, #268435456	; 0x10000000
 8007522:	601d      	str	r5, [r3, #0]
 8007524:	2a00      	cmp	r2, #0
 8007526:	f47f af75 	bne.w	8007414 <USB_EPStartXfer+0x8c>
 800752a:	b2b6      	uxth	r6, r6
 800752c:	3603      	adds	r6, #3
 800752e:	08b6      	lsrs	r6, r6, #2
 8007530:	f43f af70 	beq.w	8007414 <USB_EPStartXfer+0x8c>
 8007534:	68cb      	ldr	r3, [r1, #12]
 8007536:	eb00 3004 	add.w	r0, r0, r4, lsl #12
 800753a:	eb03 0186 	add.w	r1, r3, r6, lsl #2
 800753e:	f500 5080 	add.w	r0, r0, #4096	; 0x1000
 8007542:	f853 2b04 	ldr.w	r2, [r3], #4
 8007546:	6002      	str	r2, [r0, #0]
 8007548:	428b      	cmp	r3, r1
 800754a:	d1fa      	bne.n	8007542 <USB_EPStartXfer+0x1ba>
 800754c:	e762      	b.n	8007414 <USB_EPStartXfer+0x8c>
 800754e:	691d      	ldr	r5, [r3, #16]
 8007550:	f025 45c0 	bic.w	r5, r5, #1610612736	; 0x60000000
 8007554:	611d      	str	r5, [r3, #16]
 8007556:	691d      	ldr	r5, [r3, #16]
 8007558:	2a01      	cmp	r2, #1
 800755a:	f045 5500 	orr.w	r5, r5, #536870912	; 0x20000000
 800755e:	611d      	str	r5, [r3, #16]
 8007560:	d016      	beq.n	8007590 <USB_EPStartXfer+0x208>
 8007562:	f8de 5900 	ldr.w	r5, [lr, #2304]	; 0x900
 8007566:	f045 4504 	orr.w	r5, r5, #2214592512	; 0x84000000
 800756a:	f8ce 5900 	str.w	r5, [lr, #2304]	; 0x900
 800756e:	e7ce      	b.n	800750e <USB_EPStartXfer+0x186>
 8007570:	690a      	ldr	r2, [r1, #16]
 8007572:	b95a      	cbnz	r2, 800758c <USB_EPStartXfer+0x204>
 8007574:	2f01      	cmp	r7, #1
 8007576:	d00e      	beq.n	8007596 <USB_EPStartXfer+0x20e>
 8007578:	681a      	ldr	r2, [r3, #0]
 800757a:	f042 4204 	orr.w	r2, r2, #2214592512	; 0x84000000
 800757e:	601a      	str	r2, [r3, #0]
 8007580:	2000      	movs	r0, #0
 8007582:	e8bd 83f0 	ldmia.w	sp!, {r4, r5, r6, r7, r8, r9, pc}
 8007586:	690a      	ldr	r2, [r1, #16]
 8007588:	2a00      	cmp	r2, #0
 800758a:	d0f5      	beq.n	8007578 <USB_EPStartXfer+0x1f0>
 800758c:	615a      	str	r2, [r3, #20]
 800758e:	e7f1      	b.n	8007574 <USB_EPStartXfer+0x1ec>
 8007590:	690a      	ldr	r2, [r1, #16]
 8007592:	2a00      	cmp	r2, #0
 8007594:	d1fa      	bne.n	800758c <USB_EPStartXfer+0x204>
 8007596:	f8d0 2808 	ldr.w	r2, [r0, #2056]	; 0x808
 800759a:	f412 7f80 	tst.w	r2, #256	; 0x100
 800759e:	681a      	ldr	r2, [r3, #0]
 80075a0:	bf0c      	ite	eq
 80075a2:	f042 5200 	orreq.w	r2, r2, #536870912	; 0x20000000
 80075a6:	f042 5280 	orrne.w	r2, r2, #268435456	; 0x10000000
 80075aa:	601a      	str	r2, [r3, #0]
 80075ac:	e7e4      	b.n	8007578 <USB_EPStartXfer+0x1f0>
 80075ae:	bf00      	nop
 80075b0:	1ff80000 	.word	0x1ff80000

080075b4 <USB_EP0StartXfer>:
 80075b4:	784b      	ldrb	r3, [r1, #1]
 80075b6:	2b01      	cmp	r3, #1
 80075b8:	b4f0      	push	{r4, r5, r6, r7}
 80075ba:	780c      	ldrb	r4, [r1, #0]
 80075bc:	d02d      	beq.n	800761a <USB_EP0StartXfer+0x66>
 80075be:	eb00 1044 	add.w	r0, r0, r4, lsl #5
 80075c2:	694d      	ldr	r5, [r1, #20]
 80075c4:	f8d0 4b10 	ldr.w	r4, [r0, #2832]	; 0xb10
 80075c8:	0ce4      	lsrs	r4, r4, #19
 80075ca:	04e4      	lsls	r4, r4, #19
 80075cc:	f8c0 4b10 	str.w	r4, [r0, #2832]	; 0xb10
 80075d0:	f8d0 4b10 	ldr.w	r4, [r0, #2832]	; 0xb10
 80075d4:	f024 54ff 	bic.w	r4, r4, #534773760	; 0x1fe00000
 80075d8:	f424 14c0 	bic.w	r4, r4, #1572864	; 0x180000
 80075dc:	f500 6330 	add.w	r3, r0, #2816	; 0xb00
 80075e0:	611c      	str	r4, [r3, #16]
 80075e2:	688c      	ldr	r4, [r1, #8]
 80075e4:	b105      	cbz	r5, 80075e8 <USB_EP0StartXfer+0x34>
 80075e6:	614c      	str	r4, [r1, #20]
 80075e8:	691d      	ldr	r5, [r3, #16]
 80075ea:	f445 2500 	orr.w	r5, r5, #524288	; 0x80000
 80075ee:	611d      	str	r5, [r3, #16]
 80075f0:	691d      	ldr	r5, [r3, #16]
 80075f2:	f3c4 0412 	ubfx	r4, r4, #0, #19
 80075f6:	432c      	orrs	r4, r5
 80075f8:	2a01      	cmp	r2, #1
 80075fa:	611c      	str	r4, [r3, #16]
 80075fc:	d008      	beq.n	8007610 <USB_EP0StartXfer+0x5c>
 80075fe:	f8d0 3b00 	ldr.w	r3, [r0, #2816]	; 0xb00
 8007602:	f043 4304 	orr.w	r3, r3, #2214592512	; 0x84000000
 8007606:	f8c0 3b00 	str.w	r3, [r0, #2816]	; 0xb00
 800760a:	2000      	movs	r0, #0
 800760c:	bcf0      	pop	{r4, r5, r6, r7}
 800760e:	4770      	bx	lr
 8007610:	68ca      	ldr	r2, [r1, #12]
 8007612:	2a00      	cmp	r2, #0
 8007614:	d0f3      	beq.n	80075fe <USB_EP0StartXfer+0x4a>
 8007616:	615a      	str	r2, [r3, #20]
 8007618:	e7f1      	b.n	80075fe <USB_EP0StartXfer+0x4a>
 800761a:	694d      	ldr	r5, [r1, #20]
 800761c:	b39d      	cbz	r5, 8007686 <USB_EP0StartXfer+0xd2>
 800761e:	eb00 1c44 	add.w	ip, r0, r4, lsl #5
 8007622:	688f      	ldr	r7, [r1, #8]
 8007624:	f8dc 6910 	ldr.w	r6, [ip, #2320]	; 0x910
 8007628:	0cf6      	lsrs	r6, r6, #19
 800762a:	04f6      	lsls	r6, r6, #19
 800762c:	f8cc 6910 	str.w	r6, [ip, #2320]	; 0x910
 8007630:	f8dc 6910 	ldr.w	r6, [ip, #2320]	; 0x910
 8007634:	f026 56ff 	bic.w	r6, r6, #534773760	; 0x1fe00000
 8007638:	f426 16c0 	bic.w	r6, r6, #1572864	; 0x180000
 800763c:	42bd      	cmp	r5, r7
 800763e:	f50c 6310 	add.w	r3, ip, #2304	; 0x900
 8007642:	611e      	str	r6, [r3, #16]
 8007644:	d94d      	bls.n	80076e2 <USB_EP0StartXfer+0x12e>
 8007646:	691d      	ldr	r5, [r3, #16]
 8007648:	614f      	str	r7, [r1, #20]
 800764a:	f445 2500 	orr.w	r5, r5, #524288	; 0x80000
 800764e:	611d      	str	r5, [r3, #16]
 8007650:	691e      	ldr	r6, [r3, #16]
 8007652:	f3c7 0512 	ubfx	r5, r7, #0, #19
 8007656:	4335      	orrs	r5, r6
 8007658:	2a01      	cmp	r2, #1
 800765a:	611d      	str	r5, [r3, #16]
 800765c:	d037      	beq.n	80076ce <USB_EP0StartXfer+0x11a>
 800765e:	f8dc 3900 	ldr.w	r3, [ip, #2304]	; 0x900
 8007662:	f043 4304 	orr.w	r3, r3, #2214592512	; 0x84000000
 8007666:	f8cc 3900 	str.w	r3, [ip, #2304]	; 0x900
 800766a:	2f00      	cmp	r7, #0
 800766c:	d0cd      	beq.n	800760a <USB_EP0StartXfer+0x56>
 800766e:	f8d0 3834 	ldr.w	r3, [r0, #2100]	; 0x834
 8007672:	f004 020f 	and.w	r2, r4, #15
 8007676:	2401      	movs	r4, #1
 8007678:	4094      	lsls	r4, r2
 800767a:	431c      	orrs	r4, r3
 800767c:	f8c0 4834 	str.w	r4, [r0, #2100]	; 0x834
 8007680:	2000      	movs	r0, #0
 8007682:	bcf0      	pop	{r4, r5, r6, r7}
 8007684:	4770      	bx	lr
 8007686:	eb00 1044 	add.w	r0, r0, r4, lsl #5
 800768a:	2a01      	cmp	r2, #1
 800768c:	f8d0 5910 	ldr.w	r5, [r0, #2320]	; 0x910
 8007690:	f025 55ff 	bic.w	r5, r5, #534773760	; 0x1fe00000
 8007694:	f425 15c0 	bic.w	r5, r5, #1572864	; 0x180000
 8007698:	f8c0 5910 	str.w	r5, [r0, #2320]	; 0x910
 800769c:	f8d0 5910 	ldr.w	r5, [r0, #2320]	; 0x910
 80076a0:	f445 2500 	orr.w	r5, r5, #524288	; 0x80000
 80076a4:	f8c0 5910 	str.w	r5, [r0, #2320]	; 0x910
 80076a8:	f8d0 5910 	ldr.w	r5, [r0, #2320]	; 0x910
 80076ac:	ea4f 45d5 	mov.w	r5, r5, lsr #19
 80076b0:	ea4f 45c5 	mov.w	r5, r5, lsl #19
 80076b4:	f500 6310 	add.w	r3, r0, #2304	; 0x900
 80076b8:	611d      	str	r5, [r3, #16]
 80076ba:	d008      	beq.n	80076ce <USB_EP0StartXfer+0x11a>
 80076bc:	f8d0 3900 	ldr.w	r3, [r0, #2304]	; 0x900
 80076c0:	f043 4304 	orr.w	r3, r3, #2214592512	; 0x84000000
 80076c4:	f8c0 3900 	str.w	r3, [r0, #2304]	; 0x900
 80076c8:	bcf0      	pop	{r4, r5, r6, r7}
 80076ca:	2000      	movs	r0, #0
 80076cc:	4770      	bx	lr
 80076ce:	690a      	ldr	r2, [r1, #16]
 80076d0:	b102      	cbz	r2, 80076d4 <USB_EP0StartXfer+0x120>
 80076d2:	615a      	str	r2, [r3, #20]
 80076d4:	681a      	ldr	r2, [r3, #0]
 80076d6:	f042 4204 	orr.w	r2, r2, #2214592512	; 0x84000000
 80076da:	2000      	movs	r0, #0
 80076dc:	bcf0      	pop	{r4, r5, r6, r7}
 80076de:	601a      	str	r2, [r3, #0]
 80076e0:	4770      	bx	lr
 80076e2:	691e      	ldr	r6, [r3, #16]
 80076e4:	f446 2600 	orr.w	r6, r6, #524288	; 0x80000
 80076e8:	611e      	str	r6, [r3, #16]
 80076ea:	691e      	ldr	r6, [r3, #16]
 80076ec:	f3c5 0512 	ubfx	r5, r5, #0, #19
 80076f0:	4335      	orrs	r5, r6
 80076f2:	2a01      	cmp	r2, #1
 80076f4:	611d      	str	r5, [r3, #16]
 80076f6:	d0ea      	beq.n	80076ce <USB_EP0StartXfer+0x11a>
 80076f8:	f8dc 3900 	ldr.w	r3, [ip, #2304]	; 0x900
 80076fc:	f043 4304 	orr.w	r3, r3, #2214592512	; 0x84000000
 8007700:	f8cc 3900 	str.w	r3, [ip, #2304]	; 0x900
 8007704:	e7b3      	b.n	800766e <USB_EP0StartXfer+0xba>
 8007706:	bf00      	nop

08007708 <USB_WritePacket>:
 8007708:	b410      	push	{r4}
 800770a:	f89d 4004 	ldrb.w	r4, [sp, #4]
 800770e:	b964      	cbnz	r4, 800772a <USB_WritePacket+0x22>
 8007710:	3303      	adds	r3, #3
 8007712:	089b      	lsrs	r3, r3, #2
 8007714:	d009      	beq.n	800772a <USB_WritePacket+0x22>
 8007716:	3201      	adds	r2, #1
 8007718:	eb00 3002 	add.w	r0, r0, r2, lsl #12
 800771c:	eb01 0383 	add.w	r3, r1, r3, lsl #2
 8007720:	f851 2b04 	ldr.w	r2, [r1], #4
 8007724:	6002      	str	r2, [r0, #0]
 8007726:	428b      	cmp	r3, r1
 8007728:	d1fa      	bne.n	8007720 <USB_WritePacket+0x18>
 800772a:	2000      	movs	r0, #0
 800772c:	f85d 4b04 	ldr.w	r4, [sp], #4
 8007730:	4770      	bx	lr
 8007732:	bf00      	nop

08007734 <USB_ReadPacket>:
 8007734:	b4f0      	push	{r4, r5, r6, r7}
 8007736:	0895      	lsrs	r5, r2, #2
 8007738:	f002 0703 	and.w	r7, r2, #3
 800773c:	d00b      	beq.n	8007756 <USB_ReadPacket+0x22>
 800773e:	f500 5680 	add.w	r6, r0, #4096	; 0x1000
 8007742:	460a      	mov	r2, r1
 8007744:	2300      	movs	r3, #0
 8007746:	3301      	adds	r3, #1
 8007748:	6834      	ldr	r4, [r6, #0]
 800774a:	f842 4b04 	str.w	r4, [r2], #4
 800774e:	429d      	cmp	r5, r3
 8007750:	d1f9      	bne.n	8007746 <USB_ReadPacket+0x12>
 8007752:	eb01 0185 	add.w	r1, r1, r5, lsl #2
 8007756:	b187      	cbz	r7, 800777a <USB_ReadPacket+0x46>
 8007758:	f500 5080 	add.w	r0, r0, #4096	; 0x1000
 800775c:	3f01      	subs	r7, #1
 800775e:	6803      	ldr	r3, [r0, #0]
 8007760:	700b      	strb	r3, [r1, #0]
 8007762:	b2bf      	uxth	r7, r7
 8007764:	b13f      	cbz	r7, 8007776 <USB_ReadPacket+0x42>
 8007766:	2f01      	cmp	r7, #1
 8007768:	ea4f 2213 	mov.w	r2, r3, lsr #8
 800776c:	bf18      	it	ne
 800776e:	0c1b      	lsrne	r3, r3, #16
 8007770:	704a      	strb	r2, [r1, #1]
 8007772:	bf18      	it	ne
 8007774:	708b      	strbne	r3, [r1, #2]
 8007776:	3701      	adds	r7, #1
 8007778:	4439      	add	r1, r7
 800777a:	4608      	mov	r0, r1
 800777c:	bcf0      	pop	{r4, r5, r6, r7}
 800777e:	4770      	bx	lr

08007780 <USB_EPSetStall>:
 8007780:	784a      	ldrb	r2, [r1, #1]
 8007782:	780b      	ldrb	r3, [r1, #0]
 8007784:	2a01      	cmp	r2, #1
 8007786:	eb00 1043 	add.w	r0, r0, r3, lsl #5
 800778a:	d00c      	beq.n	80077a6 <USB_EPSetStall+0x26>
 800778c:	f8d0 2b00 	ldr.w	r2, [r0, #2816]	; 0xb00
 8007790:	2a00      	cmp	r2, #0
 8007792:	db00      	blt.n	8007796 <USB_EPSetStall+0x16>
 8007794:	b9d3      	cbnz	r3, 80077cc <USB_EPSetStall+0x4c>
 8007796:	f8d0 3b00 	ldr.w	r3, [r0, #2816]	; 0xb00
 800779a:	f443 1300 	orr.w	r3, r3, #2097152	; 0x200000
 800779e:	f8c0 3b00 	str.w	r3, [r0, #2816]	; 0xb00
 80077a2:	2000      	movs	r0, #0
 80077a4:	4770      	bx	lr
 80077a6:	f8d0 2900 	ldr.w	r2, [r0, #2304]	; 0x900
 80077aa:	2a00      	cmp	r2, #0
 80077ac:	db06      	blt.n	80077bc <USB_EPSetStall+0x3c>
 80077ae:	b12b      	cbz	r3, 80077bc <USB_EPSetStall+0x3c>
 80077b0:	f8d0 3900 	ldr.w	r3, [r0, #2304]	; 0x900
 80077b4:	f023 4380 	bic.w	r3, r3, #1073741824	; 0x40000000
 80077b8:	f8c0 3900 	str.w	r3, [r0, #2304]	; 0x900
 80077bc:	f8d0 3900 	ldr.w	r3, [r0, #2304]	; 0x900
 80077c0:	f443 1300 	orr.w	r3, r3, #2097152	; 0x200000
 80077c4:	f8c0 3900 	str.w	r3, [r0, #2304]	; 0x900
 80077c8:	2000      	movs	r0, #0
 80077ca:	4770      	bx	lr
 80077cc:	f8d0 3b00 	ldr.w	r3, [r0, #2816]	; 0xb00
 80077d0:	f023 4380 	bic.w	r3, r3, #1073741824	; 0x40000000
 80077d4:	f8c0 3b00 	str.w	r3, [r0, #2816]	; 0xb00
 80077d8:	e7dd      	b.n	8007796 <USB_EPSetStall+0x16>
 80077da:	bf00      	nop

080077dc <USB_EPClearStall>:
 80077dc:	784a      	ldrb	r2, [r1, #1]
 80077de:	780b      	ldrb	r3, [r1, #0]
 80077e0:	2a01      	cmp	r2, #1
 80077e2:	eb00 1043 	add.w	r0, r0, r3, lsl #5
 80077e6:	d013      	beq.n	8007810 <USB_EPClearStall+0x34>
 80077e8:	f8d0 3b00 	ldr.w	r3, [r0, #2816]	; 0xb00
 80077ec:	f423 1300 	bic.w	r3, r3, #2097152	; 0x200000
 80077f0:	f8c0 3b00 	str.w	r3, [r0, #2816]	; 0xb00
 80077f4:	78cb      	ldrb	r3, [r1, #3]
 80077f6:	3b02      	subs	r3, #2
 80077f8:	2b01      	cmp	r3, #1
 80077fa:	d901      	bls.n	8007800 <USB_EPClearStall+0x24>
 80077fc:	2000      	movs	r0, #0
 80077fe:	4770      	bx	lr
 8007800:	f8d0 3b00 	ldr.w	r3, [r0, #2816]	; 0xb00
 8007804:	f043 5380 	orr.w	r3, r3, #268435456	; 0x10000000
 8007808:	f8c0 3b00 	str.w	r3, [r0, #2816]	; 0xb00
 800780c:	2000      	movs	r0, #0
 800780e:	4770      	bx	lr
 8007810:	f8d0 3900 	ldr.w	r3, [r0, #2304]	; 0x900
 8007814:	f423 1300 	bic.w	r3, r3, #2097152	; 0x200000
 8007818:	f8c0 3900 	str.w	r3, [r0, #2304]	; 0x900
 800781c:	78cb      	ldrb	r3, [r1, #3]
 800781e:	3b02      	subs	r3, #2
 8007820:	2b01      	cmp	r3, #1
 8007822:	d8eb      	bhi.n	80077fc <USB_EPClearStall+0x20>
 8007824:	f8d0 3900 	ldr.w	r3, [r0, #2304]	; 0x900
 8007828:	f043 5380 	orr.w	r3, r3, #268435456	; 0x10000000
 800782c:	f8c0 3900 	str.w	r3, [r0, #2304]	; 0x900
 8007830:	2000      	movs	r0, #0
 8007832:	4770      	bx	lr

08007834 <USB_SetDevAddress>:
 8007834:	f8d0 3800 	ldr.w	r3, [r0, #2048]	; 0x800
 8007838:	f423 63fe 	bic.w	r3, r3, #2032	; 0x7f0
 800783c:	f8c0 3800 	str.w	r3, [r0, #2048]	; 0x800
 8007840:	f8d0 3800 	ldr.w	r3, [r0, #2048]	; 0x800
 8007844:	0109      	lsls	r1, r1, #4
 8007846:	f401 61fe 	and.w	r1, r1, #2032	; 0x7f0
 800784a:	4319      	orrs	r1, r3
 800784c:	f8c0 1800 	str.w	r1, [r0, #2048]	; 0x800
 8007850:	2000      	movs	r0, #0
 8007852:	4770      	bx	lr

08007854 <USB_DevConnect>:
 8007854:	f8d0 3e00 	ldr.w	r3, [r0, #3584]	; 0xe00
 8007858:	f023 0303 	bic.w	r3, r3, #3
 800785c:	f8c0 3e00 	str.w	r3, [r0, #3584]	; 0xe00
 8007860:	f8d0 3804 	ldr.w	r3, [r0, #2052]	; 0x804
 8007864:	f023 0302 	bic.w	r3, r3, #2
 8007868:	f8c0 3804 	str.w	r3, [r0, #2052]	; 0x804
 800786c:	2000      	movs	r0, #0
 800786e:	4770      	bx	lr

08007870 <USB_DevDisconnect>:
 8007870:	f8d0 3e00 	ldr.w	r3, [r0, #3584]	; 0xe00
 8007874:	f023 0303 	bic.w	r3, r3, #3
 8007878:	f8c0 3e00 	str.w	r3, [r0, #3584]	; 0xe00
 800787c:	f8d0 3804 	ldr.w	r3, [r0, #2052]	; 0x804
 8007880:	f043 0302 	orr.w	r3, r3, #2
 8007884:	f8c0 3804 	str.w	r3, [r0, #2052]	; 0x804
 8007888:	2000      	movs	r0, #0
 800788a:	4770      	bx	lr

0800788c <USB_ReadInterrupts>:
 800788c:	6942      	ldr	r2, [r0, #20]
 800788e:	6980      	ldr	r0, [r0, #24]
 8007890:	4010      	ands	r0, r2
 8007892:	4770      	bx	lr

08007894 <USB_ReadDevAllOutEpInterrupt>:
 8007894:	f8d0 3818 	ldr.w	r3, [r0, #2072]	; 0x818
 8007898:	f500 6000 	add.w	r0, r0, #2048	; 0x800
 800789c:	69c0      	ldr	r0, [r0, #28]
 800789e:	4018      	ands	r0, r3
 80078a0:	0c00      	lsrs	r0, r0, #16
 80078a2:	4770      	bx	lr

080078a4 <USB_ReadDevAllInEpInterrupt>:
 80078a4:	f8d0 3818 	ldr.w	r3, [r0, #2072]	; 0x818
 80078a8:	f500 6000 	add.w	r0, r0, #2048	; 0x800
 80078ac:	69c0      	ldr	r0, [r0, #28]
 80078ae:	4018      	ands	r0, r3
 80078b0:	b280      	uxth	r0, r0
 80078b2:	4770      	bx	lr

080078b4 <USB_ReadDevOutEPInterrupt>:
 80078b4:	eb00 1141 	add.w	r1, r0, r1, lsl #5
 80078b8:	f500 6000 	add.w	r0, r0, #2048	; 0x800
 80078bc:	f8d1 2b08 	ldr.w	r2, [r1, #2824]	; 0xb08
 80078c0:	6940      	ldr	r0, [r0, #20]
 80078c2:	4010      	ands	r0, r2
 80078c4:	4770      	bx	lr
 80078c6:	bf00      	nop

080078c8 <USB_ReadDevInEPInterrupt>:
 80078c8:	b410      	push	{r4}
 80078ca:	f8d0 4810 	ldr.w	r4, [r0, #2064]	; 0x810
 80078ce:	f8d0 3834 	ldr.w	r3, [r0, #2100]	; 0x834
 80078d2:	eb00 1041 	add.w	r0, r0, r1, lsl #5
 80078d6:	f001 010f 	and.w	r1, r1, #15
 80078da:	f500 6010 	add.w	r0, r0, #2304	; 0x900
 80078de:	40cb      	lsrs	r3, r1
 80078e0:	01db      	lsls	r3, r3, #7
 80078e2:	6880      	ldr	r0, [r0, #8]
 80078e4:	b2db      	uxtb	r3, r3
 80078e6:	4323      	orrs	r3, r4
 80078e8:	4018      	ands	r0, r3
 80078ea:	f85d 4b04 	ldr.w	r4, [sp], #4
 80078ee:	4770      	bx	lr

080078f0 <USB_GetMode>:
 80078f0:	6940      	ldr	r0, [r0, #20]
 80078f2:	f000 0001 	and.w	r0, r0, #1
 80078f6:	4770      	bx	lr

080078f8 <USB_ActivateSetup>:
 80078f8:	f8d0 3900 	ldr.w	r3, [r0, #2304]	; 0x900
 80078fc:	f423 63ff 	bic.w	r3, r3, #2040	; 0x7f8
 8007900:	f023 0307 	bic.w	r3, r3, #7
 8007904:	f8c0 3900 	str.w	r3, [r0, #2304]	; 0x900
 8007908:	f8d0 3804 	ldr.w	r3, [r0, #2052]	; 0x804
 800790c:	f443 7380 	orr.w	r3, r3, #256	; 0x100
 8007910:	f8c0 3804 	str.w	r3, [r0, #2052]	; 0x804
 8007914:	2000      	movs	r0, #0
 8007916:	4770      	bx	lr

08007918 <USB_EP0_OutStart>:
 8007918:	b410      	push	{r4}
 800791a:	4b14      	ldr	r3, [pc, #80]	; (800796c <USB_EP0_OutStart+0x54>)
 800791c:	6c04      	ldr	r4, [r0, #64]	; 0x40
 800791e:	429c      	cmp	r4, r3
 8007920:	d81a      	bhi.n	8007958 <USB_EP0_OutStart+0x40>
 8007922:	f500 6030 	add.w	r0, r0, #2816	; 0xb00
 8007926:	2300      	movs	r3, #0
 8007928:	6103      	str	r3, [r0, #16]
 800792a:	6903      	ldr	r3, [r0, #16]
 800792c:	f443 2300 	orr.w	r3, r3, #524288	; 0x80000
 8007930:	6103      	str	r3, [r0, #16]
 8007932:	6903      	ldr	r3, [r0, #16]
 8007934:	f043 0318 	orr.w	r3, r3, #24
 8007938:	6103      	str	r3, [r0, #16]
 800793a:	6903      	ldr	r3, [r0, #16]
 800793c:	2901      	cmp	r1, #1
 800793e:	f043 43c0 	orr.w	r3, r3, #1610612736	; 0x60000000
 8007942:	6103      	str	r3, [r0, #16]
 8007944:	d104      	bne.n	8007950 <USB_EP0_OutStart+0x38>
 8007946:	6142      	str	r2, [r0, #20]
 8007948:	6803      	ldr	r3, [r0, #0]
 800794a:	f043 2380 	orr.w	r3, r3, #2147516416	; 0x80008000
 800794e:	6003      	str	r3, [r0, #0]
 8007950:	2000      	movs	r0, #0
 8007952:	f85d 4b04 	ldr.w	r4, [sp], #4
 8007956:	4770      	bx	lr
 8007958:	f8d0 3b00 	ldr.w	r3, [r0, #2816]	; 0xb00
 800795c:	2b00      	cmp	r3, #0
 800795e:	f500 6030 	add.w	r0, r0, #2816	; 0xb00
 8007962:	dae0      	bge.n	8007926 <USB_EP0_OutStart+0xe>
 8007964:	2000      	movs	r0, #0
 8007966:	f85d 4b04 	ldr.w	r4, [sp], #4
 800796a:	4770      	bx	lr
 800796c:	4f54300a 	.word	0x4f54300a

08007970 <USBD_AUDIO_GetCfgDesc>:
 8007970:	236d      	movs	r3, #109	; 0x6d
 8007972:	8003      	strh	r3, [r0, #0]
 8007974:	4800      	ldr	r0, [pc, #0]	; (8007978 <USBD_AUDIO_GetCfgDesc+0x8>)
 8007976:	4770      	bx	lr
 8007978:	20000060 	.word	0x20000060

0800797c <USBD_AUDIO_DataIn>:
 800797c:	2000      	movs	r0, #0
 800797e:	4770      	bx	lr

08007980 <USBD_AUDIO_EP0_RxReady>:
 8007980:	b538      	push	{r3, r4, r5, lr}
 8007982:	f8d0 42bc 	ldr.w	r4, [r0, #700]	; 0x2bc
 8007986:	b1c4      	cbz	r4, 80079ba <USBD_AUDIO_EP0_RxReady+0x3a>
 8007988:	f643 450a 	movw	r5, #15370	; 0x3c0a
 800798c:	5d63      	ldrb	r3, [r4, r5]
 800798e:	2b01      	cmp	r3, #1
 8007990:	d001      	beq.n	8007996 <USBD_AUDIO_EP0_RxReady+0x16>
 8007992:	2000      	movs	r0, #0
 8007994:	bd38      	pop	{r3, r4, r5, pc}
 8007996:	f643 434c 	movw	r3, #15436	; 0x3c4c
 800799a:	5ce3      	ldrb	r3, [r4, r3]
 800799c:	2b02      	cmp	r3, #2
 800799e:	d1f8      	bne.n	8007992 <USBD_AUDIO_EP0_RxReady+0x12>
 80079a0:	f8d0 32c0 	ldr.w	r3, [r0, #704]	; 0x2c0
 80079a4:	f643 420b 	movw	r2, #15371	; 0x3c0b
 80079a8:	691b      	ldr	r3, [r3, #16]
 80079aa:	5ca0      	ldrb	r0, [r4, r2]
 80079ac:	4798      	blx	r3
 80079ae:	f643 434b 	movw	r3, #15435	; 0x3c4b
 80079b2:	2000      	movs	r0, #0
 80079b4:	54e0      	strb	r0, [r4, r3]
 80079b6:	5560      	strb	r0, [r4, r5]
 80079b8:	bd38      	pop	{r3, r4, r5, pc}
 80079ba:	2003      	movs	r0, #3
 80079bc:	bd38      	pop	{r3, r4, r5, pc}
 80079be:	bf00      	nop

080079c0 <USBD_AUDIO_EP0_TxReady>:
 80079c0:	2000      	movs	r0, #0
 80079c2:	4770      	bx	lr

080079c4 <USBD_AUDIO_GetDeviceQualifierDesc>:
 80079c4:	230a      	movs	r3, #10
 80079c6:	8003      	strh	r3, [r0, #0]
 80079c8:	4800      	ldr	r0, [pc, #0]	; (80079cc <USBD_AUDIO_GetDeviceQualifierDesc+0x8>)
 80079ca:	4770      	bx	lr
 80079cc:	200000d0 	.word	0x200000d0

080079d0 <USBD_AUDIO_DataOut>:
 80079d0:	e92d 43f8 	stmdb	sp!, {r3, r4, r5, r6, r7, r8, r9, lr}
 80079d4:	f8d0 62bc 	ldr.w	r6, [r0, #700]	; 0x2bc
 80079d8:	b37e      	cbz	r6, 8007a3a <USBD_AUDIO_DataOut+0x6a>
 80079da:	2901      	cmp	r1, #1
 80079dc:	460d      	mov	r5, r1
 80079de:	d002      	beq.n	80079e6 <USBD_AUDIO_DataOut+0x16>
 80079e0:	2000      	movs	r0, #0
 80079e2:	e8bd 83f8 	ldmia.w	sp!, {r3, r4, r5, r6, r7, r8, r9, pc}
 80079e6:	f643 4808 	movw	r8, #15368	; 0x3c08
 80079ea:	4604      	mov	r4, r0
 80079ec:	f001 f846 	bl	8008a7c <USBD_LL_GetRxDataSize>
 80079f0:	f836 1008 	ldrh.w	r1, [r6, r8]
 80079f4:	f8d4 32c0 	ldr.w	r3, [r4, #704]	; 0x2c0
 80079f8:	4607      	mov	r7, r0
 80079fa:	1d08      	adds	r0, r1, #4
 80079fc:	462a      	mov	r2, r5
 80079fe:	695b      	ldr	r3, [r3, #20]
 8007a00:	4430      	add	r0, r6
 8007a02:	b2b9      	uxth	r1, r7
 8007a04:	4798      	blx	r3
 8007a06:	f836 2008 	ldrh.w	r2, [r6, r8]
 8007a0a:	443a      	add	r2, r7
 8007a0c:	b292      	uxth	r2, r2
 8007a0e:	f5b2 5f70 	cmp.w	r2, #15360	; 0x3c00
 8007a12:	d015      	beq.n	8007a40 <USBD_AUDIO_DataOut+0x70>
 8007a14:	f826 2008 	strh.w	r2, [r6, r8]
 8007a18:	f643 4305 	movw	r3, #15365	; 0x3c05
 8007a1c:	5cf1      	ldrb	r1, [r6, r3]
 8007a1e:	b911      	cbnz	r1, 8007a26 <USBD_AUDIO_DataOut+0x56>
 8007a20:	f5b2 5ff0 	cmp.w	r2, #7680	; 0x1e00
 8007a24:	d017      	beq.n	8007a56 <USBD_AUDIO_DataOut+0x86>
 8007a26:	3204      	adds	r2, #4
 8007a28:	4432      	add	r2, r6
 8007a2a:	4620      	mov	r0, r4
 8007a2c:	23c0      	movs	r3, #192	; 0xc0
 8007a2e:	2101      	movs	r1, #1
 8007a30:	f001 f816 	bl	8008a60 <USBD_LL_PrepareReceive>
 8007a34:	2000      	movs	r0, #0
 8007a36:	e8bd 83f8 	ldmia.w	sp!, {r3, r4, r5, r6, r7, r8, r9, pc}
 8007a3a:	2003      	movs	r0, #3
 8007a3c:	e8bd 83f8 	ldmia.w	sp!, {r3, r4, r5, r6, r7, r8, r9, pc}
 8007a40:	f643 4704 	movw	r7, #15364	; 0x3c04
 8007a44:	f04f 0900 	mov.w	r9, #0
 8007a48:	5df3      	ldrb	r3, [r6, r7]
 8007a4a:	f826 9008 	strh.w	r9, [r6, r8]
 8007a4e:	2b03      	cmp	r3, #3
 8007a50:	d006      	beq.n	8007a60 <USBD_AUDIO_DataOut+0x90>
 8007a52:	2204      	movs	r2, #4
 8007a54:	e7e8      	b.n	8007a28 <USBD_AUDIO_DataOut+0x58>
 8007a56:	2201      	movs	r2, #1
 8007a58:	54f2      	strb	r2, [r6, r3]
 8007a5a:	f641 6204 	movw	r2, #7684	; 0x1e04
 8007a5e:	e7e3      	b.n	8007a28 <USBD_AUDIO_DataOut+0x58>
 8007a60:	f8d4 32c0 	ldr.w	r3, [r4, #704]	; 0x2c0
 8007a64:	462a      	mov	r2, r5
 8007a66:	689b      	ldr	r3, [r3, #8]
 8007a68:	f44f 51f0 	mov.w	r1, #7680	; 0x1e00
 8007a6c:	1d30      	adds	r0, r6, #4
 8007a6e:	4798      	blx	r3
 8007a70:	f806 9007 	strb.w	r9, [r6, r7]
 8007a74:	f836 2008 	ldrh.w	r2, [r6, r8]
 8007a78:	e7ce      	b.n	8007a18 <USBD_AUDIO_DataOut+0x48>
 8007a7a:	bf00      	nop

08007a7c <USBD_AUDIO_DeInit>:
 8007a7c:	b538      	push	{r3, r4, r5, lr}
 8007a7e:	4604      	mov	r4, r0
 8007a80:	2101      	movs	r1, #1
 8007a82:	f000 ff93 	bl	80089ac <USBD_LL_CloseEP>
 8007a86:	f8d4 32bc 	ldr.w	r3, [r4, #700]	; 0x2bc
 8007a8a:	2500      	movs	r5, #0
 8007a8c:	f8c4 5178 	str.w	r5, [r4, #376]	; 0x178
 8007a90:	b153      	cbz	r3, 8007aa8 <USBD_AUDIO_DeInit+0x2c>
 8007a92:	f8d4 32c0 	ldr.w	r3, [r4, #704]	; 0x2c0
 8007a96:	4628      	mov	r0, r5
 8007a98:	685b      	ldr	r3, [r3, #4]
 8007a9a:	4798      	blx	r3
 8007a9c:	f8d4 02bc 	ldr.w	r0, [r4, #700]	; 0x2bc
 8007aa0:	f000 fff4 	bl	8008a8c <USBD_static_free>
 8007aa4:	f8c4 52bc 	str.w	r5, [r4, #700]	; 0x2bc
 8007aa8:	2000      	movs	r0, #0
 8007aaa:	bd38      	pop	{r3, r4, r5, pc}

08007aac <USBD_AUDIO_Init>:
 8007aac:	e92d 41f0 	stmdb	sp!, {r4, r5, r6, r7, r8, lr}
 8007ab0:	4680      	mov	r8, r0
 8007ab2:	f643 4050 	movw	r0, #15440	; 0x3c50
 8007ab6:	f000 ffe5 	bl	8008a84 <USBD_static_malloc>
 8007aba:	4604      	mov	r4, r0
 8007abc:	b350      	cbz	r0, 8007b14 <USBD_AUDIO_Init+0x68>
 8007abe:	2601      	movs	r6, #1
 8007ac0:	f8c8 02bc 	str.w	r0, [r8, #700]	; 0x2bc
 8007ac4:	4632      	mov	r2, r6
 8007ac6:	4631      	mov	r1, r6
 8007ac8:	23c0      	movs	r3, #192	; 0xc0
 8007aca:	f8a8 617a 	strh.w	r6, [r8, #378]	; 0x17a
 8007ace:	4640      	mov	r0, r8
 8007ad0:	f000 ff5c 	bl	800898c <USBD_LL_OpenEP>
 8007ad4:	f643 4304 	movw	r3, #15364	; 0x3c04
 8007ad8:	2703      	movs	r7, #3
 8007ada:	f8a8 6178 	strh.w	r6, [r8, #376]	; 0x178
 8007ade:	50e7      	str	r7, [r4, r3]
 8007ae0:	f643 4108 	movw	r1, #15368	; 0x3c08
 8007ae4:	f8d8 32c0 	ldr.w	r3, [r8, #704]	; 0x2c0
 8007ae8:	2200      	movs	r2, #0
 8007aea:	681b      	ldr	r3, [r3, #0]
 8007aec:	5262      	strh	r2, [r4, r1]
 8007aee:	f64b 3080 	movw	r0, #48000	; 0xbb80
 8007af2:	6022      	str	r2, [r4, #0]
 8007af4:	2146      	movs	r1, #70	; 0x46
 8007af6:	4798      	blx	r3
 8007af8:	4605      	mov	r5, r0
 8007afa:	b940      	cbnz	r0, 8007b0e <USBD_AUDIO_Init+0x62>
 8007afc:	1d22      	adds	r2, r4, #4
 8007afe:	4631      	mov	r1, r6
 8007b00:	4640      	mov	r0, r8
 8007b02:	23c0      	movs	r3, #192	; 0xc0
 8007b04:	f000 ffac 	bl	8008a60 <USBD_LL_PrepareReceive>
 8007b08:	4628      	mov	r0, r5
 8007b0a:	e8bd 81f0 	ldmia.w	sp!, {r4, r5, r6, r7, r8, pc}
 8007b0e:	4638      	mov	r0, r7
 8007b10:	e8bd 81f0 	ldmia.w	sp!, {r4, r5, r6, r7, r8, pc}
 8007b14:	f8c8 02bc 	str.w	r0, [r8, #700]	; 0x2bc
 8007b18:	2002      	movs	r0, #2
 8007b1a:	e8bd 81f0 	ldmia.w	sp!, {r4, r5, r6, r7, r8, pc}
 8007b1e:	bf00      	nop

08007b20 <USBD_AUDIO_Setup>:
 8007b20:	e92d 43f0 	stmdb	sp!, {r4, r5, r6, r7, r8, r9, lr}
 8007b24:	f8d0 62bc 	ldr.w	r6, [r0, #700]	; 0x2bc
 8007b28:	b083      	sub	sp, #12
 8007b2a:	f04f 0900 	mov.w	r9, #0
 8007b2e:	f8ad 9006 	strh.w	r9, [sp, #6]
 8007b32:	2e00      	cmp	r6, #0
 8007b34:	d05e      	beq.n	8007bf4 <USBD_AUDIO_Setup+0xd4>
 8007b36:	780c      	ldrb	r4, [r1, #0]
 8007b38:	f014 0460 	ands.w	r4, r4, #96	; 0x60
 8007b3c:	4607      	mov	r7, r0
 8007b3e:	460d      	mov	r5, r1
 8007b40:	d021      	beq.n	8007b86 <USBD_AUDIO_Setup+0x66>
 8007b42:	2c20      	cmp	r4, #32
 8007b44:	d008      	beq.n	8007b58 <USBD_AUDIO_Setup+0x38>
 8007b46:	4629      	mov	r1, r5
 8007b48:	4638      	mov	r0, r7
 8007b4a:	f000 fc9d 	bl	8008488 <USBD_CtlError>
 8007b4e:	2403      	movs	r4, #3
 8007b50:	4620      	mov	r0, r4
 8007b52:	b003      	add	sp, #12
 8007b54:	e8bd 83f0 	ldmia.w	sp!, {r4, r5, r6, r7, r8, r9, pc}
 8007b58:	f891 8001 	ldrb.w	r8, [r1, #1]
 8007b5c:	f1b8 0f01 	cmp.w	r8, #1
 8007b60:	d030      	beq.n	8007bc4 <USBD_AUDIO_Setup+0xa4>
 8007b62:	f1b8 0f81 	cmp.w	r8, #129	; 0x81
 8007b66:	d1ee      	bne.n	8007b46 <USBD_AUDIO_Setup+0x26>
 8007b68:	f506 5670 	add.w	r6, r6, #15360	; 0x3c00
 8007b6c:	360b      	adds	r6, #11
 8007b6e:	2240      	movs	r2, #64	; 0x40
 8007b70:	4649      	mov	r1, r9
 8007b72:	4630      	mov	r0, r6
 8007b74:	f000 ffc4 	bl	8008b00 <memset>
 8007b78:	88ea      	ldrh	r2, [r5, #6]
 8007b7a:	4631      	mov	r1, r6
 8007b7c:	4638      	mov	r0, r7
 8007b7e:	f000 fcb5 	bl	80084ec <USBD_CtlSendData>
 8007b82:	464c      	mov	r4, r9
 8007b84:	e7e4      	b.n	8007b50 <USBD_AUDIO_Setup+0x30>
 8007b86:	784b      	ldrb	r3, [r1, #1]
 8007b88:	2b0b      	cmp	r3, #11
 8007b8a:	d8dc      	bhi.n	8007b46 <USBD_AUDIO_Setup+0x26>
 8007b8c:	a201      	add	r2, pc, #4	; (adr r2, 8007b94 <USBD_AUDIO_Setup+0x74>)
 8007b8e:	f852 f023 	ldr.w	pc, [r2, r3, lsl #2]
 8007b92:	bf00      	nop
 8007b94:	08007c11 	.word	0x08007c11
 8007b98:	08007b51 	.word	0x08007b51
 8007b9c:	08007b47 	.word	0x08007b47
 8007ba0:	08007b47 	.word	0x08007b47
 8007ba4:	08007b47 	.word	0x08007b47
 8007ba8:	08007b47 	.word	0x08007b47
 8007bac:	08007c27 	.word	0x08007c27
 8007bb0:	08007b47 	.word	0x08007b47
 8007bb4:	08007b47 	.word	0x08007b47
 8007bb8:	08007b47 	.word	0x08007b47
 8007bbc:	08007c3f 	.word	0x08007c3f
 8007bc0:	08007bff 	.word	0x08007bff
 8007bc4:	88cc      	ldrh	r4, [r1, #6]
 8007bc6:	2c00      	cmp	r4, #0
 8007bc8:	d0c2      	beq.n	8007b50 <USBD_AUDIO_Setup+0x30>
 8007bca:	f506 5170 	add.w	r1, r6, #15360	; 0x3c00
 8007bce:	4622      	mov	r2, r4
 8007bd0:	310b      	adds	r1, #11
 8007bd2:	f000 fca1 	bl	8008518 <USBD_CtlPrepareRx>
 8007bd6:	f643 420a 	movw	r2, #15370	; 0x3c0a
 8007bda:	f643 434b 	movw	r3, #15435	; 0x3c4b
 8007bde:	f806 8002 	strb.w	r8, [r6, r2]
 8007be2:	88ea      	ldrh	r2, [r5, #6]
 8007be4:	54f2      	strb	r2, [r6, r3]
 8007be6:	88ab      	ldrh	r3, [r5, #4]
 8007be8:	f643 424c 	movw	r2, #15436	; 0x3c4c
 8007bec:	0a1b      	lsrs	r3, r3, #8
 8007bee:	54b3      	strb	r3, [r6, r2]
 8007bf0:	464c      	mov	r4, r9
 8007bf2:	e7ad      	b.n	8007b50 <USBD_AUDIO_Setup+0x30>
 8007bf4:	2403      	movs	r4, #3
 8007bf6:	4620      	mov	r0, r4
 8007bf8:	b003      	add	sp, #12
 8007bfa:	e8bd 83f0 	ldmia.w	sp!, {r4, r5, r6, r7, r8, r9, pc}
 8007bfe:	f890 329c 	ldrb.w	r3, [r0, #668]	; 0x29c
 8007c02:	2b03      	cmp	r3, #3
 8007c04:	d19f      	bne.n	8007b46 <USBD_AUDIO_Setup+0x26>
 8007c06:	788b      	ldrb	r3, [r1, #2]
 8007c08:	2b01      	cmp	r3, #1
 8007c0a:	d89c      	bhi.n	8007b46 <USBD_AUDIO_Setup+0x26>
 8007c0c:	6033      	str	r3, [r6, #0]
 8007c0e:	e79f      	b.n	8007b50 <USBD_AUDIO_Setup+0x30>
 8007c10:	f890 229c 	ldrb.w	r2, [r0, #668]	; 0x29c
 8007c14:	2a03      	cmp	r2, #3
 8007c16:	d196      	bne.n	8007b46 <USBD_AUDIO_Setup+0x26>
 8007c18:	2202      	movs	r2, #2
 8007c1a:	f10d 0106 	add.w	r1, sp, #6
 8007c1e:	461c      	mov	r4, r3
 8007c20:	f000 fc64 	bl	80084ec <USBD_CtlSendData>
 8007c24:	e794      	b.n	8007b50 <USBD_AUDIO_Setup+0x30>
 8007c26:	884b      	ldrh	r3, [r1, #2]
 8007c28:	0a1b      	lsrs	r3, r3, #8
 8007c2a:	2b21      	cmp	r3, #33	; 0x21
 8007c2c:	d190      	bne.n	8007b50 <USBD_AUDIO_Setup+0x30>
 8007c2e:	88ca      	ldrh	r2, [r1, #6]
 8007c30:	4908      	ldr	r1, [pc, #32]	; (8007c54 <USBD_AUDIO_Setup+0x134>)
 8007c32:	2a09      	cmp	r2, #9
 8007c34:	bf28      	it	cs
 8007c36:	2209      	movcs	r2, #9
 8007c38:	f000 fc58 	bl	80084ec <USBD_CtlSendData>
 8007c3c:	e788      	b.n	8007b50 <USBD_AUDIO_Setup+0x30>
 8007c3e:	f890 329c 	ldrb.w	r3, [r0, #668]	; 0x29c
 8007c42:	2b03      	cmp	r3, #3
 8007c44:	f47f af7f 	bne.w	8007b46 <USBD_AUDIO_Setup+0x26>
 8007c48:	4631      	mov	r1, r6
 8007c4a:	2201      	movs	r2, #1
 8007c4c:	f000 fc4e 	bl	80084ec <USBD_CtlSendData>
 8007c50:	e77e      	b.n	8007b50 <USBD_AUDIO_Setup+0x30>
 8007c52:	bf00      	nop
 8007c54:	20000072 	.word	0x20000072

08007c58 <USBD_AUDIO_SOF>:
 8007c58:	2000      	movs	r0, #0
 8007c5a:	4770      	bx	lr

08007c5c <USBD_AUDIO_IsoINIncomplete>:
 8007c5c:	2000      	movs	r0, #0
 8007c5e:	4770      	bx	lr

08007c60 <USBD_AUDIO_IsoOutIncomplete>:
 8007c60:	2000      	movs	r0, #0
 8007c62:	4770      	bx	lr

08007c64 <USBD_AUDIO_RegisterInterface>:
 8007c64:	b119      	cbz	r1, 8007c6e <USBD_AUDIO_RegisterInterface+0xa>
 8007c66:	f8c0 12c0 	str.w	r1, [r0, #704]	; 0x2c0
 8007c6a:	2000      	movs	r0, #0
 8007c6c:	4770      	bx	lr
 8007c6e:	2003      	movs	r0, #3
 8007c70:	4770      	bx	lr
 8007c72:	bf00      	nop

08007c74 <USBD_Init>:
 8007c74:	b178      	cbz	r0, 8007c96 <USBD_Init+0x22>
 8007c76:	2300      	movs	r3, #0
 8007c78:	f8c0 32b8 	str.w	r3, [r0, #696]	; 0x2b8
 8007c7c:	f8c0 32c0 	str.w	r3, [r0, #704]	; 0x2c0
 8007c80:	f8c0 32cc 	str.w	r3, [r0, #716]	; 0x2cc
 8007c84:	b109      	cbz	r1, 8007c8a <USBD_Init+0x16>
 8007c86:	f8c0 12b4 	str.w	r1, [r0, #692]	; 0x2b4
 8007c8a:	2301      	movs	r3, #1
 8007c8c:	7002      	strb	r2, [r0, #0]
 8007c8e:	f880 329c 	strb.w	r3, [r0, #668]	; 0x29c
 8007c92:	f000 be3b 	b.w	800890c <USBD_LL_Init>
 8007c96:	2003      	movs	r0, #3
 8007c98:	4770      	bx	lr
 8007c9a:	bf00      	nop

08007c9c <USBD_RegisterClass>:
 8007c9c:	b530      	push	{r4, r5, lr}
 8007c9e:	b083      	sub	sp, #12
 8007ca0:	2400      	movs	r4, #0
 8007ca2:	f8ad 4006 	strh.w	r4, [sp, #6]
 8007ca6:	b179      	cbz	r1, 8007cc8 <USBD_RegisterClass+0x2c>
 8007ca8:	6acb      	ldr	r3, [r1, #44]	; 0x2c
 8007caa:	f8c0 12b8 	str.w	r1, [r0, #696]	; 0x2b8
 8007cae:	4605      	mov	r5, r0
 8007cb0:	b13b      	cbz	r3, 8007cc2 <USBD_RegisterClass+0x26>
 8007cb2:	f10d 0006 	add.w	r0, sp, #6
 8007cb6:	4798      	blx	r3
 8007cb8:	f8c5 02cc 	str.w	r0, [r5, #716]	; 0x2cc
 8007cbc:	4620      	mov	r0, r4
 8007cbe:	b003      	add	sp, #12
 8007cc0:	bd30      	pop	{r4, r5, pc}
 8007cc2:	4618      	mov	r0, r3
 8007cc4:	b003      	add	sp, #12
 8007cc6:	bd30      	pop	{r4, r5, pc}
 8007cc8:	2003      	movs	r0, #3
 8007cca:	b003      	add	sp, #12
 8007ccc:	bd30      	pop	{r4, r5, pc}
 8007cce:	bf00      	nop

08007cd0 <USBD_Start>:
 8007cd0:	f000 be4e 	b.w	8008970 <USBD_LL_Start>

08007cd4 <USBD_SetClassConfig>:
 8007cd4:	f8d0 32b8 	ldr.w	r3, [r0, #696]	; 0x2b8
 8007cd8:	b10b      	cbz	r3, 8007cde <USBD_SetClassConfig+0xa>
 8007cda:	681b      	ldr	r3, [r3, #0]
 8007cdc:	4718      	bx	r3
 8007cde:	2003      	movs	r0, #3
 8007ce0:	4770      	bx	lr
 8007ce2:	bf00      	nop

08007ce4 <USBD_ClrClassConfig>:
 8007ce4:	b508      	push	{r3, lr}
 8007ce6:	f8d0 32b8 	ldr.w	r3, [r0, #696]	; 0x2b8
 8007cea:	b10b      	cbz	r3, 8007cf0 <USBD_ClrClassConfig+0xc>
 8007cec:	685b      	ldr	r3, [r3, #4]
 8007cee:	4798      	blx	r3
 8007cf0:	2000      	movs	r0, #0
 8007cf2:	bd08      	pop	{r3, pc}

08007cf4 <USBD_LL_SetupStage>:
 8007cf4:	b538      	push	{r3, r4, r5, lr}
 8007cf6:	4604      	mov	r4, r0
 8007cf8:	f200 25aa 	addw	r5, r0, #682	; 0x2aa
 8007cfc:	4628      	mov	r0, r5
 8007cfe:	f000 fbaf 	bl	8008460 <USBD_ParseSetupRequest>
 8007d02:	f894 12aa 	ldrb.w	r1, [r4, #682]	; 0x2aa
 8007d06:	f8b4 32b0 	ldrh.w	r3, [r4, #688]	; 0x2b0
 8007d0a:	f8c4 3298 	str.w	r3, [r4, #664]	; 0x298
 8007d0e:	2201      	movs	r2, #1
 8007d10:	f001 031f 	and.w	r3, r1, #31
 8007d14:	4293      	cmp	r3, r2
 8007d16:	f8c4 2294 	str.w	r2, [r4, #660]	; 0x294
 8007d1a:	d009      	beq.n	8007d30 <USBD_LL_SetupStage+0x3c>
 8007d1c:	2b02      	cmp	r3, #2
 8007d1e:	d013      	beq.n	8007d48 <USBD_LL_SetupStage+0x54>
 8007d20:	b163      	cbz	r3, 8007d3c <USBD_LL_SetupStage+0x48>
 8007d22:	4620      	mov	r0, r4
 8007d24:	f001 0180 	and.w	r1, r1, #128	; 0x80
 8007d28:	e8bd 4038 	ldmia.w	sp!, {r3, r4, r5, lr}
 8007d2c:	f000 be4c 	b.w	80089c8 <USBD_LL_StallEP>
 8007d30:	4629      	mov	r1, r5
 8007d32:	4620      	mov	r0, r4
 8007d34:	e8bd 4038 	ldmia.w	sp!, {r3, r4, r5, lr}
 8007d38:	f000 bac8 	b.w	80082cc <USBD_StdItfReq>
 8007d3c:	4629      	mov	r1, r5
 8007d3e:	4620      	mov	r0, r4
 8007d40:	e8bd 4038 	ldmia.w	sp!, {r3, r4, r5, lr}
 8007d44:	f000 b924 	b.w	8007f90 <USBD_StdDevReq>
 8007d48:	4629      	mov	r1, r5
 8007d4a:	4620      	mov	r0, r4
 8007d4c:	e8bd 4038 	ldmia.w	sp!, {r3, r4, r5, lr}
 8007d50:	f000 baec 	b.w	800832c <USBD_StdEPReq>

08007d54 <USBD_LL_DataOutStage>:
 8007d54:	b510      	push	{r4, lr}
 8007d56:	4604      	mov	r4, r0
 8007d58:	b931      	cbnz	r1, 8007d68 <USBD_LL_DataOutStage+0x14>
 8007d5a:	4613      	mov	r3, r2
 8007d5c:	f8d0 2294 	ldr.w	r2, [r0, #660]	; 0x294
 8007d60:	2a03      	cmp	r2, #3
 8007d62:	d00d      	beq.n	8007d80 <USBD_LL_DataOutStage+0x2c>
 8007d64:	2000      	movs	r0, #0
 8007d66:	bd10      	pop	{r4, pc}
 8007d68:	f890 329c 	ldrb.w	r3, [r0, #668]	; 0x29c
 8007d6c:	2b03      	cmp	r3, #3
 8007d6e:	d1f9      	bne.n	8007d64 <USBD_LL_DataOutStage+0x10>
 8007d70:	f8d0 32b8 	ldr.w	r3, [r0, #696]	; 0x2b8
 8007d74:	699b      	ldr	r3, [r3, #24]
 8007d76:	2b00      	cmp	r3, #0
 8007d78:	d0f4      	beq.n	8007d64 <USBD_LL_DataOutStage+0x10>
 8007d7a:	e8bd 4010 	ldmia.w	sp!, {r4, lr}
 8007d7e:	4718      	bx	r3
 8007d80:	e9d0 1257 	ldrd	r1, r2, [r0, #348]	; 0x15c
 8007d84:	4291      	cmp	r1, r2
 8007d86:	d808      	bhi.n	8007d9a <USBD_LL_DataOutStage+0x46>
 8007d88:	f890 329c 	ldrb.w	r3, [r0, #668]	; 0x29c
 8007d8c:	2b03      	cmp	r3, #3
 8007d8e:	d00e      	beq.n	8007dae <USBD_LL_DataOutStage+0x5a>
 8007d90:	4620      	mov	r0, r4
 8007d92:	f000 fbd7 	bl	8008544 <USBD_CtlSendStatus>
 8007d96:	2000      	movs	r0, #0
 8007d98:	bd10      	pop	{r4, pc}
 8007d9a:	1a89      	subs	r1, r1, r2
 8007d9c:	428a      	cmp	r2, r1
 8007d9e:	bf28      	it	cs
 8007da0:	460a      	movcs	r2, r1
 8007da2:	f8c0 115c 	str.w	r1, [r0, #348]	; 0x15c
 8007da6:	4619      	mov	r1, r3
 8007da8:	f000 fbc4 	bl	8008534 <USBD_CtlContinueRx>
 8007dac:	e7da      	b.n	8007d64 <USBD_LL_DataOutStage+0x10>
 8007dae:	f8d0 32b8 	ldr.w	r3, [r0, #696]	; 0x2b8
 8007db2:	691b      	ldr	r3, [r3, #16]
 8007db4:	2b00      	cmp	r3, #0
 8007db6:	d0eb      	beq.n	8007d90 <USBD_LL_DataOutStage+0x3c>
 8007db8:	4798      	blx	r3
 8007dba:	e7e9      	b.n	8007d90 <USBD_LL_DataOutStage+0x3c>

08007dbc <USBD_LL_DataInStage>:
 8007dbc:	b570      	push	{r4, r5, r6, lr}
 8007dbe:	4604      	mov	r4, r0
 8007dc0:	b951      	cbnz	r1, 8007dd8 <USBD_LL_DataInStage+0x1c>
 8007dc2:	4613      	mov	r3, r2
 8007dc4:	f8d0 2294 	ldr.w	r2, [r0, #660]	; 0x294
 8007dc8:	2a02      	cmp	r2, #2
 8007dca:	d011      	beq.n	8007df0 <USBD_LL_DataInStage+0x34>
 8007dcc:	f894 32a0 	ldrb.w	r3, [r4, #672]	; 0x2a0
 8007dd0:	2b01      	cmp	r3, #1
 8007dd2:	d022      	beq.n	8007e1a <USBD_LL_DataInStage+0x5e>
 8007dd4:	2000      	movs	r0, #0
 8007dd6:	bd70      	pop	{r4, r5, r6, pc}
 8007dd8:	f890 329c 	ldrb.w	r3, [r0, #668]	; 0x29c
 8007ddc:	2b03      	cmp	r3, #3
 8007dde:	d1f9      	bne.n	8007dd4 <USBD_LL_DataInStage+0x18>
 8007de0:	f8d0 32b8 	ldr.w	r3, [r0, #696]	; 0x2b8
 8007de4:	695b      	ldr	r3, [r3, #20]
 8007de6:	2b00      	cmp	r3, #0
 8007de8:	d0f4      	beq.n	8007dd4 <USBD_LL_DataInStage+0x18>
 8007dea:	e8bd 4070 	ldmia.w	sp!, {r4, r5, r6, lr}
 8007dee:	4718      	bx	r3
 8007df0:	e9d0 2607 	ldrd	r2, r6, [r0, #28]
 8007df4:	42b2      	cmp	r2, r6
 8007df6:	460d      	mov	r5, r1
 8007df8:	d814      	bhi.n	8007e24 <USBD_LL_DataInStage+0x68>
 8007dfa:	d01f      	beq.n	8007e3c <USBD_LL_DataInStage+0x80>
 8007dfc:	f894 329c 	ldrb.w	r3, [r4, #668]	; 0x29c
 8007e00:	2b03      	cmp	r3, #3
 8007e02:	d028      	beq.n	8007e56 <USBD_LL_DataInStage+0x9a>
 8007e04:	2180      	movs	r1, #128	; 0x80
 8007e06:	4620      	mov	r0, r4
 8007e08:	f000 fdde 	bl	80089c8 <USBD_LL_StallEP>
 8007e0c:	4620      	mov	r0, r4
 8007e0e:	f000 fba5 	bl	800855c <USBD_CtlReceiveStatus>
 8007e12:	f894 32a0 	ldrb.w	r3, [r4, #672]	; 0x2a0
 8007e16:	2b01      	cmp	r3, #1
 8007e18:	d1dc      	bne.n	8007dd4 <USBD_LL_DataInStage+0x18>
 8007e1a:	2300      	movs	r3, #0
 8007e1c:	f884 32a0 	strb.w	r3, [r4, #672]	; 0x2a0
 8007e20:	2000      	movs	r0, #0
 8007e22:	bd70      	pop	{r4, r5, r6, pc}
 8007e24:	1b92      	subs	r2, r2, r6
 8007e26:	61c2      	str	r2, [r0, #28]
 8007e28:	4619      	mov	r1, r3
 8007e2a:	f000 fb6d 	bl	8008508 <USBD_CtlContinueSendData>
 8007e2e:	462b      	mov	r3, r5
 8007e30:	462a      	mov	r2, r5
 8007e32:	4629      	mov	r1, r5
 8007e34:	4620      	mov	r0, r4
 8007e36:	f000 fe13 	bl	8008a60 <USBD_LL_PrepareReceive>
 8007e3a:	e7c7      	b.n	8007dcc <USBD_LL_DataInStage+0x10>
 8007e3c:	6983      	ldr	r3, [r0, #24]
 8007e3e:	429a      	cmp	r2, r3
 8007e40:	d8dc      	bhi.n	8007dfc <USBD_LL_DataInStage+0x40>
 8007e42:	f8d0 2298 	ldr.w	r2, [r0, #664]	; 0x298
 8007e46:	4293      	cmp	r3, r2
 8007e48:	d2d8      	bcs.n	8007dfc <USBD_LL_DataInStage+0x40>
 8007e4a:	460a      	mov	r2, r1
 8007e4c:	f000 fb5c 	bl	8008508 <USBD_CtlContinueSendData>
 8007e50:	f8c4 5298 	str.w	r5, [r4, #664]	; 0x298
 8007e54:	e7eb      	b.n	8007e2e <USBD_LL_DataInStage+0x72>
 8007e56:	f8d4 32b8 	ldr.w	r3, [r4, #696]	; 0x2b8
 8007e5a:	68db      	ldr	r3, [r3, #12]
 8007e5c:	2b00      	cmp	r3, #0
 8007e5e:	d0d1      	beq.n	8007e04 <USBD_LL_DataInStage+0x48>
 8007e60:	4620      	mov	r0, r4
 8007e62:	4798      	blx	r3
 8007e64:	e7ce      	b.n	8007e04 <USBD_LL_DataInStage+0x48>
 8007e66:	bf00      	nop

08007e68 <USBD_LL_Reset>:
 8007e68:	f8d0 32b8 	ldr.w	r3, [r0, #696]	; 0x2b8
 8007e6c:	2100      	movs	r1, #0
 8007e6e:	2201      	movs	r2, #1
 8007e70:	f880 229c 	strb.w	r2, [r0, #668]	; 0x29c
 8007e74:	6041      	str	r1, [r0, #4]
 8007e76:	f8c0 1294 	str.w	r1, [r0, #660]	; 0x294
 8007e7a:	f8c0 12a4 	str.w	r1, [r0, #676]	; 0x2a4
 8007e7e:	b1eb      	cbz	r3, 8007ebc <USBD_LL_Reset+0x54>
 8007e80:	f8d0 22bc 	ldr.w	r2, [r0, #700]	; 0x2bc
 8007e84:	b570      	push	{r4, r5, r6, lr}
 8007e86:	4604      	mov	r4, r0
 8007e88:	b112      	cbz	r2, 8007e90 <USBD_LL_Reset+0x28>
 8007e8a:	685b      	ldr	r3, [r3, #4]
 8007e8c:	b103      	cbz	r3, 8007e90 <USBD_LL_Reset+0x28>
 8007e8e:	4798      	blx	r3
 8007e90:	2200      	movs	r2, #0
 8007e92:	2340      	movs	r3, #64	; 0x40
 8007e94:	461d      	mov	r5, r3
 8007e96:	4611      	mov	r1, r2
 8007e98:	2601      	movs	r6, #1
 8007e9a:	4620      	mov	r0, r4
 8007e9c:	f000 fd76 	bl	800898c <USBD_LL_OpenEP>
 8007ea0:	f8a4 6164 	strh.w	r6, [r4, #356]	; 0x164
 8007ea4:	f8c4 5160 	str.w	r5, [r4, #352]	; 0x160
 8007ea8:	462b      	mov	r3, r5
 8007eaa:	2200      	movs	r2, #0
 8007eac:	2180      	movs	r1, #128	; 0x80
 8007eae:	4620      	mov	r0, r4
 8007eb0:	f000 fd6c 	bl	800898c <USBD_LL_OpenEP>
 8007eb4:	84a6      	strh	r6, [r4, #36]	; 0x24
 8007eb6:	6225      	str	r5, [r4, #32]
 8007eb8:	2000      	movs	r0, #0
 8007eba:	bd70      	pop	{r4, r5, r6, pc}
 8007ebc:	2003      	movs	r0, #3
 8007ebe:	4770      	bx	lr

08007ec0 <USBD_LL_SetSpeed>:
 8007ec0:	7401      	strb	r1, [r0, #16]
 8007ec2:	2000      	movs	r0, #0
 8007ec4:	4770      	bx	lr
 8007ec6:	bf00      	nop

08007ec8 <USBD_LL_Suspend>:
 8007ec8:	f890 229c 	ldrb.w	r2, [r0, #668]	; 0x29c
 8007ecc:	4603      	mov	r3, r0
 8007ece:	2104      	movs	r1, #4
 8007ed0:	b2d2      	uxtb	r2, r2
 8007ed2:	f880 229d 	strb.w	r2, [r0, #669]	; 0x29d
 8007ed6:	2000      	movs	r0, #0
 8007ed8:	f883 129c 	strb.w	r1, [r3, #668]	; 0x29c
 8007edc:	4770      	bx	lr
 8007ede:	bf00      	nop

08007ee0 <USBD_LL_Resume>:
 8007ee0:	f890 329c 	ldrb.w	r3, [r0, #668]	; 0x29c
 8007ee4:	2b04      	cmp	r3, #4
 8007ee6:	d104      	bne.n	8007ef2 <USBD_LL_Resume+0x12>
 8007ee8:	f890 329d 	ldrb.w	r3, [r0, #669]	; 0x29d
 8007eec:	b2db      	uxtb	r3, r3
 8007eee:	f880 329c 	strb.w	r3, [r0, #668]	; 0x29c
 8007ef2:	2000      	movs	r0, #0
 8007ef4:	4770      	bx	lr
 8007ef6:	bf00      	nop

08007ef8 <USBD_LL_SOF>:
 8007ef8:	f8d0 22b8 	ldr.w	r2, [r0, #696]	; 0x2b8
 8007efc:	b15a      	cbz	r2, 8007f16 <USBD_LL_SOF+0x1e>
 8007efe:	b508      	push	{r3, lr}
 8007f00:	f890 329c 	ldrb.w	r3, [r0, #668]	; 0x29c
 8007f04:	2b03      	cmp	r3, #3
 8007f06:	d001      	beq.n	8007f0c <USBD_LL_SOF+0x14>
 8007f08:	2000      	movs	r0, #0
 8007f0a:	bd08      	pop	{r3, pc}
 8007f0c:	69d3      	ldr	r3, [r2, #28]
 8007f0e:	b123      	cbz	r3, 8007f1a <USBD_LL_SOF+0x22>
 8007f10:	4798      	blx	r3
 8007f12:	2000      	movs	r0, #0
 8007f14:	bd08      	pop	{r3, pc}
 8007f16:	2003      	movs	r0, #3
 8007f18:	4770      	bx	lr
 8007f1a:	4618      	mov	r0, r3
 8007f1c:	bd08      	pop	{r3, pc}
 8007f1e:	bf00      	nop

08007f20 <USBD_LL_IsoINIncomplete>:
 8007f20:	f8d0 22b8 	ldr.w	r2, [r0, #696]	; 0x2b8
 8007f24:	b15a      	cbz	r2, 8007f3e <USBD_LL_IsoINIncomplete+0x1e>
 8007f26:	b508      	push	{r3, lr}
 8007f28:	f890 329c 	ldrb.w	r3, [r0, #668]	; 0x29c
 8007f2c:	2b03      	cmp	r3, #3
 8007f2e:	d001      	beq.n	8007f34 <USBD_LL_IsoINIncomplete+0x14>
 8007f30:	2000      	movs	r0, #0
 8007f32:	bd08      	pop	{r3, pc}
 8007f34:	6a13      	ldr	r3, [r2, #32]
 8007f36:	b123      	cbz	r3, 8007f42 <USBD_LL_IsoINIncomplete+0x22>
 8007f38:	4798      	blx	r3
 8007f3a:	2000      	movs	r0, #0
 8007f3c:	bd08      	pop	{r3, pc}
 8007f3e:	2003      	movs	r0, #3
 8007f40:	4770      	bx	lr
 8007f42:	4618      	mov	r0, r3
 8007f44:	bd08      	pop	{r3, pc}
 8007f46:	bf00      	nop

08007f48 <USBD_LL_IsoOUTIncomplete>:
 8007f48:	f8d0 22b8 	ldr.w	r2, [r0, #696]	; 0x2b8
 8007f4c:	b15a      	cbz	r2, 8007f66 <USBD_LL_IsoOUTIncomplete+0x1e>
 8007f4e:	b508      	push	{r3, lr}
 8007f50:	f890 329c 	ldrb.w	r3, [r0, #668]	; 0x29c
 8007f54:	2b03      	cmp	r3, #3
 8007f56:	d001      	beq.n	8007f5c <USBD_LL_IsoOUTIncomplete+0x14>
 8007f58:	2000      	movs	r0, #0
 8007f5a:	bd08      	pop	{r3, pc}
 8007f5c:	6a53      	ldr	r3, [r2, #36]	; 0x24
 8007f5e:	b123      	cbz	r3, 8007f6a <USBD_LL_IsoOUTIncomplete+0x22>
 8007f60:	4798      	blx	r3
 8007f62:	2000      	movs	r0, #0
 8007f64:	bd08      	pop	{r3, pc}
 8007f66:	2003      	movs	r0, #3
 8007f68:	4770      	bx	lr
 8007f6a:	4618      	mov	r0, r3
 8007f6c:	bd08      	pop	{r3, pc}
 8007f6e:	bf00      	nop

08007f70 <USBD_LL_DevConnected>:
 8007f70:	2000      	movs	r0, #0
 8007f72:	4770      	bx	lr

08007f74 <USBD_LL_DevDisconnected>:
 8007f74:	f8d0 22b8 	ldr.w	r2, [r0, #696]	; 0x2b8
 8007f78:	2101      	movs	r1, #1
 8007f7a:	f880 129c 	strb.w	r1, [r0, #668]	; 0x29c
 8007f7e:	b12a      	cbz	r2, 8007f8c <USBD_LL_DevDisconnected+0x18>
 8007f80:	b508      	push	{r3, lr}
 8007f82:	6852      	ldr	r2, [r2, #4]
 8007f84:	7901      	ldrb	r1, [r0, #4]
 8007f86:	4790      	blx	r2
 8007f88:	2000      	movs	r0, #0
 8007f8a:	bd08      	pop	{r3, pc}
 8007f8c:	2000      	movs	r0, #0
 8007f8e:	4770      	bx	lr

08007f90 <USBD_StdDevReq>:
 8007f90:	b5f0      	push	{r4, r5, r6, r7, lr}
 8007f92:	780c      	ldrb	r4, [r1, #0]
 8007f94:	f004 0460 	and.w	r4, r4, #96	; 0x60
 8007f98:	2c20      	cmp	r4, #32
 8007f9a:	b083      	sub	sp, #12
 8007f9c:	460e      	mov	r6, r1
 8007f9e:	4605      	mov	r5, r0
 8007fa0:	d00e      	beq.n	8007fc0 <USBD_StdDevReq+0x30>
 8007fa2:	2c40      	cmp	r4, #64	; 0x40
 8007fa4:	d00c      	beq.n	8007fc0 <USBD_StdDevReq+0x30>
 8007fa6:	b1ac      	cbz	r4, 8007fd4 <USBD_StdDevReq+0x44>
 8007fa8:	2180      	movs	r1, #128	; 0x80
 8007faa:	4628      	mov	r0, r5
 8007fac:	f000 fd0c 	bl	80089c8 <USBD_LL_StallEP>
 8007fb0:	4628      	mov	r0, r5
 8007fb2:	2100      	movs	r1, #0
 8007fb4:	f000 fd08 	bl	80089c8 <USBD_LL_StallEP>
 8007fb8:	2400      	movs	r4, #0
 8007fba:	4620      	mov	r0, r4
 8007fbc:	b003      	add	sp, #12
 8007fbe:	bdf0      	pop	{r4, r5, r6, r7, pc}
 8007fc0:	f8d5 32b8 	ldr.w	r3, [r5, #696]	; 0x2b8
 8007fc4:	4631      	mov	r1, r6
 8007fc6:	689b      	ldr	r3, [r3, #8]
 8007fc8:	4628      	mov	r0, r5
 8007fca:	4798      	blx	r3
 8007fcc:	4604      	mov	r4, r0
 8007fce:	4620      	mov	r0, r4
 8007fd0:	b003      	add	sp, #12
 8007fd2:	bdf0      	pop	{r4, r5, r6, r7, pc}
 8007fd4:	784b      	ldrb	r3, [r1, #1]
 8007fd6:	2b09      	cmp	r3, #9
 8007fd8:	d8e6      	bhi.n	8007fa8 <USBD_StdDevReq+0x18>
 8007fda:	a201      	add	r2, pc, #4	; (adr r2, 8007fe0 <USBD_StdDevReq+0x50>)
 8007fdc:	f852 f023 	ldr.w	pc, [r2, r3, lsl #2]
 8007fe0:	08008041 	.word	0x08008041
 8007fe4:	0800806d 	.word	0x0800806d
 8007fe8:	08007fa9 	.word	0x08007fa9
 8007fec:	0800808b 	.word	0x0800808b
 8007ff0:	08007fa9 	.word	0x08007fa9
 8007ff4:	08008093 	.word	0x08008093
 8007ff8:	080080cb 	.word	0x080080cb
 8007ffc:	08007fa9 	.word	0x08007fa9
 8008000:	080080e7 	.word	0x080080e7
 8008004:	08008009 	.word	0x08008009
 8008008:	788e      	ldrb	r6, [r1, #2]
 800800a:	4faf      	ldr	r7, [pc, #700]	; (80082c8 <USBD_StdDevReq+0x338>)
 800800c:	2e01      	cmp	r6, #1
 800800e:	703e      	strb	r6, [r7, #0]
 8008010:	f200 8137 	bhi.w	8008282 <USBD_StdDevReq+0x2f2>
 8008014:	f890 329c 	ldrb.w	r3, [r0, #668]	; 0x29c
 8008018:	2b02      	cmp	r3, #2
 800801a:	b2da      	uxtb	r2, r3
 800801c:	f000 811f 	beq.w	800825e <USBD_StdDevReq+0x2ce>
 8008020:	2a03      	cmp	r2, #3
 8008022:	f000 80f9 	beq.w	8008218 <USBD_StdDevReq+0x288>
 8008026:	2180      	movs	r1, #128	; 0x80
 8008028:	f000 fcce 	bl	80089c8 <USBD_LL_StallEP>
 800802c:	2100      	movs	r1, #0
 800802e:	4628      	mov	r0, r5
 8008030:	f000 fcca 	bl	80089c8 <USBD_LL_StallEP>
 8008034:	7839      	ldrb	r1, [r7, #0]
 8008036:	4628      	mov	r0, r5
 8008038:	f7ff fe54 	bl	8007ce4 <USBD_ClrClassConfig>
 800803c:	2403      	movs	r4, #3
 800803e:	e7bc      	b.n	8007fba <USBD_StdDevReq+0x2a>
 8008040:	f890 229c 	ldrb.w	r2, [r0, #668]	; 0x29c
 8008044:	3a01      	subs	r2, #1
 8008046:	2a02      	cmp	r2, #2
 8008048:	d865      	bhi.n	8008116 <USBD_StdDevReq+0x186>
 800804a:	88ca      	ldrh	r2, [r1, #6]
 800804c:	2a02      	cmp	r2, #2
 800804e:	d162      	bne.n	8008116 <USBD_StdDevReq+0x186>
 8008050:	f8d0 02a4 	ldr.w	r0, [r0, #676]	; 0x2a4
 8008054:	4629      	mov	r1, r5
 8008056:	2800      	cmp	r0, #0
 8008058:	bf14      	ite	ne
 800805a:	4610      	movne	r0, r2
 800805c:	2000      	moveq	r0, #0
 800805e:	f841 0f0c 	str.w	r0, [r1, #12]!
 8008062:	4628      	mov	r0, r5
 8008064:	461c      	mov	r4, r3
 8008066:	f000 fa41 	bl	80084ec <USBD_CtlSendData>
 800806a:	e7a6      	b.n	8007fba <USBD_StdDevReq+0x2a>
 800806c:	f890 329c 	ldrb.w	r3, [r0, #668]	; 0x29c
 8008070:	3b01      	subs	r3, #1
 8008072:	2b02      	cmp	r3, #2
 8008074:	d84f      	bhi.n	8008116 <USBD_StdDevReq+0x186>
 8008076:	884b      	ldrh	r3, [r1, #2]
 8008078:	2b01      	cmp	r3, #1
 800807a:	d19e      	bne.n	8007fba <USBD_StdDevReq+0x2a>
 800807c:	2300      	movs	r3, #0
 800807e:	f8c5 32a4 	str.w	r3, [r5, #676]	; 0x2a4
 8008082:	4628      	mov	r0, r5
 8008084:	f000 fa5e 	bl	8008544 <USBD_CtlSendStatus>
 8008088:	e797      	b.n	8007fba <USBD_StdDevReq+0x2a>
 800808a:	884b      	ldrh	r3, [r1, #2]
 800808c:	2b01      	cmp	r3, #1
 800808e:	d194      	bne.n	8007fba <USBD_StdDevReq+0x2a>
 8008090:	e7f5      	b.n	800807e <USBD_StdDevReq+0xee>
 8008092:	888b      	ldrh	r3, [r1, #4]
 8008094:	2b00      	cmp	r3, #0
 8008096:	d13e      	bne.n	8008116 <USBD_StdDevReq+0x186>
 8008098:	88cb      	ldrh	r3, [r1, #6]
 800809a:	2b00      	cmp	r3, #0
 800809c:	d13b      	bne.n	8008116 <USBD_StdDevReq+0x186>
 800809e:	884e      	ldrh	r6, [r1, #2]
 80080a0:	2e7f      	cmp	r6, #127	; 0x7f
 80080a2:	d838      	bhi.n	8008116 <USBD_StdDevReq+0x186>
 80080a4:	f890 329c 	ldrb.w	r3, [r0, #668]	; 0x29c
 80080a8:	2b03      	cmp	r3, #3
 80080aa:	d034      	beq.n	8008116 <USBD_StdDevReq+0x186>
 80080ac:	b2f1      	uxtb	r1, r6
 80080ae:	f880 129e 	strb.w	r1, [r0, #670]	; 0x29e
 80080b2:	f000 fcb9 	bl	8008a28 <USBD_LL_SetUSBAddress>
 80080b6:	4628      	mov	r0, r5
 80080b8:	f000 fa44 	bl	8008544 <USBD_CtlSendStatus>
 80080bc:	2e00      	cmp	r6, #0
 80080be:	f000 80fe 	beq.w	80082be <USBD_StdDevReq+0x32e>
 80080c2:	2302      	movs	r3, #2
 80080c4:	f885 329c 	strb.w	r3, [r5, #668]	; 0x29c
 80080c8:	e777      	b.n	8007fba <USBD_StdDevReq+0x2a>
 80080ca:	884a      	ldrh	r2, [r1, #2]
 80080cc:	0a13      	lsrs	r3, r2, #8
 80080ce:	2100      	movs	r1, #0
 80080d0:	3b01      	subs	r3, #1
 80080d2:	f8ad 1006 	strh.w	r1, [sp, #6]
 80080d6:	2b06      	cmp	r3, #6
 80080d8:	d81d      	bhi.n	8008116 <USBD_StdDevReq+0x186>
 80080da:	e8df f003 	tbb	[pc, r3]
 80080de:	5f6c      	.short	0x5f6c
 80080e0:	431c1c4d 	.word	0x431c1c4d
 80080e4:	27          	.byte	0x27
 80080e5:	00          	.byte	0x00
 80080e6:	88ca      	ldrh	r2, [r1, #6]
 80080e8:	2a01      	cmp	r2, #1
 80080ea:	d114      	bne.n	8008116 <USBD_StdDevReq+0x186>
 80080ec:	f890 129c 	ldrb.w	r1, [r0, #668]	; 0x29c
 80080f0:	2902      	cmp	r1, #2
 80080f2:	b2cb      	uxtb	r3, r1
 80080f4:	f200 8089 	bhi.w	800820a <USBD_StdDevReq+0x27a>
 80080f8:	2b00      	cmp	r3, #0
 80080fa:	f43f af55 	beq.w	8007fa8 <USBD_StdDevReq+0x18>
 80080fe:	4601      	mov	r1, r0
 8008100:	2300      	movs	r3, #0
 8008102:	f841 3f08 	str.w	r3, [r1, #8]!
 8008106:	f000 f9f1 	bl	80084ec <USBD_CtlSendData>
 800810a:	e756      	b.n	8007fba <USBD_StdDevReq+0x2a>
 800810c:	f8d0 32b4 	ldr.w	r3, [r0, #692]	; 0x2b4
 8008110:	685b      	ldr	r3, [r3, #4]
 8008112:	2b00      	cmp	r3, #0
 8008114:	d15c      	bne.n	80081d0 <USBD_StdDevReq+0x240>
 8008116:	2180      	movs	r1, #128	; 0x80
 8008118:	4628      	mov	r0, r5
 800811a:	f000 fc55 	bl	80089c8 <USBD_LL_StallEP>
 800811e:	4628      	mov	r0, r5
 8008120:	2100      	movs	r1, #0
 8008122:	f000 fc51 	bl	80089c8 <USBD_LL_StallEP>
 8008126:	4620      	mov	r0, r4
 8008128:	b003      	add	sp, #12
 800812a:	bdf0      	pop	{r4, r5, r6, r7, pc}
 800812c:	7c03      	ldrb	r3, [r0, #16]
 800812e:	2b00      	cmp	r3, #0
 8008130:	d1f1      	bne.n	8008116 <USBD_StdDevReq+0x186>
 8008132:	f8d0 32b8 	ldr.w	r3, [r0, #696]	; 0x2b8
 8008136:	f10d 0006 	add.w	r0, sp, #6
 800813a:	6b1b      	ldr	r3, [r3, #48]	; 0x30
 800813c:	4798      	blx	r3
 800813e:	2307      	movs	r3, #7
 8008140:	7043      	strb	r3, [r0, #1]
 8008142:	88f2      	ldrh	r2, [r6, #6]
 8008144:	2a00      	cmp	r2, #0
 8008146:	d09c      	beq.n	8008082 <USBD_StdDevReq+0xf2>
 8008148:	f8bd 3006 	ldrh.w	r3, [sp, #6]
 800814c:	2b00      	cmp	r3, #0
 800814e:	d0e2      	beq.n	8008116 <USBD_StdDevReq+0x186>
 8008150:	429a      	cmp	r2, r3
 8008152:	bf28      	it	cs
 8008154:	461a      	movcs	r2, r3
 8008156:	4601      	mov	r1, r0
 8008158:	4628      	mov	r0, r5
 800815a:	f8ad 2006 	strh.w	r2, [sp, #6]
 800815e:	f000 f9c5 	bl	80084ec <USBD_CtlSendData>
 8008162:	e72a      	b.n	8007fba <USBD_StdDevReq+0x2a>
 8008164:	7c03      	ldrb	r3, [r0, #16]
 8008166:	2b00      	cmp	r3, #0
 8008168:	d1d5      	bne.n	8008116 <USBD_StdDevReq+0x186>
 800816a:	f8d0 32b8 	ldr.w	r3, [r0, #696]	; 0x2b8
 800816e:	f10d 0006 	add.w	r0, sp, #6
 8008172:	6b5b      	ldr	r3, [r3, #52]	; 0x34
 8008174:	4798      	blx	r3
 8008176:	e7e4      	b.n	8008142 <USBD_StdDevReq+0x1b2>
 8008178:	b2d2      	uxtb	r2, r2
 800817a:	2a05      	cmp	r2, #5
 800817c:	d8cb      	bhi.n	8008116 <USBD_StdDevReq+0x186>
 800817e:	a301      	add	r3, pc, #4	; (adr r3, 8008184 <USBD_StdDevReq+0x1f4>)
 8008180:	f853 f022 	ldr.w	pc, [r3, r2, lsl #2]
 8008184:	0800810d 	.word	0x0800810d
 8008188:	080081ff 	.word	0x080081ff
 800818c:	080081f3 	.word	0x080081f3
 8008190:	080081e7 	.word	0x080081e7
 8008194:	080081db 	.word	0x080081db
 8008198:	080081c7 	.word	0x080081c7
 800819c:	7c03      	ldrb	r3, [r0, #16]
 800819e:	2b00      	cmp	r3, #0
 80081a0:	f040 8084 	bne.w	80082ac <USBD_StdDevReq+0x31c>
 80081a4:	f8d0 32b8 	ldr.w	r3, [r0, #696]	; 0x2b8
 80081a8:	f10d 0006 	add.w	r0, sp, #6
 80081ac:	6a9b      	ldr	r3, [r3, #40]	; 0x28
 80081ae:	4798      	blx	r3
 80081b0:	2302      	movs	r3, #2
 80081b2:	7043      	strb	r3, [r0, #1]
 80081b4:	e7c5      	b.n	8008142 <USBD_StdDevReq+0x1b2>
 80081b6:	f8d0 32b4 	ldr.w	r3, [r0, #692]	; 0x2b4
 80081ba:	7c00      	ldrb	r0, [r0, #16]
 80081bc:	681b      	ldr	r3, [r3, #0]
 80081be:	f10d 0106 	add.w	r1, sp, #6
 80081c2:	4798      	blx	r3
 80081c4:	e7bd      	b.n	8008142 <USBD_StdDevReq+0x1b2>
 80081c6:	f8d0 32b4 	ldr.w	r3, [r0, #692]	; 0x2b4
 80081ca:	699b      	ldr	r3, [r3, #24]
 80081cc:	2b00      	cmp	r3, #0
 80081ce:	d0a2      	beq.n	8008116 <USBD_StdDevReq+0x186>
 80081d0:	7c28      	ldrb	r0, [r5, #16]
 80081d2:	f10d 0106 	add.w	r1, sp, #6
 80081d6:	4798      	blx	r3
 80081d8:	e7b3      	b.n	8008142 <USBD_StdDevReq+0x1b2>
 80081da:	f8d0 32b4 	ldr.w	r3, [r0, #692]	; 0x2b4
 80081de:	695b      	ldr	r3, [r3, #20]
 80081e0:	2b00      	cmp	r3, #0
 80081e2:	d1f5      	bne.n	80081d0 <USBD_StdDevReq+0x240>
 80081e4:	e797      	b.n	8008116 <USBD_StdDevReq+0x186>
 80081e6:	f8d0 32b4 	ldr.w	r3, [r0, #692]	; 0x2b4
 80081ea:	691b      	ldr	r3, [r3, #16]
 80081ec:	2b00      	cmp	r3, #0
 80081ee:	d1ef      	bne.n	80081d0 <USBD_StdDevReq+0x240>
 80081f0:	e791      	b.n	8008116 <USBD_StdDevReq+0x186>
 80081f2:	f8d0 32b4 	ldr.w	r3, [r0, #692]	; 0x2b4
 80081f6:	68db      	ldr	r3, [r3, #12]
 80081f8:	2b00      	cmp	r3, #0
 80081fa:	d1e9      	bne.n	80081d0 <USBD_StdDevReq+0x240>
 80081fc:	e78b      	b.n	8008116 <USBD_StdDevReq+0x186>
 80081fe:	f8d0 32b4 	ldr.w	r3, [r0, #692]	; 0x2b4
 8008202:	689b      	ldr	r3, [r3, #8]
 8008204:	2b00      	cmp	r3, #0
 8008206:	d1e3      	bne.n	80081d0 <USBD_StdDevReq+0x240>
 8008208:	e785      	b.n	8008116 <USBD_StdDevReq+0x186>
 800820a:	2b03      	cmp	r3, #3
 800820c:	f47f aecc 	bne.w	8007fa8 <USBD_StdDevReq+0x18>
 8008210:	1d01      	adds	r1, r0, #4
 8008212:	f000 f96b 	bl	80084ec <USBD_CtlSendData>
 8008216:	e6d0      	b.n	8007fba <USBD_StdDevReq+0x2a>
 8008218:	2e00      	cmp	r6, #0
 800821a:	d03b      	beq.n	8008294 <USBD_StdDevReq+0x304>
 800821c:	6841      	ldr	r1, [r0, #4]
 800821e:	2901      	cmp	r1, #1
 8008220:	f43f af2f 	beq.w	8008082 <USBD_StdDevReq+0xf2>
 8008224:	b2c9      	uxtb	r1, r1
 8008226:	f7ff fd5d 	bl	8007ce4 <USBD_ClrClassConfig>
 800822a:	7839      	ldrb	r1, [r7, #0]
 800822c:	6069      	str	r1, [r5, #4]
 800822e:	4628      	mov	r0, r5
 8008230:	f7ff fd50 	bl	8007cd4 <USBD_SetClassConfig>
 8008234:	4606      	mov	r6, r0
 8008236:	2800      	cmp	r0, #0
 8008238:	f43f af23 	beq.w	8008082 <USBD_StdDevReq+0xf2>
 800823c:	2180      	movs	r1, #128	; 0x80
 800823e:	4628      	mov	r0, r5
 8008240:	f000 fbc2 	bl	80089c8 <USBD_LL_StallEP>
 8008244:	2100      	movs	r1, #0
 8008246:	4628      	mov	r0, r5
 8008248:	f000 fbbe 	bl	80089c8 <USBD_LL_StallEP>
 800824c:	7929      	ldrb	r1, [r5, #4]
 800824e:	4628      	mov	r0, r5
 8008250:	f7ff fd48 	bl	8007ce4 <USBD_ClrClassConfig>
 8008254:	2302      	movs	r3, #2
 8008256:	4634      	mov	r4, r6
 8008258:	f885 329c 	strb.w	r3, [r5, #668]	; 0x29c
 800825c:	e6ad      	b.n	8007fba <USBD_StdDevReq+0x2a>
 800825e:	2e00      	cmp	r6, #0
 8008260:	f43f af0f 	beq.w	8008082 <USBD_StdDevReq+0xf2>
 8008264:	2101      	movs	r1, #1
 8008266:	6041      	str	r1, [r0, #4]
 8008268:	f7ff fd34 	bl	8007cd4 <USBD_SetClassConfig>
 800826c:	4604      	mov	r4, r0
 800826e:	2800      	cmp	r0, #0
 8008270:	f47f af51 	bne.w	8008116 <USBD_StdDevReq+0x186>
 8008274:	4628      	mov	r0, r5
 8008276:	f000 f965 	bl	8008544 <USBD_CtlSendStatus>
 800827a:	2303      	movs	r3, #3
 800827c:	f885 329c 	strb.w	r3, [r5, #668]	; 0x29c
 8008280:	e69b      	b.n	8007fba <USBD_StdDevReq+0x2a>
 8008282:	2180      	movs	r1, #128	; 0x80
 8008284:	f000 fba0 	bl	80089c8 <USBD_LL_StallEP>
 8008288:	4628      	mov	r0, r5
 800828a:	2100      	movs	r1, #0
 800828c:	f000 fb9c 	bl	80089c8 <USBD_LL_StallEP>
 8008290:	2403      	movs	r4, #3
 8008292:	e692      	b.n	8007fba <USBD_StdDevReq+0x2a>
 8008294:	2302      	movs	r3, #2
 8008296:	6046      	str	r6, [r0, #4]
 8008298:	f880 329c 	strb.w	r3, [r0, #668]	; 0x29c
 800829c:	4631      	mov	r1, r6
 800829e:	f7ff fd21 	bl	8007ce4 <USBD_ClrClassConfig>
 80082a2:	4628      	mov	r0, r5
 80082a4:	4634      	mov	r4, r6
 80082a6:	f000 f94d 	bl	8008544 <USBD_CtlSendStatus>
 80082aa:	e686      	b.n	8007fba <USBD_StdDevReq+0x2a>
 80082ac:	f8d0 32b8 	ldr.w	r3, [r0, #696]	; 0x2b8
 80082b0:	f10d 0006 	add.w	r0, sp, #6
 80082b4:	6adb      	ldr	r3, [r3, #44]	; 0x2c
 80082b6:	4798      	blx	r3
 80082b8:	2302      	movs	r3, #2
 80082ba:	7043      	strb	r3, [r0, #1]
 80082bc:	e741      	b.n	8008142 <USBD_StdDevReq+0x1b2>
 80082be:	2301      	movs	r3, #1
 80082c0:	f885 329c 	strb.w	r3, [r5, #668]	; 0x29c
 80082c4:	e679      	b.n	8007fba <USBD_StdDevReq+0x2a>
 80082c6:	bf00      	nop
 80082c8:	2000036c 	.word	0x2000036c

080082cc <USBD_StdItfReq>:
 80082cc:	b538      	push	{r3, r4, r5, lr}
 80082ce:	780b      	ldrb	r3, [r1, #0]
 80082d0:	f003 0260 	and.w	r2, r3, #96	; 0x60
 80082d4:	2a40      	cmp	r2, #64	; 0x40
 80082d6:	460d      	mov	r5, r1
 80082d8:	4604      	mov	r4, r0
 80082da:	d00b      	beq.n	80082f4 <USBD_StdItfReq+0x28>
 80082dc:	065b      	lsls	r3, r3, #25
 80082de:	d509      	bpl.n	80082f4 <USBD_StdItfReq+0x28>
 80082e0:	2180      	movs	r1, #128	; 0x80
 80082e2:	f000 fb71 	bl	80089c8 <USBD_LL_StallEP>
 80082e6:	4620      	mov	r0, r4
 80082e8:	2100      	movs	r1, #0
 80082ea:	f000 fb6d 	bl	80089c8 <USBD_LL_StallEP>
 80082ee:	2500      	movs	r5, #0
 80082f0:	4628      	mov	r0, r5
 80082f2:	bd38      	pop	{r3, r4, r5, pc}
 80082f4:	f894 329c 	ldrb.w	r3, [r4, #668]	; 0x29c
 80082f8:	3b01      	subs	r3, #1
 80082fa:	2b02      	cmp	r3, #2
 80082fc:	d812      	bhi.n	8008324 <USBD_StdItfReq+0x58>
 80082fe:	792b      	ldrb	r3, [r5, #4]
 8008300:	2b01      	cmp	r3, #1
 8008302:	d80f      	bhi.n	8008324 <USBD_StdItfReq+0x58>
 8008304:	f8d4 32b8 	ldr.w	r3, [r4, #696]	; 0x2b8
 8008308:	4629      	mov	r1, r5
 800830a:	689b      	ldr	r3, [r3, #8]
 800830c:	4620      	mov	r0, r4
 800830e:	4798      	blx	r3
 8008310:	88eb      	ldrh	r3, [r5, #6]
 8008312:	4605      	mov	r5, r0
 8008314:	2b00      	cmp	r3, #0
 8008316:	d1eb      	bne.n	80082f0 <USBD_StdItfReq+0x24>
 8008318:	2800      	cmp	r0, #0
 800831a:	d1e9      	bne.n	80082f0 <USBD_StdItfReq+0x24>
 800831c:	4620      	mov	r0, r4
 800831e:	f000 f911 	bl	8008544 <USBD_CtlSendStatus>
 8008322:	e7e5      	b.n	80082f0 <USBD_StdItfReq+0x24>
 8008324:	2180      	movs	r1, #128	; 0x80
 8008326:	4620      	mov	r0, r4
 8008328:	e7db      	b.n	80082e2 <USBD_StdItfReq+0x16>
 800832a:	bf00      	nop

0800832c <USBD_StdEPReq>:
 800832c:	b570      	push	{r4, r5, r6, lr}
 800832e:	780b      	ldrb	r3, [r1, #0]
 8008330:	f003 0360 	and.w	r3, r3, #96	; 0x60
 8008334:	2b20      	cmp	r3, #32
 8008336:	460d      	mov	r5, r1
 8008338:	4604      	mov	r4, r0
 800833a:	d01b      	beq.n	8008374 <USBD_StdEPReq+0x48>
 800833c:	2b40      	cmp	r3, #64	; 0x40
 800833e:	d019      	beq.n	8008374 <USBD_StdEPReq+0x48>
 8008340:	b303      	cbz	r3, 8008384 <USBD_StdEPReq+0x58>
 8008342:	2180      	movs	r1, #128	; 0x80
 8008344:	4620      	mov	r0, r4
 8008346:	f000 fb3f 	bl	80089c8 <USBD_LL_StallEP>
 800834a:	4620      	mov	r0, r4
 800834c:	2100      	movs	r1, #0
 800834e:	f000 fb3b 	bl	80089c8 <USBD_LL_StallEP>
 8008352:	2000      	movs	r0, #0
 8008354:	bd70      	pop	{r4, r5, r6, pc}
 8008356:	f890 329c 	ldrb.w	r3, [r0, #668]	; 0x29c
 800835a:	2b02      	cmp	r3, #2
 800835c:	b2da      	uxtb	r2, r3
 800835e:	d053      	beq.n	8008408 <USBD_StdEPReq+0xdc>
 8008360:	2a03      	cmp	r2, #3
 8008362:	d1ee      	bne.n	8008342 <USBD_StdEPReq+0x16>
 8008364:	886b      	ldrh	r3, [r5, #2]
 8008366:	2b00      	cmp	r3, #0
 8008368:	d1f3      	bne.n	8008352 <USBD_StdEPReq+0x26>
 800836a:	064e      	lsls	r6, r1, #25
 800836c:	d16f      	bne.n	800844e <USBD_StdEPReq+0x122>
 800836e:	4620      	mov	r0, r4
 8008370:	f000 f8e8 	bl	8008544 <USBD_CtlSendStatus>
 8008374:	f8d4 32b8 	ldr.w	r3, [r4, #696]	; 0x2b8
 8008378:	4629      	mov	r1, r5
 800837a:	4620      	mov	r0, r4
 800837c:	689b      	ldr	r3, [r3, #8]
 800837e:	e8bd 4070 	ldmia.w	sp!, {r4, r5, r6, lr}
 8008382:	4718      	bx	r3
 8008384:	784b      	ldrb	r3, [r1, #1]
 8008386:	888a      	ldrh	r2, [r1, #4]
 8008388:	2b01      	cmp	r3, #1
 800838a:	b2d1      	uxtb	r1, r2
 800838c:	d0e3      	beq.n	8008356 <USBD_StdEPReq+0x2a>
 800838e:	2b03      	cmp	r3, #3
 8008390:	d029      	beq.n	80083e6 <USBD_StdEPReq+0xba>
 8008392:	2b00      	cmp	r3, #0
 8008394:	d1d5      	bne.n	8008342 <USBD_StdEPReq+0x16>
 8008396:	f890 329c 	ldrb.w	r3, [r0, #668]	; 0x29c
 800839a:	2b02      	cmp	r3, #2
 800839c:	b2d8      	uxtb	r0, r3
 800839e:	d03c      	beq.n	800841a <USBD_StdEPReq+0xee>
 80083a0:	2803      	cmp	r0, #3
 80083a2:	d1ce      	bne.n	8008342 <USBD_StdEPReq+0x16>
 80083a4:	f001 030f 	and.w	r3, r1, #15
 80083a8:	eb03 0383 	add.w	r3, r3, r3, lsl #2
 80083ac:	0612      	lsls	r2, r2, #24
 80083ae:	eb04 0383 	add.w	r3, r4, r3, lsl #2
 80083b2:	d441      	bmi.n	8008438 <USBD_StdEPReq+0x10c>
 80083b4:	f8b3 3164 	ldrh.w	r3, [r3, #356]	; 0x164
 80083b8:	2b00      	cmp	r3, #0
 80083ba:	d0c2      	beq.n	8008342 <USBD_StdEPReq+0x16>
 80083bc:	f001 037f 	and.w	r3, r1, #127	; 0x7f
 80083c0:	2514      	movs	r5, #20
 80083c2:	fb05 4503 	mla	r5, r5, r3, r4
 80083c6:	f505 75aa 	add.w	r5, r5, #340	; 0x154
 80083ca:	b12b      	cbz	r3, 80083d8 <USBD_StdEPReq+0xac>
 80083cc:	4620      	mov	r0, r4
 80083ce:	f000 fb17 	bl	8008a00 <USBD_LL_IsStallEP>
 80083d2:	2800      	cmp	r0, #0
 80083d4:	d03e      	beq.n	8008454 <USBD_StdEPReq+0x128>
 80083d6:	2301      	movs	r3, #1
 80083d8:	602b      	str	r3, [r5, #0]
 80083da:	4629      	mov	r1, r5
 80083dc:	4620      	mov	r0, r4
 80083de:	2202      	movs	r2, #2
 80083e0:	f000 f884 	bl	80084ec <USBD_CtlSendData>
 80083e4:	e7b5      	b.n	8008352 <USBD_StdEPReq+0x26>
 80083e6:	f890 329c 	ldrb.w	r3, [r0, #668]	; 0x29c
 80083ea:	2b02      	cmp	r3, #2
 80083ec:	b2da      	uxtb	r2, r3
 80083ee:	d00b      	beq.n	8008408 <USBD_StdEPReq+0xdc>
 80083f0:	2a03      	cmp	r2, #3
 80083f2:	d1a6      	bne.n	8008342 <USBD_StdEPReq+0x16>
 80083f4:	886b      	ldrh	r3, [r5, #2]
 80083f6:	b91b      	cbnz	r3, 8008400 <USBD_StdEPReq+0xd4>
 80083f8:	064a      	lsls	r2, r1, #25
 80083fa:	d001      	beq.n	8008400 <USBD_StdEPReq+0xd4>
 80083fc:	88eb      	ldrh	r3, [r5, #6]
 80083fe:	b35b      	cbz	r3, 8008458 <USBD_StdEPReq+0x12c>
 8008400:	4620      	mov	r0, r4
 8008402:	f000 f89f 	bl	8008544 <USBD_CtlSendStatus>
 8008406:	e7a4      	b.n	8008352 <USBD_StdEPReq+0x26>
 8008408:	064b      	lsls	r3, r1, #25
 800840a:	d09a      	beq.n	8008342 <USBD_StdEPReq+0x16>
 800840c:	f000 fadc 	bl	80089c8 <USBD_LL_StallEP>
 8008410:	4620      	mov	r0, r4
 8008412:	2180      	movs	r1, #128	; 0x80
 8008414:	f000 fad8 	bl	80089c8 <USBD_LL_StallEP>
 8008418:	e79b      	b.n	8008352 <USBD_StdEPReq+0x26>
 800841a:	0648      	lsls	r0, r1, #25
 800841c:	d191      	bne.n	8008342 <USBD_StdEPReq+0x16>
 800841e:	0611      	lsls	r1, r2, #24
 8008420:	bf4c      	ite	mi
 8008422:	f104 0114 	addmi.w	r1, r4, #20
 8008426:	f504 71aa 	addpl.w	r1, r4, #340	; 0x154
 800842a:	2300      	movs	r3, #0
 800842c:	4620      	mov	r0, r4
 800842e:	600b      	str	r3, [r1, #0]
 8008430:	2202      	movs	r2, #2
 8008432:	f000 f85b 	bl	80084ec <USBD_CtlSendData>
 8008436:	e78c      	b.n	8008352 <USBD_StdEPReq+0x26>
 8008438:	8c9b      	ldrh	r3, [r3, #36]	; 0x24
 800843a:	2b00      	cmp	r3, #0
 800843c:	d081      	beq.n	8008342 <USBD_StdEPReq+0x16>
 800843e:	f001 037f 	and.w	r3, r1, #127	; 0x7f
 8008442:	1c5d      	adds	r5, r3, #1
 8008444:	eb05 0585 	add.w	r5, r5, r5, lsl #2
 8008448:	eb04 0585 	add.w	r5, r4, r5, lsl #2
 800844c:	e7bd      	b.n	80083ca <USBD_StdEPReq+0x9e>
 800844e:	f000 fac9 	bl	80089e4 <USBD_LL_ClearStallEP>
 8008452:	e78c      	b.n	800836e <USBD_StdEPReq+0x42>
 8008454:	6028      	str	r0, [r5, #0]
 8008456:	e7c0      	b.n	80083da <USBD_StdEPReq+0xae>
 8008458:	f000 fab6 	bl	80089c8 <USBD_LL_StallEP>
 800845c:	e7d0      	b.n	8008400 <USBD_StdEPReq+0xd4>
 800845e:	bf00      	nop

08008460 <USBD_ParseSetupRequest>:
 8008460:	780b      	ldrb	r3, [r1, #0]
 8008462:	7003      	strb	r3, [r0, #0]
 8008464:	784b      	ldrb	r3, [r1, #1]
 8008466:	7043      	strb	r3, [r0, #1]
 8008468:	78ca      	ldrb	r2, [r1, #3]
 800846a:	788b      	ldrb	r3, [r1, #2]
 800846c:	ea43 2302 	orr.w	r3, r3, r2, lsl #8
 8008470:	8043      	strh	r3, [r0, #2]
 8008472:	794a      	ldrb	r2, [r1, #5]
 8008474:	790b      	ldrb	r3, [r1, #4]
 8008476:	ea43 2302 	orr.w	r3, r3, r2, lsl #8
 800847a:	8083      	strh	r3, [r0, #4]
 800847c:	79ca      	ldrb	r2, [r1, #7]
 800847e:	798b      	ldrb	r3, [r1, #6]
 8008480:	ea43 2302 	orr.w	r3, r3, r2, lsl #8
 8008484:	80c3      	strh	r3, [r0, #6]
 8008486:	4770      	bx	lr

08008488 <USBD_CtlError>:
 8008488:	b510      	push	{r4, lr}
 800848a:	2180      	movs	r1, #128	; 0x80
 800848c:	4604      	mov	r4, r0
 800848e:	f000 fa9b 	bl	80089c8 <USBD_LL_StallEP>
 8008492:	4620      	mov	r0, r4
 8008494:	2100      	movs	r1, #0
 8008496:	e8bd 4010 	ldmia.w	sp!, {r4, lr}
 800849a:	f000 ba95 	b.w	80089c8 <USBD_LL_StallEP>
 800849e:	bf00      	nop

080084a0 <USBD_GetString>:
 80084a0:	b308      	cbz	r0, 80084e6 <USBD_GetString+0x46>
 80084a2:	7803      	ldrb	r3, [r0, #0]
 80084a4:	b470      	push	{r4, r5, r6}
 80084a6:	b1fb      	cbz	r3, 80084e8 <USBD_GetString+0x48>
 80084a8:	4604      	mov	r4, r0
 80084aa:	f1c0 0601 	rsb	r6, r0, #1
 80084ae:	19a3      	adds	r3, r4, r6
 80084b0:	f814 5f01 	ldrb.w	r5, [r4, #1]!
 80084b4:	b2db      	uxtb	r3, r3
 80084b6:	2d00      	cmp	r5, #0
 80084b8:	d1f9      	bne.n	80084ae <USBD_GetString+0xe>
 80084ba:	3301      	adds	r3, #1
 80084bc:	005b      	lsls	r3, r3, #1
 80084be:	2403      	movs	r4, #3
 80084c0:	8013      	strh	r3, [r2, #0]
 80084c2:	700b      	strb	r3, [r1, #0]
 80084c4:	704c      	strb	r4, [r1, #1]
 80084c6:	7804      	ldrb	r4, [r0, #0]
 80084c8:	b15c      	cbz	r4, 80084e2 <USBD_GetString+0x42>
 80084ca:	2302      	movs	r3, #2
 80084cc:	2500      	movs	r5, #0
 80084ce:	1c5a      	adds	r2, r3, #1
 80084d0:	b2d2      	uxtb	r2, r2
 80084d2:	54cc      	strb	r4, [r1, r3]
 80084d4:	548d      	strb	r5, [r1, r2]
 80084d6:	f810 4f01 	ldrb.w	r4, [r0, #1]!
 80084da:	3302      	adds	r3, #2
 80084dc:	b2db      	uxtb	r3, r3
 80084de:	2c00      	cmp	r4, #0
 80084e0:	d1f5      	bne.n	80084ce <USBD_GetString+0x2e>
 80084e2:	bc70      	pop	{r4, r5, r6}
 80084e4:	4770      	bx	lr
 80084e6:	4770      	bx	lr
 80084e8:	2302      	movs	r3, #2
 80084ea:	e7e8      	b.n	80084be <USBD_GetString+0x1e>

080084ec <USBD_CtlSendData>:
 80084ec:	b538      	push	{r3, r4, r5, lr}
 80084ee:	4613      	mov	r3, r2
 80084f0:	2502      	movs	r5, #2
 80084f2:	460a      	mov	r2, r1
 80084f4:	e9c0 3306 	strd	r3, r3, [r0, #24]
 80084f8:	f8c0 5294 	str.w	r5, [r0, #660]	; 0x294
 80084fc:	2100      	movs	r1, #0
 80084fe:	f000 faa1 	bl	8008a44 <USBD_LL_Transmit>
 8008502:	2000      	movs	r0, #0
 8008504:	bd38      	pop	{r3, r4, r5, pc}
 8008506:	bf00      	nop

08008508 <USBD_CtlContinueSendData>:
 8008508:	b508      	push	{r3, lr}
 800850a:	4613      	mov	r3, r2
 800850c:	460a      	mov	r2, r1
 800850e:	2100      	movs	r1, #0
 8008510:	f000 fa98 	bl	8008a44 <USBD_LL_Transmit>
 8008514:	2000      	movs	r0, #0
 8008516:	bd08      	pop	{r3, pc}

08008518 <USBD_CtlPrepareRx>:
 8008518:	b538      	push	{r3, r4, r5, lr}
 800851a:	4613      	mov	r3, r2
 800851c:	2503      	movs	r5, #3
 800851e:	460a      	mov	r2, r1
 8008520:	e9c0 3356 	strd	r3, r3, [r0, #344]	; 0x158
 8008524:	f8c0 5294 	str.w	r5, [r0, #660]	; 0x294
 8008528:	2100      	movs	r1, #0
 800852a:	f000 fa99 	bl	8008a60 <USBD_LL_PrepareReceive>
 800852e:	2000      	movs	r0, #0
 8008530:	bd38      	pop	{r3, r4, r5, pc}
 8008532:	bf00      	nop

08008534 <USBD_CtlContinueRx>:
 8008534:	b508      	push	{r3, lr}
 8008536:	4613      	mov	r3, r2
 8008538:	460a      	mov	r2, r1
 800853a:	2100      	movs	r1, #0
 800853c:	f000 fa90 	bl	8008a60 <USBD_LL_PrepareReceive>
 8008540:	2000      	movs	r0, #0
 8008542:	bd08      	pop	{r3, pc}

08008544 <USBD_CtlSendStatus>:
 8008544:	b508      	push	{r3, lr}
 8008546:	2104      	movs	r1, #4
 8008548:	2300      	movs	r3, #0
 800854a:	f8c0 1294 	str.w	r1, [r0, #660]	; 0x294
 800854e:	461a      	mov	r2, r3
 8008550:	4619      	mov	r1, r3
 8008552:	f000 fa77 	bl	8008a44 <USBD_LL_Transmit>
 8008556:	2000      	movs	r0, #0
 8008558:	bd08      	pop	{r3, pc}
 800855a:	bf00      	nop

0800855c <USBD_CtlReceiveStatus>:
 800855c:	b508      	push	{r3, lr}
 800855e:	2105      	movs	r1, #5
 8008560:	2300      	movs	r3, #0
 8008562:	f8c0 1294 	str.w	r1, [r0, #660]	; 0x294
 8008566:	461a      	mov	r2, r3
 8008568:	4619      	mov	r1, r3
 800856a:	f000 fa79 	bl	8008a60 <USBD_LL_PrepareReceive>
 800856e:	2000      	movs	r0, #0
 8008570:	bd08      	pop	{r3, pc}
 8008572:	bf00      	nop

08008574 <MX_USB_DEVICE_Init>:
 8008574:	b508      	push	{r3, lr}
 8008576:	4918      	ldr	r1, [pc, #96]	; (80085d8 <MX_USB_DEVICE_Init+0x64>)
 8008578:	4818      	ldr	r0, [pc, #96]	; (80085dc <MX_USB_DEVICE_Init+0x68>)
 800857a:	2200      	movs	r2, #0
 800857c:	f7ff fb7a 	bl	8007c74 <USBD_Init>
 8008580:	b970      	cbnz	r0, 80085a0 <MX_USB_DEVICE_Init+0x2c>
 8008582:	4917      	ldr	r1, [pc, #92]	; (80085e0 <MX_USB_DEVICE_Init+0x6c>)
 8008584:	4815      	ldr	r0, [pc, #84]	; (80085dc <MX_USB_DEVICE_Init+0x68>)
 8008586:	f7ff fb89 	bl	8007c9c <USBD_RegisterClass>
 800858a:	b988      	cbnz	r0, 80085b0 <MX_USB_DEVICE_Init+0x3c>
 800858c:	4915      	ldr	r1, [pc, #84]	; (80085e4 <MX_USB_DEVICE_Init+0x70>)
 800858e:	4813      	ldr	r0, [pc, #76]	; (80085dc <MX_USB_DEVICE_Init+0x68>)
 8008590:	f7ff fb68 	bl	8007c64 <USBD_AUDIO_RegisterInterface>
 8008594:	b9a0      	cbnz	r0, 80085c0 <MX_USB_DEVICE_Init+0x4c>
 8008596:	4811      	ldr	r0, [pc, #68]	; (80085dc <MX_USB_DEVICE_Init+0x68>)
 8008598:	f7ff fb9a 	bl	8007cd0 <USBD_Start>
 800859c:	b9b8      	cbnz	r0, 80085ce <MX_USB_DEVICE_Init+0x5a>
 800859e:	bd08      	pop	{r3, pc}
 80085a0:	f7fa fcc8 	bl	8002f34 <Error_Handler>
 80085a4:	490e      	ldr	r1, [pc, #56]	; (80085e0 <MX_USB_DEVICE_Init+0x6c>)
 80085a6:	480d      	ldr	r0, [pc, #52]	; (80085dc <MX_USB_DEVICE_Init+0x68>)
 80085a8:	f7ff fb78 	bl	8007c9c <USBD_RegisterClass>
 80085ac:	2800      	cmp	r0, #0
 80085ae:	d0ed      	beq.n	800858c <MX_USB_DEVICE_Init+0x18>
 80085b0:	f7fa fcc0 	bl	8002f34 <Error_Handler>
 80085b4:	490b      	ldr	r1, [pc, #44]	; (80085e4 <MX_USB_DEVICE_Init+0x70>)
 80085b6:	4809      	ldr	r0, [pc, #36]	; (80085dc <MX_USB_DEVICE_Init+0x68>)
 80085b8:	f7ff fb54 	bl	8007c64 <USBD_AUDIO_RegisterInterface>
 80085bc:	2800      	cmp	r0, #0
 80085be:	d0ea      	beq.n	8008596 <MX_USB_DEVICE_Init+0x22>
 80085c0:	f7fa fcb8 	bl	8002f34 <Error_Handler>
 80085c4:	4805      	ldr	r0, [pc, #20]	; (80085dc <MX_USB_DEVICE_Init+0x68>)
 80085c6:	f7ff fb83 	bl	8007cd0 <USBD_Start>
 80085ca:	2800      	cmp	r0, #0
 80085cc:	d0e7      	beq.n	800859e <MX_USB_DEVICE_Init+0x2a>
 80085ce:	e8bd 4008 	ldmia.w	sp!, {r3, lr}
 80085d2:	f7fa bcaf 	b.w	8002f34 <Error_Handler>
 80085d6:	bf00      	nop
 80085d8:	200000f8 	.word	0x200000f8
 80085dc:	20012bf8 	.word	0x20012bf8
 80085e0:	20000028 	.word	0x20000028
 80085e4:	200000dc 	.word	0x200000dc

080085e8 <AUDIO_DeInit_FS>:
 80085e8:	2000      	movs	r0, #0
 80085ea:	4770      	bx	lr

080085ec <AUDIO_VolumeCtl_FS>:
 80085ec:	2000      	movs	r0, #0
 80085ee:	4770      	bx	lr

080085f0 <AUDIO_GetState_FS>:
 80085f0:	2000      	movs	r0, #0
 80085f2:	4770      	bx	lr

080085f4 <AUDIO_PeriodicTC_FS>:
 80085f4:	b508      	push	{r3, lr}
 80085f6:	f7f8 ffa7 	bl	8001548 <AUDIO_OUT_Periodic>
 80085fa:	2000      	movs	r0, #0
 80085fc:	bd08      	pop	{r3, pc}
 80085fe:	bf00      	nop

08008600 <AUDIO_AudioCmd_FS>:
 8008600:	2a01      	cmp	r2, #1
 8008602:	d001      	beq.n	8008608 <AUDIO_AudioCmd_FS+0x8>
 8008604:	2000      	movs	r0, #0
 8008606:	4770      	bx	lr
 8008608:	b508      	push	{r3, lr}
 800860a:	0049      	lsls	r1, r1, #1
 800860c:	f7f8 ff72 	bl	80014f4 <AUDIO_OUT_Start>
 8008610:	2000      	movs	r0, #0
 8008612:	bd08      	pop	{r3, pc}

08008614 <AUDIO_Init_FS>:
 8008614:	b508      	push	{r3, lr}
 8008616:	f7f8 ff61 	bl	80014dc <AUDIO_Init>
 800861a:	2000      	movs	r0, #0
 800861c:	bd08      	pop	{r3, pc}
 800861e:	bf00      	nop

08008620 <AUDIO_MuteCtl_FS>:
 8008620:	2000      	movs	r0, #0
 8008622:	4770      	bx	lr

08008624 <USBD_FS_DeviceDescriptor>:
 8008624:	2312      	movs	r3, #18
 8008626:	4801      	ldr	r0, [pc, #4]	; (800862c <USBD_FS_DeviceDescriptor+0x8>)
 8008628:	800b      	strh	r3, [r1, #0]
 800862a:	4770      	bx	lr
 800862c:	20000114 	.word	0x20000114

08008630 <USBD_FS_LangIDStrDescriptor>:
 8008630:	2304      	movs	r3, #4
 8008632:	4801      	ldr	r0, [pc, #4]	; (8008638 <USBD_FS_LangIDStrDescriptor+0x8>)
 8008634:	800b      	strh	r3, [r1, #0]
 8008636:	4770      	bx	lr
 8008638:	20000128 	.word	0x20000128

0800863c <USBD_FS_ManufacturerStrDescriptor>:
 800863c:	b510      	push	{r4, lr}
 800863e:	4c04      	ldr	r4, [pc, #16]	; (8008650 <USBD_FS_ManufacturerStrDescriptor+0x14>)
 8008640:	4804      	ldr	r0, [pc, #16]	; (8008654 <USBD_FS_ManufacturerStrDescriptor+0x18>)
 8008642:	460a      	mov	r2, r1
 8008644:	4621      	mov	r1, r4
 8008646:	f7ff ff2b 	bl	80084a0 <USBD_GetString>
 800864a:	4620      	mov	r0, r4
 800864c:	bd10      	pop	{r4, pc}
 800864e:	bf00      	nop
 8008650:	20012ec8 	.word	0x20012ec8
 8008654:	08044e30 	.word	0x08044e30

08008658 <USBD_FS_ProductStrDescriptor>:
 8008658:	b510      	push	{r4, lr}
 800865a:	4c04      	ldr	r4, [pc, #16]	; (800866c <USBD_FS_ProductStrDescriptor+0x14>)
 800865c:	4804      	ldr	r0, [pc, #16]	; (8008670 <USBD_FS_ProductStrDescriptor+0x18>)
 800865e:	460a      	mov	r2, r1
 8008660:	4621      	mov	r1, r4
 8008662:	f7ff ff1d 	bl	80084a0 <USBD_GetString>
 8008666:	4620      	mov	r0, r4
 8008668:	bd10      	pop	{r4, pc}
 800866a:	bf00      	nop
 800866c:	20012ec8 	.word	0x20012ec8
 8008670:	08044e44 	.word	0x08044e44

08008674 <USBD_FS_ConfigStrDescriptor>:
 8008674:	b510      	push	{r4, lr}
 8008676:	4c04      	ldr	r4, [pc, #16]	; (8008688 <USBD_FS_ConfigStrDescriptor+0x14>)
 8008678:	4804      	ldr	r0, [pc, #16]	; (800868c <USBD_FS_ConfigStrDescriptor+0x18>)
 800867a:	460a      	mov	r2, r1
 800867c:	4621      	mov	r1, r4
 800867e:	f7ff ff0f 	bl	80084a0 <USBD_GetString>
 8008682:	4620      	mov	r0, r4
 8008684:	bd10      	pop	{r4, pc}
 8008686:	bf00      	nop
 8008688:	20012ec8 	.word	0x20012ec8
 800868c:	08044e58 	.word	0x08044e58

08008690 <USBD_FS_InterfaceStrDescriptor>:
 8008690:	b510      	push	{r4, lr}
 8008692:	4c04      	ldr	r4, [pc, #16]	; (80086a4 <USBD_FS_InterfaceStrDescriptor+0x14>)
 8008694:	4804      	ldr	r0, [pc, #16]	; (80086a8 <USBD_FS_InterfaceStrDescriptor+0x18>)
 8008696:	460a      	mov	r2, r1
 8008698:	4621      	mov	r1, r4
 800869a:	f7ff ff01 	bl	80084a0 <USBD_GetString>
 800869e:	4620      	mov	r0, r4
 80086a0:	bd10      	pop	{r4, pc}
 80086a2:	bf00      	nop
 80086a4:	20012ec8 	.word	0x20012ec8
 80086a8:	08044e68 	.word	0x08044e68

080086ac <USBD_FS_SerialStrDescriptor>:
 80086ac:	4a41      	ldr	r2, [pc, #260]	; (80087b4 <USBD_FS_SerialStrDescriptor+0x108>)
 80086ae:	4b42      	ldr	r3, [pc, #264]	; (80087b8 <USBD_FS_SerialStrDescriptor+0x10c>)
 80086b0:	6812      	ldr	r2, [r2, #0]
 80086b2:	681b      	ldr	r3, [r3, #0]
 80086b4:	201a      	movs	r0, #26
 80086b6:	18d3      	adds	r3, r2, r3
 80086b8:	8008      	strh	r0, [r1, #0]
 80086ba:	d101      	bne.n	80086c0 <USBD_FS_SerialStrDescriptor+0x14>
 80086bc:	483f      	ldr	r0, [pc, #252]	; (80087bc <USBD_FS_SerialStrDescriptor+0x110>)
 80086be:	4770      	bx	lr
 80086c0:	4a3f      	ldr	r2, [pc, #252]	; (80087c0 <USBD_FS_SerialStrDescriptor+0x114>)
 80086c2:	0f18      	lsrs	r0, r3, #28
 80086c4:	6811      	ldr	r1, [r2, #0]
 80086c6:	4a3d      	ldr	r2, [pc, #244]	; (80087bc <USBD_FS_SerialStrDescriptor+0x110>)
 80086c8:	f1b3 4f20 	cmp.w	r3, #2684354560	; 0xa0000000
 80086cc:	bf2c      	ite	cs
 80086ce:	3037      	addcs	r0, #55	; 0x37
 80086d0:	3030      	addcc	r0, #48	; 0x30
 80086d2:	b410      	push	{r4}
 80086d4:	7090      	strb	r0, [r2, #2]
 80086d6:	f3c3 6003 	ubfx	r0, r3, #24, #4
 80086da:	2809      	cmp	r0, #9
 80086dc:	bf8c      	ite	hi
 80086de:	3037      	addhi	r0, #55	; 0x37
 80086e0:	3030      	addls	r0, #48	; 0x30
 80086e2:	7110      	strb	r0, [r2, #4]
 80086e4:	f3c3 5003 	ubfx	r0, r3, #20, #4
 80086e8:	2809      	cmp	r0, #9
 80086ea:	bf8c      	ite	hi
 80086ec:	3037      	addhi	r0, #55	; 0x37
 80086ee:	3030      	addls	r0, #48	; 0x30
 80086f0:	7190      	strb	r0, [r2, #6]
 80086f2:	f3c3 4003 	ubfx	r0, r3, #16, #4
 80086f6:	2809      	cmp	r0, #9
 80086f8:	bf8c      	ite	hi
 80086fa:	3037      	addhi	r0, #55	; 0x37
 80086fc:	3030      	addls	r0, #48	; 0x30
 80086fe:	7210      	strb	r0, [r2, #8]
 8008700:	f3c3 3003 	ubfx	r0, r3, #12, #4
 8008704:	2809      	cmp	r0, #9
 8008706:	bf8c      	ite	hi
 8008708:	3037      	addhi	r0, #55	; 0x37
 800870a:	3030      	addls	r0, #48	; 0x30
 800870c:	7290      	strb	r0, [r2, #10]
 800870e:	f3c3 2003 	ubfx	r0, r3, #8, #4
 8008712:	2809      	cmp	r0, #9
 8008714:	bf8c      	ite	hi
 8008716:	3037      	addhi	r0, #55	; 0x37
 8008718:	3030      	addls	r0, #48	; 0x30
 800871a:	7310      	strb	r0, [r2, #12]
 800871c:	f3c3 1003 	ubfx	r0, r3, #4, #4
 8008720:	2809      	cmp	r0, #9
 8008722:	f003 030f 	and.w	r3, r3, #15
 8008726:	bf8c      	ite	hi
 8008728:	3037      	addhi	r0, #55	; 0x37
 800872a:	3030      	addls	r0, #48	; 0x30
 800872c:	2b09      	cmp	r3, #9
 800872e:	bf94      	ite	ls
 8008730:	3330      	addls	r3, #48	; 0x30
 8008732:	3337      	addhi	r3, #55	; 0x37
 8008734:	7413      	strb	r3, [r2, #16]
 8008736:	2300      	movs	r3, #0
 8008738:	f1b1 4f20 	cmp.w	r1, #2684354560	; 0xa0000000
 800873c:	7453      	strb	r3, [r2, #17]
 800873e:	ea4f 7311 	mov.w	r3, r1, lsr #28
 8008742:	bf2c      	ite	cs
 8008744:	3337      	addcs	r3, #55	; 0x37
 8008746:	3330      	addcc	r3, #48	; 0x30
 8008748:	7493      	strb	r3, [r2, #18]
 800874a:	f3c1 6303 	ubfx	r3, r1, #24, #4
 800874e:	2b09      	cmp	r3, #9
 8008750:	bf8c      	ite	hi
 8008752:	3337      	addhi	r3, #55	; 0x37
 8008754:	3330      	addls	r3, #48	; 0x30
 8008756:	7513      	strb	r3, [r2, #20]
 8008758:	f3c1 5303 	ubfx	r3, r1, #20, #4
 800875c:	2b09      	cmp	r3, #9
 800875e:	f04f 0400 	mov.w	r4, #0
 8008762:	bf8c      	ite	hi
 8008764:	3337      	addhi	r3, #55	; 0x37
 8008766:	3330      	addls	r3, #48	; 0x30
 8008768:	70d4      	strb	r4, [r2, #3]
 800876a:	2400      	movs	r4, #0
 800876c:	7154      	strb	r4, [r2, #5]
 800876e:	7593      	strb	r3, [r2, #22]
 8008770:	2400      	movs	r4, #0
 8008772:	f3c1 4303 	ubfx	r3, r1, #16, #4
 8008776:	2b09      	cmp	r3, #9
 8008778:	71d4      	strb	r4, [r2, #7]
 800877a:	7390      	strb	r0, [r2, #14]
 800877c:	f04f 0400 	mov.w	r4, #0
 8008780:	f04f 0000 	mov.w	r0, #0
 8008784:	7254      	strb	r4, [r2, #9]
 8008786:	73d0      	strb	r0, [r2, #15]
 8008788:	f04f 0400 	mov.w	r4, #0
 800878c:	f04f 0000 	mov.w	r0, #0
 8008790:	bf94      	ite	ls
 8008792:	3330      	addls	r3, #48	; 0x30
 8008794:	3337      	addhi	r3, #55	; 0x37
 8008796:	72d4      	strb	r4, [r2, #11]
 8008798:	74d0      	strb	r0, [r2, #19]
 800879a:	2400      	movs	r4, #0
 800879c:	2000      	movs	r0, #0
 800879e:	7613      	strb	r3, [r2, #24]
 80087a0:	2100      	movs	r1, #0
 80087a2:	2300      	movs	r3, #0
 80087a4:	7550      	strb	r0, [r2, #21]
 80087a6:	7354      	strb	r4, [r2, #13]
 80087a8:	75d1      	strb	r1, [r2, #23]
 80087aa:	7653      	strb	r3, [r2, #25]
 80087ac:	4803      	ldr	r0, [pc, #12]	; (80087bc <USBD_FS_SerialStrDescriptor+0x110>)
 80087ae:	f85d 4b04 	ldr.w	r4, [sp], #4
 80087b2:	4770      	bx	lr
 80087b4:	1fff7a10 	.word	0x1fff7a10
 80087b8:	1fff7a18 	.word	0x1fff7a18
 80087bc:	2000012c 	.word	0x2000012c
 80087c0:	1fff7a14 	.word	0x1fff7a14

080087c4 <HAL_PCD_MspInit>:
 80087c4:	b570      	push	{r4, r5, r6, lr}
 80087c6:	6803      	ldr	r3, [r0, #0]
 80087c8:	b088      	sub	sp, #32
 80087ca:	2400      	movs	r4, #0
 80087cc:	f1b3 4fa0 	cmp.w	r3, #1342177280	; 0x50000000
 80087d0:	e9cd 4402 	strd	r4, r4, [sp, #8]
 80087d4:	e9cd 4404 	strd	r4, r4, [sp, #16]
 80087d8:	9406      	str	r4, [sp, #24]
 80087da:	d001      	beq.n	80087e0 <HAL_PCD_MspInit+0x1c>
 80087dc:	b008      	add	sp, #32
 80087de:	bd70      	pop	{r4, r5, r6, pc}
 80087e0:	4d18      	ldr	r5, [pc, #96]	; (8008844 <HAL_PCD_MspInit+0x80>)
 80087e2:	9400      	str	r4, [sp, #0]
 80087e4:	6b2b      	ldr	r3, [r5, #48]	; 0x30
 80087e6:	4818      	ldr	r0, [pc, #96]	; (8008848 <HAL_PCD_MspInit+0x84>)
 80087e8:	f043 0301 	orr.w	r3, r3, #1
 80087ec:	632b      	str	r3, [r5, #48]	; 0x30
 80087ee:	6b2b      	ldr	r3, [r5, #48]	; 0x30
 80087f0:	f003 0301 	and.w	r3, r3, #1
 80087f4:	9300      	str	r3, [sp, #0]
 80087f6:	f44f 52c0 	mov.w	r2, #6144	; 0x1800
 80087fa:	2302      	movs	r3, #2
 80087fc:	e9cd 2302 	strd	r2, r3, [sp, #8]
 8008800:	2200      	movs	r2, #0
 8008802:	2303      	movs	r3, #3
 8008804:	e9cd 2304 	strd	r2, r3, [sp, #16]
 8008808:	a902      	add	r1, sp, #8
 800880a:	230a      	movs	r3, #10
 800880c:	9306      	str	r3, [sp, #24]
 800880e:	9e00      	ldr	r6, [sp, #0]
 8008810:	f7fb fd4a 	bl	80042a8 <HAL_GPIO_Init>
 8008814:	6b6b      	ldr	r3, [r5, #52]	; 0x34
 8008816:	f043 0380 	orr.w	r3, r3, #128	; 0x80
 800881a:	636b      	str	r3, [r5, #52]	; 0x34
 800881c:	9401      	str	r4, [sp, #4]
 800881e:	6c6b      	ldr	r3, [r5, #68]	; 0x44
 8008820:	f443 4380 	orr.w	r3, r3, #16384	; 0x4000
 8008824:	646b      	str	r3, [r5, #68]	; 0x44
 8008826:	6c6b      	ldr	r3, [r5, #68]	; 0x44
 8008828:	f403 4380 	and.w	r3, r3, #16384	; 0x4000
 800882c:	9301      	str	r3, [sp, #4]
 800882e:	4622      	mov	r2, r4
 8008830:	4621      	mov	r1, r4
 8008832:	2043      	movs	r0, #67	; 0x43
 8008834:	9b01      	ldr	r3, [sp, #4]
 8008836:	f7fb fb4d 	bl	8003ed4 <HAL_NVIC_SetPriority>
 800883a:	2043      	movs	r0, #67	; 0x43
 800883c:	f7fb fb82 	bl	8003f44 <HAL_NVIC_EnableIRQ>
 8008840:	b008      	add	sp, #32
 8008842:	bd70      	pop	{r4, r5, r6, pc}
 8008844:	40023800 	.word	0x40023800
 8008848:	40020000 	.word	0x40020000

0800884c <HAL_PCD_SetupStageCallback>:
 800884c:	f500 7171 	add.w	r1, r0, #964	; 0x3c4
 8008850:	f8d0 0404 	ldr.w	r0, [r0, #1028]	; 0x404
 8008854:	f7ff ba4e 	b.w	8007cf4 <USBD_LL_SetupStage>

08008858 <HAL_PCD_DataOutStageCallback>:
 8008858:	ebc1 03c1 	rsb	r3, r1, r1, lsl #3
 800885c:	eb00 0383 	add.w	r3, r0, r3, lsl #2
 8008860:	f8d0 0404 	ldr.w	r0, [r0, #1028]	; 0x404
 8008864:	f8d3 2208 	ldr.w	r2, [r3, #520]	; 0x208
 8008868:	f7ff ba74 	b.w	8007d54 <USBD_LL_DataOutStage>

0800886c <HAL_PCD_DataInStageCallback>:
 800886c:	ebc1 03c1 	rsb	r3, r1, r1, lsl #3
 8008870:	eb00 0383 	add.w	r3, r0, r3, lsl #2
 8008874:	f8d0 0404 	ldr.w	r0, [r0, #1028]	; 0x404
 8008878:	6c9a      	ldr	r2, [r3, #72]	; 0x48
 800887a:	f7ff ba9f 	b.w	8007dbc <USBD_LL_DataInStage>
 800887e:	bf00      	nop

08008880 <HAL_PCD_SOFCallback>:
 8008880:	f8d0 0404 	ldr.w	r0, [r0, #1028]	; 0x404
 8008884:	f7ff bb38 	b.w	8007ef8 <USBD_LL_SOF>

08008888 <HAL_PCD_ResetCallback>:
 8008888:	68c1      	ldr	r1, [r0, #12]
 800888a:	b510      	push	{r4, lr}
 800888c:	4604      	mov	r4, r0
 800888e:	b111      	cbz	r1, 8008896 <HAL_PCD_ResetCallback+0xe>
 8008890:	2902      	cmp	r1, #2
 8008892:	d10a      	bne.n	80088aa <HAL_PCD_ResetCallback+0x22>
 8008894:	2101      	movs	r1, #1
 8008896:	f8d4 0404 	ldr.w	r0, [r4, #1028]	; 0x404
 800889a:	f7ff fb11 	bl	8007ec0 <USBD_LL_SetSpeed>
 800889e:	f8d4 0404 	ldr.w	r0, [r4, #1028]	; 0x404
 80088a2:	e8bd 4010 	ldmia.w	sp!, {r4, lr}
 80088a6:	f7ff badf 	b.w	8007e68 <USBD_LL_Reset>
 80088aa:	f7fa fb43 	bl	8002f34 <Error_Handler>
 80088ae:	2101      	movs	r1, #1
 80088b0:	e7f1      	b.n	8008896 <HAL_PCD_ResetCallback+0xe>
 80088b2:	bf00      	nop

080088b4 <HAL_PCD_SuspendCallback>:
 80088b4:	b510      	push	{r4, lr}
 80088b6:	4604      	mov	r4, r0
 80088b8:	f8d0 0404 	ldr.w	r0, [r0, #1028]	; 0x404
 80088bc:	f7ff fb04 	bl	8007ec8 <USBD_LL_Suspend>
 80088c0:	6822      	ldr	r2, [r4, #0]
 80088c2:	f8d2 3e00 	ldr.w	r3, [r2, #3584]	; 0xe00
 80088c6:	f043 0301 	orr.w	r3, r3, #1
 80088ca:	f8c2 3e00 	str.w	r3, [r2, #3584]	; 0xe00
 80088ce:	6a23      	ldr	r3, [r4, #32]
 80088d0:	b123      	cbz	r3, 80088dc <HAL_PCD_SuspendCallback+0x28>
 80088d2:	4a03      	ldr	r2, [pc, #12]	; (80088e0 <HAL_PCD_SuspendCallback+0x2c>)
 80088d4:	6913      	ldr	r3, [r2, #16]
 80088d6:	f043 0306 	orr.w	r3, r3, #6
 80088da:	6113      	str	r3, [r2, #16]
 80088dc:	bd10      	pop	{r4, pc}
 80088de:	bf00      	nop
 80088e0:	e000ed00 	.word	0xe000ed00

080088e4 <HAL_PCD_ResumeCallback>:
 80088e4:	f8d0 0404 	ldr.w	r0, [r0, #1028]	; 0x404
 80088e8:	f7ff bafa 	b.w	8007ee0 <USBD_LL_Resume>

080088ec <HAL_PCD_ISOOUTIncompleteCallback>:
 80088ec:	f8d0 0404 	ldr.w	r0, [r0, #1028]	; 0x404
 80088f0:	f7ff bb2a 	b.w	8007f48 <USBD_LL_IsoOUTIncomplete>

080088f4 <HAL_PCD_ISOINIncompleteCallback>:
 80088f4:	f8d0 0404 	ldr.w	r0, [r0, #1028]	; 0x404
 80088f8:	f7ff bb12 	b.w	8007f20 <USBD_LL_IsoINIncomplete>

080088fc <HAL_PCD_ConnectCallback>:
 80088fc:	f8d0 0404 	ldr.w	r0, [r0, #1028]	; 0x404
 8008900:	f7ff bb36 	b.w	8007f70 <USBD_LL_DevConnected>

08008904 <HAL_PCD_DisconnectCallback>:
 8008904:	f8d0 0404 	ldr.w	r0, [r0, #1028]	; 0x404
 8008908:	f7ff bb34 	b.w	8007f74 <USBD_LL_DevDisconnected>

0800890c <USBD_LL_Init>:
 800890c:	7802      	ldrb	r2, [r0, #0]
 800890e:	b10a      	cbz	r2, 8008914 <USBD_LL_Init+0x8>
 8008910:	2000      	movs	r0, #0
 8008912:	4770      	bx	lr
 8008914:	b538      	push	{r3, r4, r5, lr}
 8008916:	4b15      	ldr	r3, [pc, #84]	; (800896c <USBD_LL_Init+0x60>)
 8008918:	2102      	movs	r1, #2
 800891a:	f8c3 0404 	str.w	r0, [r3, #1028]	; 0x404
 800891e:	f04f 45a0 	mov.w	r5, #1342177280	; 0x50000000
 8008922:	2404      	movs	r4, #4
 8008924:	f8c0 32c4 	str.w	r3, [r0, #708]	; 0x2c4
 8008928:	4618      	mov	r0, r3
 800892a:	e9c3 2207 	strd	r2, r2, [r3, #28]
 800892e:	e9c3 220b 	strd	r2, r2, [r3, #44]	; 0x2c
 8008932:	e9c3 5400 	strd	r5, r4, [r3]
 8008936:	611a      	str	r2, [r3, #16]
 8008938:	625a      	str	r2, [r3, #36]	; 0x24
 800893a:	60d9      	str	r1, [r3, #12]
 800893c:	6199      	str	r1, [r3, #24]
 800893e:	f7fb fff7 	bl	8004930 <HAL_PCD_Init>
 8008942:	b978      	cbnz	r0, 8008964 <USBD_LL_Init+0x58>
 8008944:	2180      	movs	r1, #128	; 0x80
 8008946:	4809      	ldr	r0, [pc, #36]	; (800896c <USBD_LL_Init+0x60>)
 8008948:	f7fc fd26 	bl	8005398 <HAL_PCDEx_SetRxFiFo>
 800894c:	2240      	movs	r2, #64	; 0x40
 800894e:	2100      	movs	r1, #0
 8008950:	4806      	ldr	r0, [pc, #24]	; (800896c <USBD_LL_Init+0x60>)
 8008952:	f7fc fcfd 	bl	8005350 <HAL_PCDEx_SetTxFiFo>
 8008956:	2280      	movs	r2, #128	; 0x80
 8008958:	2101      	movs	r1, #1
 800895a:	4804      	ldr	r0, [pc, #16]	; (800896c <USBD_LL_Init+0x60>)
 800895c:	f7fc fcf8 	bl	8005350 <HAL_PCDEx_SetTxFiFo>
 8008960:	2000      	movs	r0, #0
 8008962:	bd38      	pop	{r3, r4, r5, pc}
 8008964:	f7fa fae6 	bl	8002f34 <Error_Handler>
 8008968:	e7ec      	b.n	8008944 <USBD_LL_Init+0x38>
 800896a:	bf00      	nop
 800896c:	200130c8 	.word	0x200130c8

08008970 <USBD_LL_Start>:
 8008970:	b508      	push	{r3, lr}
 8008972:	f8d0 02c4 	ldr.w	r0, [r0, #708]	; 0x2c4
 8008976:	f7fc f867 	bl	8004a48 <HAL_PCD_Start>
 800897a:	2803      	cmp	r0, #3
 800897c:	bf96      	itet	ls
 800897e:	4b02      	ldrls	r3, [pc, #8]	; (8008988 <USBD_LL_Start+0x18>)
 8008980:	2003      	movhi	r0, #3
 8008982:	5c18      	ldrbls	r0, [r3, r0]
 8008984:	bd08      	pop	{r3, pc}
 8008986:	bf00      	nop
 8008988:	08044e78 	.word	0x08044e78

0800898c <USBD_LL_OpenEP>:
 800898c:	b510      	push	{r4, lr}
 800898e:	4614      	mov	r4, r2
 8008990:	f8d0 02c4 	ldr.w	r0, [r0, #708]	; 0x2c4
 8008994:	461a      	mov	r2, r3
 8008996:	4623      	mov	r3, r4
 8008998:	f7fc fba0 	bl	80050dc <HAL_PCD_EP_Open>
 800899c:	2803      	cmp	r0, #3
 800899e:	bf96      	itet	ls
 80089a0:	4b01      	ldrls	r3, [pc, #4]	; (80089a8 <USBD_LL_OpenEP+0x1c>)
 80089a2:	2003      	movhi	r0, #3
 80089a4:	5c18      	ldrbls	r0, [r3, r0]
 80089a6:	bd10      	pop	{r4, pc}
 80089a8:	08044e78 	.word	0x08044e78

080089ac <USBD_LL_CloseEP>:
 80089ac:	b508      	push	{r3, lr}
 80089ae:	f8d0 02c4 	ldr.w	r0, [r0, #708]	; 0x2c4
 80089b2:	f7fc fbc9 	bl	8005148 <HAL_PCD_EP_Close>
 80089b6:	2803      	cmp	r0, #3
 80089b8:	bf96      	itet	ls
 80089ba:	4b02      	ldrls	r3, [pc, #8]	; (80089c4 <USBD_LL_CloseEP+0x18>)
 80089bc:	2003      	movhi	r0, #3
 80089be:	5c18      	ldrbls	r0, [r3, r0]
 80089c0:	bd08      	pop	{r3, pc}
 80089c2:	bf00      	nop
 80089c4:	08044e78 	.word	0x08044e78

080089c8 <USBD_LL_StallEP>:
 80089c8:	b508      	push	{r3, lr}
 80089ca:	f8d0 02c4 	ldr.w	r0, [r0, #708]	; 0x2c4
 80089ce:	f7fc fc41 	bl	8005254 <HAL_PCD_EP_SetStall>
 80089d2:	2803      	cmp	r0, #3
 80089d4:	bf96      	itet	ls
 80089d6:	4b02      	ldrls	r3, [pc, #8]	; (80089e0 <USBD_LL_StallEP+0x18>)
 80089d8:	2003      	movhi	r0, #3
 80089da:	5c18      	ldrbls	r0, [r3, r0]
 80089dc:	bd08      	pop	{r3, pc}
 80089de:	bf00      	nop
 80089e0:	08044e78 	.word	0x08044e78

080089e4 <USBD_LL_ClearStallEP>:
 80089e4:	b508      	push	{r3, lr}
 80089e6:	f8d0 02c4 	ldr.w	r0, [r0, #708]	; 0x2c4
 80089ea:	f7fc fc77 	bl	80052dc <HAL_PCD_EP_ClrStall>
 80089ee:	2803      	cmp	r0, #3
 80089f0:	bf96      	itet	ls
 80089f2:	4b02      	ldrls	r3, [pc, #8]	; (80089fc <USBD_LL_ClearStallEP+0x18>)
 80089f4:	2003      	movhi	r0, #3
 80089f6:	5c18      	ldrbls	r0, [r3, r0]
 80089f8:	bd08      	pop	{r3, pc}
 80089fa:	bf00      	nop
 80089fc:	08044e78 	.word	0x08044e78

08008a00 <USBD_LL_IsStallEP>:
 8008a00:	060a      	lsls	r2, r1, #24
 8008a02:	f8d0 32c4 	ldr.w	r3, [r0, #708]	; 0x2c4
 8008a06:	d406      	bmi.n	8008a16 <USBD_LL_IsStallEP+0x16>
 8008a08:	ebc1 01c1 	rsb	r1, r1, r1, lsl #3
 8008a0c:	eb03 0181 	add.w	r1, r3, r1, lsl #2
 8008a10:	f891 01fe 	ldrb.w	r0, [r1, #510]	; 0x1fe
 8008a14:	4770      	bx	lr
 8008a16:	f001 017f 	and.w	r1, r1, #127	; 0x7f
 8008a1a:	ebc1 01c1 	rsb	r1, r1, r1, lsl #3
 8008a1e:	eb03 0181 	add.w	r1, r3, r1, lsl #2
 8008a22:	f891 003e 	ldrb.w	r0, [r1, #62]	; 0x3e
 8008a26:	4770      	bx	lr

08008a28 <USBD_LL_SetUSBAddress>:
 8008a28:	b508      	push	{r3, lr}
 8008a2a:	f8d0 02c4 	ldr.w	r0, [r0, #708]	; 0x2c4
 8008a2e:	f7fc fb41 	bl	80050b4 <HAL_PCD_SetAddress>
 8008a32:	2803      	cmp	r0, #3
 8008a34:	bf96      	itet	ls
 8008a36:	4b02      	ldrls	r3, [pc, #8]	; (8008a40 <USBD_LL_SetUSBAddress+0x18>)
 8008a38:	2003      	movhi	r0, #3
 8008a3a:	5c18      	ldrbls	r0, [r3, r0]
 8008a3c:	bd08      	pop	{r3, pc}
 8008a3e:	bf00      	nop
 8008a40:	08044e78 	.word	0x08044e78

08008a44 <USBD_LL_Transmit>:
 8008a44:	b508      	push	{r3, lr}
 8008a46:	f8d0 02c4 	ldr.w	r0, [r0, #708]	; 0x2c4
 8008a4a:	f7fc fbdf 	bl	800520c <HAL_PCD_EP_Transmit>
 8008a4e:	2803      	cmp	r0, #3
 8008a50:	bf96      	itet	ls
 8008a52:	4b02      	ldrls	r3, [pc, #8]	; (8008a5c <USBD_LL_Transmit+0x18>)
 8008a54:	2003      	movhi	r0, #3
 8008a56:	5c18      	ldrbls	r0, [r3, r0]
 8008a58:	bd08      	pop	{r3, pc}
 8008a5a:	bf00      	nop
 8008a5c:	08044e78 	.word	0x08044e78

08008a60 <USBD_LL_PrepareReceive>:
 8008a60:	b508      	push	{r3, lr}
 8008a62:	f8d0 02c4 	ldr.w	r0, [r0, #708]	; 0x2c4
 8008a66:	f7fc fb9f 	bl	80051a8 <HAL_PCD_EP_Receive>
 8008a6a:	2803      	cmp	r0, #3
 8008a6c:	bf96      	itet	ls
 8008a6e:	4b02      	ldrls	r3, [pc, #8]	; (8008a78 <USBD_LL_PrepareReceive+0x18>)
 8008a70:	2003      	movhi	r0, #3
 8008a72:	5c18      	ldrbls	r0, [r3, r0]
 8008a74:	bd08      	pop	{r3, pc}
 8008a76:	bf00      	nop
 8008a78:	08044e78 	.word	0x08044e78

08008a7c <USBD_LL_GetRxDataSize>:
 8008a7c:	f8d0 02c4 	ldr.w	r0, [r0, #708]	; 0x2c4
 8008a80:	f7fc bbba 	b.w	80051f8 <HAL_PCD_EP_GetRxCount>

08008a84 <USBD_static_malloc>:
 8008a84:	4800      	ldr	r0, [pc, #0]	; (8008a88 <USBD_static_malloc+0x4>)
 8008a86:	4770      	bx	lr
 8008a88:	20000370 	.word	0x20000370

08008a8c <USBD_static_free>:
 8008a8c:	4770      	bx	lr
 8008a8e:	bf00      	nop

08008a90 <__errno>:
 8008a90:	4b01      	ldr	r3, [pc, #4]	; (8008a98 <__errno+0x8>)
 8008a92:	6818      	ldr	r0, [r3, #0]
 8008a94:	4770      	bx	lr
 8008a96:	bf00      	nop
 8008a98:	20000148 	.word	0x20000148

08008a9c <__libc_init_array>:
 8008a9c:	b570      	push	{r4, r5, r6, lr}
 8008a9e:	4d0d      	ldr	r5, [pc, #52]	; (8008ad4 <__libc_init_array+0x38>)
 8008aa0:	4c0d      	ldr	r4, [pc, #52]	; (8008ad8 <__libc_init_array+0x3c>)
 8008aa2:	1b64      	subs	r4, r4, r5
 8008aa4:	10a4      	asrs	r4, r4, #2
 8008aa6:	2600      	movs	r6, #0
 8008aa8:	42a6      	cmp	r6, r4
 8008aaa:	d109      	bne.n	8008ac0 <__libc_init_array+0x24>
 8008aac:	4d0b      	ldr	r5, [pc, #44]	; (8008adc <__libc_init_array+0x40>)
 8008aae:	4c0c      	ldr	r4, [pc, #48]	; (8008ae0 <__libc_init_array+0x44>)
 8008ab0:	f003 feca 	bl	800c848 <_init>
 8008ab4:	1b64      	subs	r4, r4, r5
 8008ab6:	10a4      	asrs	r4, r4, #2
 8008ab8:	2600      	movs	r6, #0
 8008aba:	42a6      	cmp	r6, r4
 8008abc:	d105      	bne.n	8008aca <__libc_init_array+0x2e>
 8008abe:	bd70      	pop	{r4, r5, r6, pc}
 8008ac0:	f855 3b04 	ldr.w	r3, [r5], #4
 8008ac4:	4798      	blx	r3
 8008ac6:	3601      	adds	r6, #1
 8008ac8:	e7ee      	b.n	8008aa8 <__libc_init_array+0xc>
 8008aca:	f855 3b04 	ldr.w	r3, [r5], #4
 8008ace:	4798      	blx	r3
 8008ad0:	3601      	adds	r6, #1
 8008ad2:	e7f2      	b.n	8008aba <__libc_init_array+0x1e>
 8008ad4:	0804564c 	.word	0x0804564c
 8008ad8:	0804564c 	.word	0x0804564c
 8008adc:	0804564c 	.word	0x0804564c
 8008ae0:	08045650 	.word	0x08045650

08008ae4 <memcpy>:
 8008ae4:	440a      	add	r2, r1
 8008ae6:	4291      	cmp	r1, r2
 8008ae8:	f100 33ff 	add.w	r3, r0, #4294967295	; 0xffffffff
 8008aec:	d100      	bne.n	8008af0 <memcpy+0xc>
 8008aee:	4770      	bx	lr
 8008af0:	b510      	push	{r4, lr}
 8008af2:	f811 4b01 	ldrb.w	r4, [r1], #1
 8008af6:	f803 4f01 	strb.w	r4, [r3, #1]!
 8008afa:	4291      	cmp	r1, r2
 8008afc:	d1f9      	bne.n	8008af2 <memcpy+0xe>
 8008afe:	bd10      	pop	{r4, pc}

08008b00 <memset>:
 8008b00:	4402      	add	r2, r0
 8008b02:	4603      	mov	r3, r0
 8008b04:	4293      	cmp	r3, r2
 8008b06:	d100      	bne.n	8008b0a <memset+0xa>
 8008b08:	4770      	bx	lr
 8008b0a:	f803 1b01 	strb.w	r1, [r3], #1
 8008b0e:	e7f9      	b.n	8008b04 <memset+0x4>

08008b10 <__cvt>:
 8008b10:	e92d 47ff 	stmdb	sp!, {r0, r1, r2, r3, r4, r5, r6, r7, r8, r9, sl, lr}
 8008b14:	ec55 4b10 	vmov	r4, r5, d0
 8008b18:	2d00      	cmp	r5, #0
 8008b1a:	460e      	mov	r6, r1
 8008b1c:	4619      	mov	r1, r3
 8008b1e:	462b      	mov	r3, r5
 8008b20:	bfbb      	ittet	lt
 8008b22:	f105 4300 	addlt.w	r3, r5, #2147483648	; 0x80000000
 8008b26:	461d      	movlt	r5, r3
 8008b28:	2300      	movge	r3, #0
 8008b2a:	232d      	movlt	r3, #45	; 0x2d
 8008b2c:	700b      	strb	r3, [r1, #0]
 8008b2e:	9b0d      	ldr	r3, [sp, #52]	; 0x34
 8008b30:	f8dd a030 	ldr.w	sl, [sp, #48]	; 0x30
 8008b34:	4691      	mov	r9, r2
 8008b36:	f023 0820 	bic.w	r8, r3, #32
 8008b3a:	bfbc      	itt	lt
 8008b3c:	4622      	movlt	r2, r4
 8008b3e:	4614      	movlt	r4, r2
 8008b40:	f1b8 0f46 	cmp.w	r8, #70	; 0x46
 8008b44:	d005      	beq.n	8008b52 <__cvt+0x42>
 8008b46:	f1b8 0f45 	cmp.w	r8, #69	; 0x45
 8008b4a:	d100      	bne.n	8008b4e <__cvt+0x3e>
 8008b4c:	3601      	adds	r6, #1
 8008b4e:	2102      	movs	r1, #2
 8008b50:	e000      	b.n	8008b54 <__cvt+0x44>
 8008b52:	2103      	movs	r1, #3
 8008b54:	ab03      	add	r3, sp, #12
 8008b56:	9301      	str	r3, [sp, #4]
 8008b58:	ab02      	add	r3, sp, #8
 8008b5a:	9300      	str	r3, [sp, #0]
 8008b5c:	ec45 4b10 	vmov	d0, r4, r5
 8008b60:	4653      	mov	r3, sl
 8008b62:	4632      	mov	r2, r6
 8008b64:	f000 fe18 	bl	8009798 <_dtoa_r>
 8008b68:	f1b8 0f47 	cmp.w	r8, #71	; 0x47
 8008b6c:	4607      	mov	r7, r0
 8008b6e:	d102      	bne.n	8008b76 <__cvt+0x66>
 8008b70:	f019 0f01 	tst.w	r9, #1
 8008b74:	d022      	beq.n	8008bbc <__cvt+0xac>
 8008b76:	f1b8 0f46 	cmp.w	r8, #70	; 0x46
 8008b7a:	eb07 0906 	add.w	r9, r7, r6
 8008b7e:	d110      	bne.n	8008ba2 <__cvt+0x92>
 8008b80:	783b      	ldrb	r3, [r7, #0]
 8008b82:	2b30      	cmp	r3, #48	; 0x30
 8008b84:	d10a      	bne.n	8008b9c <__cvt+0x8c>
 8008b86:	2200      	movs	r2, #0
 8008b88:	2300      	movs	r3, #0
 8008b8a:	4620      	mov	r0, r4
 8008b8c:	4629      	mov	r1, r5
 8008b8e:	f7f7 ffa3 	bl	8000ad8 <__aeabi_dcmpeq>
 8008b92:	b918      	cbnz	r0, 8008b9c <__cvt+0x8c>
 8008b94:	f1c6 0601 	rsb	r6, r6, #1
 8008b98:	f8ca 6000 	str.w	r6, [sl]
 8008b9c:	f8da 3000 	ldr.w	r3, [sl]
 8008ba0:	4499      	add	r9, r3
 8008ba2:	2200      	movs	r2, #0
 8008ba4:	2300      	movs	r3, #0
 8008ba6:	4620      	mov	r0, r4
 8008ba8:	4629      	mov	r1, r5
 8008baa:	f7f7 ff95 	bl	8000ad8 <__aeabi_dcmpeq>
 8008bae:	b108      	cbz	r0, 8008bb4 <__cvt+0xa4>
 8008bb0:	f8cd 900c 	str.w	r9, [sp, #12]
 8008bb4:	2230      	movs	r2, #48	; 0x30
 8008bb6:	9b03      	ldr	r3, [sp, #12]
 8008bb8:	454b      	cmp	r3, r9
 8008bba:	d307      	bcc.n	8008bcc <__cvt+0xbc>
 8008bbc:	9b03      	ldr	r3, [sp, #12]
 8008bbe:	9a0e      	ldr	r2, [sp, #56]	; 0x38
 8008bc0:	1bdb      	subs	r3, r3, r7
 8008bc2:	4638      	mov	r0, r7
 8008bc4:	6013      	str	r3, [r2, #0]
 8008bc6:	b004      	add	sp, #16
 8008bc8:	e8bd 87f0 	ldmia.w	sp!, {r4, r5, r6, r7, r8, r9, sl, pc}
 8008bcc:	1c59      	adds	r1, r3, #1
 8008bce:	9103      	str	r1, [sp, #12]
 8008bd0:	701a      	strb	r2, [r3, #0]
 8008bd2:	e7f0      	b.n	8008bb6 <__cvt+0xa6>

08008bd4 <__exponent>:
 8008bd4:	b5f7      	push	{r0, r1, r2, r4, r5, r6, r7, lr}
 8008bd6:	4603      	mov	r3, r0
 8008bd8:	2900      	cmp	r1, #0
 8008bda:	bfb8      	it	lt
 8008bdc:	4249      	neglt	r1, r1
 8008bde:	f803 2b02 	strb.w	r2, [r3], #2
 8008be2:	bfb4      	ite	lt
 8008be4:	222d      	movlt	r2, #45	; 0x2d
 8008be6:	222b      	movge	r2, #43	; 0x2b
 8008be8:	2909      	cmp	r1, #9
 8008bea:	7042      	strb	r2, [r0, #1]
 8008bec:	dd2a      	ble.n	8008c44 <__exponent+0x70>
 8008bee:	f10d 0407 	add.w	r4, sp, #7
 8008bf2:	46a4      	mov	ip, r4
 8008bf4:	270a      	movs	r7, #10
 8008bf6:	46a6      	mov	lr, r4
 8008bf8:	460a      	mov	r2, r1
 8008bfa:	fb91 f6f7 	sdiv	r6, r1, r7
 8008bfe:	fb07 1516 	mls	r5, r7, r6, r1
 8008c02:	3530      	adds	r5, #48	; 0x30
 8008c04:	2a63      	cmp	r2, #99	; 0x63
 8008c06:	f104 34ff 	add.w	r4, r4, #4294967295	; 0xffffffff
 8008c0a:	f80e 5c01 	strb.w	r5, [lr, #-1]
 8008c0e:	4631      	mov	r1, r6
 8008c10:	dcf1      	bgt.n	8008bf6 <__exponent+0x22>
 8008c12:	3130      	adds	r1, #48	; 0x30
 8008c14:	f1ae 0502 	sub.w	r5, lr, #2
 8008c18:	f804 1c01 	strb.w	r1, [r4, #-1]
 8008c1c:	1c44      	adds	r4, r0, #1
 8008c1e:	4629      	mov	r1, r5
 8008c20:	4561      	cmp	r1, ip
 8008c22:	d30a      	bcc.n	8008c3a <__exponent+0x66>
 8008c24:	f10d 0209 	add.w	r2, sp, #9
 8008c28:	eba2 020e 	sub.w	r2, r2, lr
 8008c2c:	4565      	cmp	r5, ip
 8008c2e:	bf88      	it	hi
 8008c30:	2200      	movhi	r2, #0
 8008c32:	4413      	add	r3, r2
 8008c34:	1a18      	subs	r0, r3, r0
 8008c36:	b003      	add	sp, #12
 8008c38:	bdf0      	pop	{r4, r5, r6, r7, pc}
 8008c3a:	f811 2b01 	ldrb.w	r2, [r1], #1
 8008c3e:	f804 2f01 	strb.w	r2, [r4, #1]!
 8008c42:	e7ed      	b.n	8008c20 <__exponent+0x4c>
 8008c44:	2330      	movs	r3, #48	; 0x30
 8008c46:	3130      	adds	r1, #48	; 0x30
 8008c48:	7083      	strb	r3, [r0, #2]
 8008c4a:	70c1      	strb	r1, [r0, #3]
 8008c4c:	1d03      	adds	r3, r0, #4
 8008c4e:	e7f1      	b.n	8008c34 <__exponent+0x60>

08008c50 <_printf_float>:
 8008c50:	e92d 4ff0 	stmdb	sp!, {r4, r5, r6, r7, r8, r9, sl, fp, lr}
 8008c54:	ed2d 8b02 	vpush	{d8}
 8008c58:	b08d      	sub	sp, #52	; 0x34
 8008c5a:	460c      	mov	r4, r1
 8008c5c:	f8dd 8060 	ldr.w	r8, [sp, #96]	; 0x60
 8008c60:	4616      	mov	r6, r2
 8008c62:	461f      	mov	r7, r3
 8008c64:	4605      	mov	r5, r0
 8008c66:	f001 fd3b 	bl	800a6e0 <_localeconv_r>
 8008c6a:	f8d0 a000 	ldr.w	sl, [r0]
 8008c6e:	4650      	mov	r0, sl
 8008c70:	f7f7 fab6 	bl	80001e0 <strlen>
 8008c74:	2300      	movs	r3, #0
 8008c76:	930a      	str	r3, [sp, #40]	; 0x28
 8008c78:	6823      	ldr	r3, [r4, #0]
 8008c7a:	9305      	str	r3, [sp, #20]
 8008c7c:	f8d8 3000 	ldr.w	r3, [r8]
 8008c80:	f894 b018 	ldrb.w	fp, [r4, #24]
 8008c84:	3307      	adds	r3, #7
 8008c86:	f023 0307 	bic.w	r3, r3, #7
 8008c8a:	f103 0208 	add.w	r2, r3, #8
 8008c8e:	f8c8 2000 	str.w	r2, [r8]
 8008c92:	e9d3 2300 	ldrd	r2, r3, [r3]
 8008c96:	e9c4 2312 	strd	r2, r3, [r4, #72]	; 0x48
 8008c9a:	e9d4 8912 	ldrd	r8, r9, [r4, #72]	; 0x48
 8008c9e:	f029 4300 	bic.w	r3, r9, #2147483648	; 0x80000000
 8008ca2:	9307      	str	r3, [sp, #28]
 8008ca4:	f8cd 8018 	str.w	r8, [sp, #24]
 8008ca8:	ee08 0a10 	vmov	s16, r0
 8008cac:	4b9f      	ldr	r3, [pc, #636]	; (8008f2c <_printf_float+0x2dc>)
 8008cae:	e9dd 0106 	ldrd	r0, r1, [sp, #24]
 8008cb2:	f04f 32ff 	mov.w	r2, #4294967295	; 0xffffffff
 8008cb6:	f7f7 ff41 	bl	8000b3c <__aeabi_dcmpun>
 8008cba:	bb88      	cbnz	r0, 8008d20 <_printf_float+0xd0>
 8008cbc:	e9dd 0106 	ldrd	r0, r1, [sp, #24]
 8008cc0:	4b9a      	ldr	r3, [pc, #616]	; (8008f2c <_printf_float+0x2dc>)
 8008cc2:	f04f 32ff 	mov.w	r2, #4294967295	; 0xffffffff
 8008cc6:	f7f7 ff1b 	bl	8000b00 <__aeabi_dcmple>
 8008cca:	bb48      	cbnz	r0, 8008d20 <_printf_float+0xd0>
 8008ccc:	2200      	movs	r2, #0
 8008cce:	2300      	movs	r3, #0
 8008cd0:	4640      	mov	r0, r8
 8008cd2:	4649      	mov	r1, r9
 8008cd4:	f7f7 ff0a 	bl	8000aec <__aeabi_dcmplt>
 8008cd8:	b110      	cbz	r0, 8008ce0 <_printf_float+0x90>
 8008cda:	232d      	movs	r3, #45	; 0x2d
 8008cdc:	f884 3043 	strb.w	r3, [r4, #67]	; 0x43
 8008ce0:	4b93      	ldr	r3, [pc, #588]	; (8008f30 <_printf_float+0x2e0>)
 8008ce2:	4894      	ldr	r0, [pc, #592]	; (8008f34 <_printf_float+0x2e4>)
 8008ce4:	f1bb 0f47 	cmp.w	fp, #71	; 0x47
 8008ce8:	bf94      	ite	ls
 8008cea:	4698      	movls	r8, r3
 8008cec:	4680      	movhi	r8, r0
 8008cee:	2303      	movs	r3, #3
 8008cf0:	6123      	str	r3, [r4, #16]
 8008cf2:	9b05      	ldr	r3, [sp, #20]
 8008cf4:	f023 0204 	bic.w	r2, r3, #4
 8008cf8:	6022      	str	r2, [r4, #0]
 8008cfa:	f04f 0900 	mov.w	r9, #0
 8008cfe:	9700      	str	r7, [sp, #0]
 8008d00:	4633      	mov	r3, r6
 8008d02:	aa0b      	add	r2, sp, #44	; 0x2c
 8008d04:	4621      	mov	r1, r4
 8008d06:	4628      	mov	r0, r5
 8008d08:	f000 f9d8 	bl	80090bc <_printf_common>
 8008d0c:	3001      	adds	r0, #1
 8008d0e:	f040 8090 	bne.w	8008e32 <_printf_float+0x1e2>
 8008d12:	f04f 30ff 	mov.w	r0, #4294967295	; 0xffffffff
 8008d16:	b00d      	add	sp, #52	; 0x34
 8008d18:	ecbd 8b02 	vpop	{d8}
 8008d1c:	e8bd 8ff0 	ldmia.w	sp!, {r4, r5, r6, r7, r8, r9, sl, fp, pc}
 8008d20:	4642      	mov	r2, r8
 8008d22:	464b      	mov	r3, r9
 8008d24:	4640      	mov	r0, r8
 8008d26:	4649      	mov	r1, r9
 8008d28:	f7f7 ff08 	bl	8000b3c <__aeabi_dcmpun>
 8008d2c:	b140      	cbz	r0, 8008d40 <_printf_float+0xf0>
 8008d2e:	464b      	mov	r3, r9
 8008d30:	2b00      	cmp	r3, #0
 8008d32:	bfbc      	itt	lt
 8008d34:	232d      	movlt	r3, #45	; 0x2d
 8008d36:	f884 3043 	strblt.w	r3, [r4, #67]	; 0x43
 8008d3a:	487f      	ldr	r0, [pc, #508]	; (8008f38 <_printf_float+0x2e8>)
 8008d3c:	4b7f      	ldr	r3, [pc, #508]	; (8008f3c <_printf_float+0x2ec>)
 8008d3e:	e7d1      	b.n	8008ce4 <_printf_float+0x94>
 8008d40:	6863      	ldr	r3, [r4, #4]
 8008d42:	f00b 02df 	and.w	r2, fp, #223	; 0xdf
 8008d46:	9206      	str	r2, [sp, #24]
 8008d48:	1c5a      	adds	r2, r3, #1
 8008d4a:	d13f      	bne.n	8008dcc <_printf_float+0x17c>
 8008d4c:	2306      	movs	r3, #6
 8008d4e:	6063      	str	r3, [r4, #4]
 8008d50:	9b05      	ldr	r3, [sp, #20]
 8008d52:	6861      	ldr	r1, [r4, #4]
 8008d54:	f443 6280 	orr.w	r2, r3, #1024	; 0x400
 8008d58:	2300      	movs	r3, #0
 8008d5a:	9303      	str	r3, [sp, #12]
 8008d5c:	ab0a      	add	r3, sp, #40	; 0x28
 8008d5e:	e9cd b301 	strd	fp, r3, [sp, #4]
 8008d62:	ab09      	add	r3, sp, #36	; 0x24
 8008d64:	ec49 8b10 	vmov	d0, r8, r9
 8008d68:	9300      	str	r3, [sp, #0]
 8008d6a:	6022      	str	r2, [r4, #0]
 8008d6c:	f10d 0323 	add.w	r3, sp, #35	; 0x23
 8008d70:	4628      	mov	r0, r5
 8008d72:	f7ff fecd 	bl	8008b10 <__cvt>
 8008d76:	9b06      	ldr	r3, [sp, #24]
 8008d78:	9909      	ldr	r1, [sp, #36]	; 0x24
 8008d7a:	2b47      	cmp	r3, #71	; 0x47
 8008d7c:	4680      	mov	r8, r0
 8008d7e:	d108      	bne.n	8008d92 <_printf_float+0x142>
 8008d80:	1cc8      	adds	r0, r1, #3
 8008d82:	db02      	blt.n	8008d8a <_printf_float+0x13a>
 8008d84:	6863      	ldr	r3, [r4, #4]
 8008d86:	4299      	cmp	r1, r3
 8008d88:	dd41      	ble.n	8008e0e <_printf_float+0x1be>
 8008d8a:	f1ab 0b02 	sub.w	fp, fp, #2
 8008d8e:	fa5f fb8b 	uxtb.w	fp, fp
 8008d92:	f1bb 0f65 	cmp.w	fp, #101	; 0x65
 8008d96:	d820      	bhi.n	8008dda <_printf_float+0x18a>
 8008d98:	3901      	subs	r1, #1
 8008d9a:	465a      	mov	r2, fp
 8008d9c:	f104 0050 	add.w	r0, r4, #80	; 0x50
 8008da0:	9109      	str	r1, [sp, #36]	; 0x24
 8008da2:	f7ff ff17 	bl	8008bd4 <__exponent>
 8008da6:	9a0a      	ldr	r2, [sp, #40]	; 0x28
 8008da8:	1813      	adds	r3, r2, r0
 8008daa:	2a01      	cmp	r2, #1
 8008dac:	4681      	mov	r9, r0
 8008dae:	6123      	str	r3, [r4, #16]
 8008db0:	dc02      	bgt.n	8008db8 <_printf_float+0x168>
 8008db2:	6822      	ldr	r2, [r4, #0]
 8008db4:	07d2      	lsls	r2, r2, #31
 8008db6:	d501      	bpl.n	8008dbc <_printf_float+0x16c>
 8008db8:	3301      	adds	r3, #1
 8008dba:	6123      	str	r3, [r4, #16]
 8008dbc:	f89d 3023 	ldrb.w	r3, [sp, #35]	; 0x23
 8008dc0:	2b00      	cmp	r3, #0
 8008dc2:	d09c      	beq.n	8008cfe <_printf_float+0xae>
 8008dc4:	232d      	movs	r3, #45	; 0x2d
 8008dc6:	f884 3043 	strb.w	r3, [r4, #67]	; 0x43
 8008dca:	e798      	b.n	8008cfe <_printf_float+0xae>
 8008dcc:	9a06      	ldr	r2, [sp, #24]
 8008dce:	2a47      	cmp	r2, #71	; 0x47
 8008dd0:	d1be      	bne.n	8008d50 <_printf_float+0x100>
 8008dd2:	2b00      	cmp	r3, #0
 8008dd4:	d1bc      	bne.n	8008d50 <_printf_float+0x100>
 8008dd6:	2301      	movs	r3, #1
 8008dd8:	e7b9      	b.n	8008d4e <_printf_float+0xfe>
 8008dda:	f1bb 0f66 	cmp.w	fp, #102	; 0x66
 8008dde:	d118      	bne.n	8008e12 <_printf_float+0x1c2>
 8008de0:	2900      	cmp	r1, #0
 8008de2:	6863      	ldr	r3, [r4, #4]
 8008de4:	dd0b      	ble.n	8008dfe <_printf_float+0x1ae>
 8008de6:	6121      	str	r1, [r4, #16]
 8008de8:	b913      	cbnz	r3, 8008df0 <_printf_float+0x1a0>
 8008dea:	6822      	ldr	r2, [r4, #0]
 8008dec:	07d0      	lsls	r0, r2, #31
 8008dee:	d502      	bpl.n	8008df6 <_printf_float+0x1a6>
 8008df0:	3301      	adds	r3, #1
 8008df2:	440b      	add	r3, r1
 8008df4:	6123      	str	r3, [r4, #16]
 8008df6:	65a1      	str	r1, [r4, #88]	; 0x58
 8008df8:	f04f 0900 	mov.w	r9, #0
 8008dfc:	e7de      	b.n	8008dbc <_printf_float+0x16c>
 8008dfe:	b913      	cbnz	r3, 8008e06 <_printf_float+0x1b6>
 8008e00:	6822      	ldr	r2, [r4, #0]
 8008e02:	07d2      	lsls	r2, r2, #31
 8008e04:	d501      	bpl.n	8008e0a <_printf_float+0x1ba>
 8008e06:	3302      	adds	r3, #2
 8008e08:	e7f4      	b.n	8008df4 <_printf_float+0x1a4>
 8008e0a:	2301      	movs	r3, #1
 8008e0c:	e7f2      	b.n	8008df4 <_printf_float+0x1a4>
 8008e0e:	f04f 0b67 	mov.w	fp, #103	; 0x67
 8008e12:	9b0a      	ldr	r3, [sp, #40]	; 0x28
 8008e14:	4299      	cmp	r1, r3
 8008e16:	db05      	blt.n	8008e24 <_printf_float+0x1d4>
 8008e18:	6823      	ldr	r3, [r4, #0]
 8008e1a:	6121      	str	r1, [r4, #16]
 8008e1c:	07d8      	lsls	r0, r3, #31
 8008e1e:	d5ea      	bpl.n	8008df6 <_printf_float+0x1a6>
 8008e20:	1c4b      	adds	r3, r1, #1
 8008e22:	e7e7      	b.n	8008df4 <_printf_float+0x1a4>
 8008e24:	2900      	cmp	r1, #0
 8008e26:	bfd4      	ite	le
 8008e28:	f1c1 0202 	rsble	r2, r1, #2
 8008e2c:	2201      	movgt	r2, #1
 8008e2e:	4413      	add	r3, r2
 8008e30:	e7e0      	b.n	8008df4 <_printf_float+0x1a4>
 8008e32:	6823      	ldr	r3, [r4, #0]
 8008e34:	055a      	lsls	r2, r3, #21
 8008e36:	d407      	bmi.n	8008e48 <_printf_float+0x1f8>
 8008e38:	6923      	ldr	r3, [r4, #16]
 8008e3a:	4642      	mov	r2, r8
 8008e3c:	4631      	mov	r1, r6
 8008e3e:	4628      	mov	r0, r5
 8008e40:	47b8      	blx	r7
 8008e42:	3001      	adds	r0, #1
 8008e44:	d12c      	bne.n	8008ea0 <_printf_float+0x250>
 8008e46:	e764      	b.n	8008d12 <_printf_float+0xc2>
 8008e48:	f1bb 0f65 	cmp.w	fp, #101	; 0x65
 8008e4c:	f240 80e0 	bls.w	8009010 <_printf_float+0x3c0>
 8008e50:	e9d4 0112 	ldrd	r0, r1, [r4, #72]	; 0x48
 8008e54:	2200      	movs	r2, #0
 8008e56:	2300      	movs	r3, #0
 8008e58:	f7f7 fe3e 	bl	8000ad8 <__aeabi_dcmpeq>
 8008e5c:	2800      	cmp	r0, #0
 8008e5e:	d034      	beq.n	8008eca <_printf_float+0x27a>
 8008e60:	4a37      	ldr	r2, [pc, #220]	; (8008f40 <_printf_float+0x2f0>)
 8008e62:	2301      	movs	r3, #1
 8008e64:	4631      	mov	r1, r6
 8008e66:	4628      	mov	r0, r5
 8008e68:	47b8      	blx	r7
 8008e6a:	3001      	adds	r0, #1
 8008e6c:	f43f af51 	beq.w	8008d12 <_printf_float+0xc2>
 8008e70:	e9dd 2309 	ldrd	r2, r3, [sp, #36]	; 0x24
 8008e74:	429a      	cmp	r2, r3
 8008e76:	db02      	blt.n	8008e7e <_printf_float+0x22e>
 8008e78:	6823      	ldr	r3, [r4, #0]
 8008e7a:	07d8      	lsls	r0, r3, #31
 8008e7c:	d510      	bpl.n	8008ea0 <_printf_float+0x250>
 8008e7e:	ee18 3a10 	vmov	r3, s16
 8008e82:	4652      	mov	r2, sl
 8008e84:	4631      	mov	r1, r6
 8008e86:	4628      	mov	r0, r5
 8008e88:	47b8      	blx	r7
 8008e8a:	3001      	adds	r0, #1
 8008e8c:	f43f af41 	beq.w	8008d12 <_printf_float+0xc2>
 8008e90:	f04f 0800 	mov.w	r8, #0
 8008e94:	f104 091a 	add.w	r9, r4, #26
 8008e98:	9b0a      	ldr	r3, [sp, #40]	; 0x28
 8008e9a:	3b01      	subs	r3, #1
 8008e9c:	4543      	cmp	r3, r8
 8008e9e:	dc09      	bgt.n	8008eb4 <_printf_float+0x264>
 8008ea0:	6823      	ldr	r3, [r4, #0]
 8008ea2:	079b      	lsls	r3, r3, #30
 8008ea4:	f100 8105 	bmi.w	80090b2 <_printf_float+0x462>
 8008ea8:	68e0      	ldr	r0, [r4, #12]
 8008eaa:	9b0b      	ldr	r3, [sp, #44]	; 0x2c
 8008eac:	4298      	cmp	r0, r3
 8008eae:	bfb8      	it	lt
 8008eb0:	4618      	movlt	r0, r3
 8008eb2:	e730      	b.n	8008d16 <_printf_float+0xc6>
 8008eb4:	2301      	movs	r3, #1
 8008eb6:	464a      	mov	r2, r9
 8008eb8:	4631      	mov	r1, r6
 8008eba:	4628      	mov	r0, r5
 8008ebc:	47b8      	blx	r7
 8008ebe:	3001      	adds	r0, #1
 8008ec0:	f43f af27 	beq.w	8008d12 <_printf_float+0xc2>
 8008ec4:	f108 0801 	add.w	r8, r8, #1
 8008ec8:	e7e6      	b.n	8008e98 <_printf_float+0x248>
 8008eca:	9b09      	ldr	r3, [sp, #36]	; 0x24
 8008ecc:	2b00      	cmp	r3, #0
 8008ece:	dc39      	bgt.n	8008f44 <_printf_float+0x2f4>
 8008ed0:	4a1b      	ldr	r2, [pc, #108]	; (8008f40 <_printf_float+0x2f0>)
 8008ed2:	2301      	movs	r3, #1
 8008ed4:	4631      	mov	r1, r6
 8008ed6:	4628      	mov	r0, r5
 8008ed8:	47b8      	blx	r7
 8008eda:	3001      	adds	r0, #1
 8008edc:	f43f af19 	beq.w	8008d12 <_printf_float+0xc2>
 8008ee0:	e9dd 2309 	ldrd	r2, r3, [sp, #36]	; 0x24
 8008ee4:	4313      	orrs	r3, r2
 8008ee6:	d102      	bne.n	8008eee <_printf_float+0x29e>
 8008ee8:	6823      	ldr	r3, [r4, #0]
 8008eea:	07d9      	lsls	r1, r3, #31
 8008eec:	d5d8      	bpl.n	8008ea0 <_printf_float+0x250>
 8008eee:	ee18 3a10 	vmov	r3, s16
 8008ef2:	4652      	mov	r2, sl
 8008ef4:	4631      	mov	r1, r6
 8008ef6:	4628      	mov	r0, r5
 8008ef8:	47b8      	blx	r7
 8008efa:	3001      	adds	r0, #1
 8008efc:	f43f af09 	beq.w	8008d12 <_printf_float+0xc2>
 8008f00:	f04f 0900 	mov.w	r9, #0
 8008f04:	f104 0a1a 	add.w	sl, r4, #26
 8008f08:	9b09      	ldr	r3, [sp, #36]	; 0x24
 8008f0a:	425b      	negs	r3, r3
 8008f0c:	454b      	cmp	r3, r9
 8008f0e:	dc01      	bgt.n	8008f14 <_printf_float+0x2c4>
 8008f10:	9b0a      	ldr	r3, [sp, #40]	; 0x28
 8008f12:	e792      	b.n	8008e3a <_printf_float+0x1ea>
 8008f14:	2301      	movs	r3, #1
 8008f16:	4652      	mov	r2, sl
 8008f18:	4631      	mov	r1, r6
 8008f1a:	4628      	mov	r0, r5
 8008f1c:	47b8      	blx	r7
 8008f1e:	3001      	adds	r0, #1
 8008f20:	f43f aef7 	beq.w	8008d12 <_printf_float+0xc2>
 8008f24:	f109 0901 	add.w	r9, r9, #1
 8008f28:	e7ee      	b.n	8008f08 <_printf_float+0x2b8>
 8008f2a:	bf00      	nop
 8008f2c:	7fefffff 	.word	0x7fefffff
 8008f30:	08044e80 	.word	0x08044e80
 8008f34:	08044e84 	.word	0x08044e84
 8008f38:	08044e8c 	.word	0x08044e8c
 8008f3c:	08044e88 	.word	0x08044e88
 8008f40:	08044e90 	.word	0x08044e90
 8008f44:	9a0a      	ldr	r2, [sp, #40]	; 0x28
 8008f46:	6da3      	ldr	r3, [r4, #88]	; 0x58
 8008f48:	429a      	cmp	r2, r3
 8008f4a:	bfa8      	it	ge
 8008f4c:	461a      	movge	r2, r3
 8008f4e:	2a00      	cmp	r2, #0
 8008f50:	4691      	mov	r9, r2
 8008f52:	dc37      	bgt.n	8008fc4 <_printf_float+0x374>
 8008f54:	f04f 0b00 	mov.w	fp, #0
 8008f58:	ea29 79e9 	bic.w	r9, r9, r9, asr #31
 8008f5c:	f104 021a 	add.w	r2, r4, #26
 8008f60:	6da3      	ldr	r3, [r4, #88]	; 0x58
 8008f62:	9305      	str	r3, [sp, #20]
 8008f64:	eba3 0309 	sub.w	r3, r3, r9
 8008f68:	455b      	cmp	r3, fp
 8008f6a:	dc33      	bgt.n	8008fd4 <_printf_float+0x384>
 8008f6c:	e9dd 2309 	ldrd	r2, r3, [sp, #36]	; 0x24
 8008f70:	429a      	cmp	r2, r3
 8008f72:	db3b      	blt.n	8008fec <_printf_float+0x39c>
 8008f74:	6823      	ldr	r3, [r4, #0]
 8008f76:	07da      	lsls	r2, r3, #31
 8008f78:	d438      	bmi.n	8008fec <_printf_float+0x39c>
 8008f7a:	9a0a      	ldr	r2, [sp, #40]	; 0x28
 8008f7c:	9b05      	ldr	r3, [sp, #20]
 8008f7e:	9909      	ldr	r1, [sp, #36]	; 0x24
 8008f80:	1ad3      	subs	r3, r2, r3
 8008f82:	eba2 0901 	sub.w	r9, r2, r1
 8008f86:	4599      	cmp	r9, r3
 8008f88:	bfa8      	it	ge
 8008f8a:	4699      	movge	r9, r3
 8008f8c:	f1b9 0f00 	cmp.w	r9, #0
 8008f90:	dc35      	bgt.n	8008ffe <_printf_float+0x3ae>
 8008f92:	f04f 0800 	mov.w	r8, #0
 8008f96:	ea29 79e9 	bic.w	r9, r9, r9, asr #31
 8008f9a:	f104 0a1a 	add.w	sl, r4, #26
 8008f9e:	e9dd 2309 	ldrd	r2, r3, [sp, #36]	; 0x24
 8008fa2:	1a9b      	subs	r3, r3, r2
 8008fa4:	eba3 0309 	sub.w	r3, r3, r9
 8008fa8:	4543      	cmp	r3, r8
 8008faa:	f77f af79 	ble.w	8008ea0 <_printf_float+0x250>
 8008fae:	2301      	movs	r3, #1
 8008fb0:	4652      	mov	r2, sl
 8008fb2:	4631      	mov	r1, r6
 8008fb4:	4628      	mov	r0, r5
 8008fb6:	47b8      	blx	r7
 8008fb8:	3001      	adds	r0, #1
 8008fba:	f43f aeaa 	beq.w	8008d12 <_printf_float+0xc2>
 8008fbe:	f108 0801 	add.w	r8, r8, #1
 8008fc2:	e7ec      	b.n	8008f9e <_printf_float+0x34e>
 8008fc4:	4613      	mov	r3, r2
 8008fc6:	4631      	mov	r1, r6
 8008fc8:	4642      	mov	r2, r8
 8008fca:	4628      	mov	r0, r5
 8008fcc:	47b8      	blx	r7
 8008fce:	3001      	adds	r0, #1
 8008fd0:	d1c0      	bne.n	8008f54 <_printf_float+0x304>
 8008fd2:	e69e      	b.n	8008d12 <_printf_float+0xc2>
 8008fd4:	2301      	movs	r3, #1
 8008fd6:	4631      	mov	r1, r6
 8008fd8:	4628      	mov	r0, r5
 8008fda:	9205      	str	r2, [sp, #20]
 8008fdc:	47b8      	blx	r7
 8008fde:	3001      	adds	r0, #1
 8008fe0:	f43f ae97 	beq.w	8008d12 <_printf_float+0xc2>
 8008fe4:	9a05      	ldr	r2, [sp, #20]
 8008fe6:	f10b 0b01 	add.w	fp, fp, #1
 8008fea:	e7b9      	b.n	8008f60 <_printf_float+0x310>
 8008fec:	ee18 3a10 	vmov	r3, s16
 8008ff0:	4652      	mov	r2, sl
 8008ff2:	4631      	mov	r1, r6
 8008ff4:	4628      	mov	r0, r5
 8008ff6:	47b8      	blx	r7
 8008ff8:	3001      	adds	r0, #1
 8008ffa:	d1be      	bne.n	8008f7a <_printf_float+0x32a>
 8008ffc:	e689      	b.n	8008d12 <_printf_float+0xc2>
 8008ffe:	9a05      	ldr	r2, [sp, #20]
 8009000:	464b      	mov	r3, r9
 8009002:	4442      	add	r2, r8
 8009004:	4631      	mov	r1, r6
 8009006:	4628      	mov	r0, r5
 8009008:	47b8      	blx	r7
 800900a:	3001      	adds	r0, #1
 800900c:	d1c1      	bne.n	8008f92 <_printf_float+0x342>
 800900e:	e680      	b.n	8008d12 <_printf_float+0xc2>
 8009010:	9a0a      	ldr	r2, [sp, #40]	; 0x28
 8009012:	2a01      	cmp	r2, #1
 8009014:	dc01      	bgt.n	800901a <_printf_float+0x3ca>
 8009016:	07db      	lsls	r3, r3, #31
 8009018:	d538      	bpl.n	800908c <_printf_float+0x43c>
 800901a:	2301      	movs	r3, #1
 800901c:	4642      	mov	r2, r8
 800901e:	4631      	mov	r1, r6
 8009020:	4628      	mov	r0, r5
 8009022:	47b8      	blx	r7
 8009024:	3001      	adds	r0, #1
 8009026:	f43f ae74 	beq.w	8008d12 <_printf_float+0xc2>
 800902a:	ee18 3a10 	vmov	r3, s16
 800902e:	4652      	mov	r2, sl
 8009030:	4631      	mov	r1, r6
 8009032:	4628      	mov	r0, r5
 8009034:	47b8      	blx	r7
 8009036:	3001      	adds	r0, #1
 8009038:	f43f ae6b 	beq.w	8008d12 <_printf_float+0xc2>
 800903c:	e9d4 0112 	ldrd	r0, r1, [r4, #72]	; 0x48
 8009040:	2200      	movs	r2, #0
 8009042:	2300      	movs	r3, #0
 8009044:	f7f7 fd48 	bl	8000ad8 <__aeabi_dcmpeq>
 8009048:	b9d8      	cbnz	r0, 8009082 <_printf_float+0x432>
 800904a:	9b0a      	ldr	r3, [sp, #40]	; 0x28
 800904c:	f108 0201 	add.w	r2, r8, #1
 8009050:	3b01      	subs	r3, #1
 8009052:	4631      	mov	r1, r6
 8009054:	4628      	mov	r0, r5
 8009056:	47b8      	blx	r7
 8009058:	3001      	adds	r0, #1
 800905a:	d10e      	bne.n	800907a <_printf_float+0x42a>
 800905c:	e659      	b.n	8008d12 <_printf_float+0xc2>
 800905e:	2301      	movs	r3, #1
 8009060:	4652      	mov	r2, sl
 8009062:	4631      	mov	r1, r6
 8009064:	4628      	mov	r0, r5
 8009066:	47b8      	blx	r7
 8009068:	3001      	adds	r0, #1
 800906a:	f43f ae52 	beq.w	8008d12 <_printf_float+0xc2>
 800906e:	f108 0801 	add.w	r8, r8, #1
 8009072:	9b0a      	ldr	r3, [sp, #40]	; 0x28
 8009074:	3b01      	subs	r3, #1
 8009076:	4543      	cmp	r3, r8
 8009078:	dcf1      	bgt.n	800905e <_printf_float+0x40e>
 800907a:	464b      	mov	r3, r9
 800907c:	f104 0250 	add.w	r2, r4, #80	; 0x50
 8009080:	e6dc      	b.n	8008e3c <_printf_float+0x1ec>
 8009082:	f04f 0800 	mov.w	r8, #0
 8009086:	f104 0a1a 	add.w	sl, r4, #26
 800908a:	e7f2      	b.n	8009072 <_printf_float+0x422>
 800908c:	2301      	movs	r3, #1
 800908e:	4642      	mov	r2, r8
 8009090:	e7df      	b.n	8009052 <_printf_float+0x402>
 8009092:	2301      	movs	r3, #1
 8009094:	464a      	mov	r2, r9
 8009096:	4631      	mov	r1, r6
 8009098:	4628      	mov	r0, r5
 800909a:	47b8      	blx	r7
 800909c:	3001      	adds	r0, #1
 800909e:	f43f ae38 	beq.w	8008d12 <_printf_float+0xc2>
 80090a2:	f108 0801 	add.w	r8, r8, #1
 80090a6:	68e3      	ldr	r3, [r4, #12]
 80090a8:	990b      	ldr	r1, [sp, #44]	; 0x2c
 80090aa:	1a5b      	subs	r3, r3, r1
 80090ac:	4543      	cmp	r3, r8
 80090ae:	dcf0      	bgt.n	8009092 <_printf_float+0x442>
 80090b0:	e6fa      	b.n	8008ea8 <_printf_float+0x258>
 80090b2:	f04f 0800 	mov.w	r8, #0
 80090b6:	f104 0919 	add.w	r9, r4, #25
 80090ba:	e7f4      	b.n	80090a6 <_printf_float+0x456>

080090bc <_printf_common>:
 80090bc:	e92d 47f0 	stmdb	sp!, {r4, r5, r6, r7, r8, r9, sl, lr}
 80090c0:	4616      	mov	r6, r2
 80090c2:	4699      	mov	r9, r3
 80090c4:	688a      	ldr	r2, [r1, #8]
 80090c6:	690b      	ldr	r3, [r1, #16]
 80090c8:	f8dd 8020 	ldr.w	r8, [sp, #32]
 80090cc:	4293      	cmp	r3, r2
 80090ce:	bfb8      	it	lt
 80090d0:	4613      	movlt	r3, r2
 80090d2:	6033      	str	r3, [r6, #0]
 80090d4:	f891 2043 	ldrb.w	r2, [r1, #67]	; 0x43
 80090d8:	4607      	mov	r7, r0
 80090da:	460c      	mov	r4, r1
 80090dc:	b10a      	cbz	r2, 80090e2 <_printf_common+0x26>
 80090de:	3301      	adds	r3, #1
 80090e0:	6033      	str	r3, [r6, #0]
 80090e2:	6823      	ldr	r3, [r4, #0]
 80090e4:	0699      	lsls	r1, r3, #26
 80090e6:	bf42      	ittt	mi
 80090e8:	6833      	ldrmi	r3, [r6, #0]
 80090ea:	3302      	addmi	r3, #2
 80090ec:	6033      	strmi	r3, [r6, #0]
 80090ee:	6825      	ldr	r5, [r4, #0]
 80090f0:	f015 0506 	ands.w	r5, r5, #6
 80090f4:	d106      	bne.n	8009104 <_printf_common+0x48>
 80090f6:	f104 0a19 	add.w	sl, r4, #25
 80090fa:	68e3      	ldr	r3, [r4, #12]
 80090fc:	6832      	ldr	r2, [r6, #0]
 80090fe:	1a9b      	subs	r3, r3, r2
 8009100:	42ab      	cmp	r3, r5
 8009102:	dc26      	bgt.n	8009152 <_printf_common+0x96>
 8009104:	f894 2043 	ldrb.w	r2, [r4, #67]	; 0x43
 8009108:	1e13      	subs	r3, r2, #0
 800910a:	6822      	ldr	r2, [r4, #0]
 800910c:	bf18      	it	ne
 800910e:	2301      	movne	r3, #1
 8009110:	0692      	lsls	r2, r2, #26
 8009112:	d42b      	bmi.n	800916c <_printf_common+0xb0>
 8009114:	f104 0243 	add.w	r2, r4, #67	; 0x43
 8009118:	4649      	mov	r1, r9
 800911a:	4638      	mov	r0, r7
 800911c:	47c0      	blx	r8
 800911e:	3001      	adds	r0, #1
 8009120:	d01e      	beq.n	8009160 <_printf_common+0xa4>
 8009122:	6823      	ldr	r3, [r4, #0]
 8009124:	68e5      	ldr	r5, [r4, #12]
 8009126:	6832      	ldr	r2, [r6, #0]
 8009128:	f003 0306 	and.w	r3, r3, #6
 800912c:	2b04      	cmp	r3, #4
 800912e:	bf08      	it	eq
 8009130:	1aad      	subeq	r5, r5, r2
 8009132:	68a3      	ldr	r3, [r4, #8]
 8009134:	6922      	ldr	r2, [r4, #16]
 8009136:	bf0c      	ite	eq
 8009138:	ea25 75e5 	biceq.w	r5, r5, r5, asr #31
 800913c:	2500      	movne	r5, #0
 800913e:	4293      	cmp	r3, r2
 8009140:	bfc4      	itt	gt
 8009142:	1a9b      	subgt	r3, r3, r2
 8009144:	18ed      	addgt	r5, r5, r3
 8009146:	2600      	movs	r6, #0
 8009148:	341a      	adds	r4, #26
 800914a:	42b5      	cmp	r5, r6
 800914c:	d11a      	bne.n	8009184 <_printf_common+0xc8>
 800914e:	2000      	movs	r0, #0
 8009150:	e008      	b.n	8009164 <_printf_common+0xa8>
 8009152:	2301      	movs	r3, #1
 8009154:	4652      	mov	r2, sl
 8009156:	4649      	mov	r1, r9
 8009158:	4638      	mov	r0, r7
 800915a:	47c0      	blx	r8
 800915c:	3001      	adds	r0, #1
 800915e:	d103      	bne.n	8009168 <_printf_common+0xac>
 8009160:	f04f 30ff 	mov.w	r0, #4294967295	; 0xffffffff
 8009164:	e8bd 87f0 	ldmia.w	sp!, {r4, r5, r6, r7, r8, r9, sl, pc}
 8009168:	3501      	adds	r5, #1
 800916a:	e7c6      	b.n	80090fa <_printf_common+0x3e>
 800916c:	18e1      	adds	r1, r4, r3
 800916e:	1c5a      	adds	r2, r3, #1
 8009170:	2030      	movs	r0, #48	; 0x30
 8009172:	f881 0043 	strb.w	r0, [r1, #67]	; 0x43
 8009176:	4422      	add	r2, r4
 8009178:	f894 1045 	ldrb.w	r1, [r4, #69]	; 0x45
 800917c:	f882 1043 	strb.w	r1, [r2, #67]	; 0x43
 8009180:	3302      	adds	r3, #2
 8009182:	e7c7      	b.n	8009114 <_printf_common+0x58>
 8009184:	2301      	movs	r3, #1
 8009186:	4622      	mov	r2, r4
 8009188:	4649      	mov	r1, r9
 800918a:	4638      	mov	r0, r7
 800918c:	47c0      	blx	r8
 800918e:	3001      	adds	r0, #1
 8009190:	d0e6      	beq.n	8009160 <_printf_common+0xa4>
 8009192:	3601      	adds	r6, #1
 8009194:	e7d9      	b.n	800914a <_printf_common+0x8e>
	...

08009198 <_printf_i>:
 8009198:	e92d 47ff 	stmdb	sp!, {r0, r1, r2, r3, r4, r5, r6, r7, r8, r9, sl, lr}
 800919c:	460c      	mov	r4, r1
 800919e:	4691      	mov	r9, r2
 80091a0:	7e27      	ldrb	r7, [r4, #24]
 80091a2:	990c      	ldr	r1, [sp, #48]	; 0x30
 80091a4:	2f78      	cmp	r7, #120	; 0x78
 80091a6:	4680      	mov	r8, r0
 80091a8:	469a      	mov	sl, r3
 80091aa:	f104 0243 	add.w	r2, r4, #67	; 0x43
 80091ae:	d807      	bhi.n	80091c0 <_printf_i+0x28>
 80091b0:	2f62      	cmp	r7, #98	; 0x62
 80091b2:	d80a      	bhi.n	80091ca <_printf_i+0x32>
 80091b4:	2f00      	cmp	r7, #0
 80091b6:	f000 80d8 	beq.w	800936a <_printf_i+0x1d2>
 80091ba:	2f58      	cmp	r7, #88	; 0x58
 80091bc:	f000 80a3 	beq.w	8009306 <_printf_i+0x16e>
 80091c0:	f104 0642 	add.w	r6, r4, #66	; 0x42
 80091c4:	f884 7042 	strb.w	r7, [r4, #66]	; 0x42
 80091c8:	e03a      	b.n	8009240 <_printf_i+0xa8>
 80091ca:	f1a7 0363 	sub.w	r3, r7, #99	; 0x63
 80091ce:	2b15      	cmp	r3, #21
 80091d0:	d8f6      	bhi.n	80091c0 <_printf_i+0x28>
 80091d2:	a001      	add	r0, pc, #4	; (adr r0, 80091d8 <_printf_i+0x40>)
 80091d4:	f850 f023 	ldr.w	pc, [r0, r3, lsl #2]
 80091d8:	08009231 	.word	0x08009231
 80091dc:	08009245 	.word	0x08009245
 80091e0:	080091c1 	.word	0x080091c1
 80091e4:	080091c1 	.word	0x080091c1
 80091e8:	080091c1 	.word	0x080091c1
 80091ec:	080091c1 	.word	0x080091c1
 80091f0:	08009245 	.word	0x08009245
 80091f4:	080091c1 	.word	0x080091c1
 80091f8:	080091c1 	.word	0x080091c1
 80091fc:	080091c1 	.word	0x080091c1
 8009200:	080091c1 	.word	0x080091c1
 8009204:	08009351 	.word	0x08009351
 8009208:	08009275 	.word	0x08009275
 800920c:	08009333 	.word	0x08009333
 8009210:	080091c1 	.word	0x080091c1
 8009214:	080091c1 	.word	0x080091c1
 8009218:	08009373 	.word	0x08009373
 800921c:	080091c1 	.word	0x080091c1
 8009220:	08009275 	.word	0x08009275
 8009224:	080091c1 	.word	0x080091c1
 8009228:	080091c1 	.word	0x080091c1
 800922c:	0800933b 	.word	0x0800933b
 8009230:	680b      	ldr	r3, [r1, #0]
 8009232:	1d1a      	adds	r2, r3, #4
 8009234:	681b      	ldr	r3, [r3, #0]
 8009236:	600a      	str	r2, [r1, #0]
 8009238:	f104 0642 	add.w	r6, r4, #66	; 0x42
 800923c:	f884 3042 	strb.w	r3, [r4, #66]	; 0x42
 8009240:	2301      	movs	r3, #1
 8009242:	e0a3      	b.n	800938c <_printf_i+0x1f4>
 8009244:	6825      	ldr	r5, [r4, #0]
 8009246:	6808      	ldr	r0, [r1, #0]
 8009248:	062e      	lsls	r6, r5, #24
 800924a:	f100 0304 	add.w	r3, r0, #4
 800924e:	d50a      	bpl.n	8009266 <_printf_i+0xce>
 8009250:	6805      	ldr	r5, [r0, #0]
 8009252:	600b      	str	r3, [r1, #0]
 8009254:	2d00      	cmp	r5, #0
 8009256:	da03      	bge.n	8009260 <_printf_i+0xc8>
 8009258:	232d      	movs	r3, #45	; 0x2d
 800925a:	426d      	negs	r5, r5
 800925c:	f884 3043 	strb.w	r3, [r4, #67]	; 0x43
 8009260:	485e      	ldr	r0, [pc, #376]	; (80093dc <_printf_i+0x244>)
 8009262:	230a      	movs	r3, #10
 8009264:	e019      	b.n	800929a <_printf_i+0x102>
 8009266:	f015 0f40 	tst.w	r5, #64	; 0x40
 800926a:	6805      	ldr	r5, [r0, #0]
 800926c:	600b      	str	r3, [r1, #0]
 800926e:	bf18      	it	ne
 8009270:	b22d      	sxthne	r5, r5
 8009272:	e7ef      	b.n	8009254 <_printf_i+0xbc>
 8009274:	680b      	ldr	r3, [r1, #0]
 8009276:	6825      	ldr	r5, [r4, #0]
 8009278:	1d18      	adds	r0, r3, #4
 800927a:	6008      	str	r0, [r1, #0]
 800927c:	0628      	lsls	r0, r5, #24
 800927e:	d501      	bpl.n	8009284 <_printf_i+0xec>
 8009280:	681d      	ldr	r5, [r3, #0]
 8009282:	e002      	b.n	800928a <_printf_i+0xf2>
 8009284:	0669      	lsls	r1, r5, #25
 8009286:	d5fb      	bpl.n	8009280 <_printf_i+0xe8>
 8009288:	881d      	ldrh	r5, [r3, #0]
 800928a:	4854      	ldr	r0, [pc, #336]	; (80093dc <_printf_i+0x244>)
 800928c:	2f6f      	cmp	r7, #111	; 0x6f
 800928e:	bf0c      	ite	eq
 8009290:	2308      	moveq	r3, #8
 8009292:	230a      	movne	r3, #10
 8009294:	2100      	movs	r1, #0
 8009296:	f884 1043 	strb.w	r1, [r4, #67]	; 0x43
 800929a:	6866      	ldr	r6, [r4, #4]
 800929c:	60a6      	str	r6, [r4, #8]
 800929e:	2e00      	cmp	r6, #0
 80092a0:	bfa2      	ittt	ge
 80092a2:	6821      	ldrge	r1, [r4, #0]
 80092a4:	f021 0104 	bicge.w	r1, r1, #4
 80092a8:	6021      	strge	r1, [r4, #0]
 80092aa:	b90d      	cbnz	r5, 80092b0 <_printf_i+0x118>
 80092ac:	2e00      	cmp	r6, #0
 80092ae:	d04d      	beq.n	800934c <_printf_i+0x1b4>
 80092b0:	4616      	mov	r6, r2
 80092b2:	fbb5 f1f3 	udiv	r1, r5, r3
 80092b6:	fb03 5711 	mls	r7, r3, r1, r5
 80092ba:	5dc7      	ldrb	r7, [r0, r7]
 80092bc:	f806 7d01 	strb.w	r7, [r6, #-1]!
 80092c0:	462f      	mov	r7, r5
 80092c2:	42bb      	cmp	r3, r7
 80092c4:	460d      	mov	r5, r1
 80092c6:	d9f4      	bls.n	80092b2 <_printf_i+0x11a>
 80092c8:	2b08      	cmp	r3, #8
 80092ca:	d10b      	bne.n	80092e4 <_printf_i+0x14c>
 80092cc:	6823      	ldr	r3, [r4, #0]
 80092ce:	07df      	lsls	r7, r3, #31
 80092d0:	d508      	bpl.n	80092e4 <_printf_i+0x14c>
 80092d2:	6923      	ldr	r3, [r4, #16]
 80092d4:	6861      	ldr	r1, [r4, #4]
 80092d6:	4299      	cmp	r1, r3
 80092d8:	bfde      	ittt	le
 80092da:	2330      	movle	r3, #48	; 0x30
 80092dc:	f806 3c01 	strble.w	r3, [r6, #-1]
 80092e0:	f106 36ff 	addle.w	r6, r6, #4294967295	; 0xffffffff
 80092e4:	1b92      	subs	r2, r2, r6
 80092e6:	6122      	str	r2, [r4, #16]
 80092e8:	f8cd a000 	str.w	sl, [sp]
 80092ec:	464b      	mov	r3, r9
 80092ee:	aa03      	add	r2, sp, #12
 80092f0:	4621      	mov	r1, r4
 80092f2:	4640      	mov	r0, r8
 80092f4:	f7ff fee2 	bl	80090bc <_printf_common>
 80092f8:	3001      	adds	r0, #1
 80092fa:	d14c      	bne.n	8009396 <_printf_i+0x1fe>
 80092fc:	f04f 30ff 	mov.w	r0, #4294967295	; 0xffffffff
 8009300:	b004      	add	sp, #16
 8009302:	e8bd 87f0 	ldmia.w	sp!, {r4, r5, r6, r7, r8, r9, sl, pc}
 8009306:	4835      	ldr	r0, [pc, #212]	; (80093dc <_printf_i+0x244>)
 8009308:	f884 7045 	strb.w	r7, [r4, #69]	; 0x45
 800930c:	6823      	ldr	r3, [r4, #0]
 800930e:	680e      	ldr	r6, [r1, #0]
 8009310:	061f      	lsls	r7, r3, #24
 8009312:	f856 5b04 	ldr.w	r5, [r6], #4
 8009316:	600e      	str	r6, [r1, #0]
 8009318:	d514      	bpl.n	8009344 <_printf_i+0x1ac>
 800931a:	07d9      	lsls	r1, r3, #31
 800931c:	bf44      	itt	mi
 800931e:	f043 0320 	orrmi.w	r3, r3, #32
 8009322:	6023      	strmi	r3, [r4, #0]
 8009324:	b91d      	cbnz	r5, 800932e <_printf_i+0x196>
 8009326:	6823      	ldr	r3, [r4, #0]
 8009328:	f023 0320 	bic.w	r3, r3, #32
 800932c:	6023      	str	r3, [r4, #0]
 800932e:	2310      	movs	r3, #16
 8009330:	e7b0      	b.n	8009294 <_printf_i+0xfc>
 8009332:	6823      	ldr	r3, [r4, #0]
 8009334:	f043 0320 	orr.w	r3, r3, #32
 8009338:	6023      	str	r3, [r4, #0]
 800933a:	2378      	movs	r3, #120	; 0x78
 800933c:	4828      	ldr	r0, [pc, #160]	; (80093e0 <_printf_i+0x248>)
 800933e:	f884 3045 	strb.w	r3, [r4, #69]	; 0x45
 8009342:	e7e3      	b.n	800930c <_printf_i+0x174>
 8009344:	065e      	lsls	r6, r3, #25
 8009346:	bf48      	it	mi
 8009348:	b2ad      	uxthmi	r5, r5
 800934a:	e7e6      	b.n	800931a <_printf_i+0x182>
 800934c:	4616      	mov	r6, r2
 800934e:	e7bb      	b.n	80092c8 <_printf_i+0x130>
 8009350:	680b      	ldr	r3, [r1, #0]
 8009352:	6826      	ldr	r6, [r4, #0]
 8009354:	6960      	ldr	r0, [r4, #20]
 8009356:	1d1d      	adds	r5, r3, #4
 8009358:	600d      	str	r5, [r1, #0]
 800935a:	0635      	lsls	r5, r6, #24
 800935c:	681b      	ldr	r3, [r3, #0]
 800935e:	d501      	bpl.n	8009364 <_printf_i+0x1cc>
 8009360:	6018      	str	r0, [r3, #0]
 8009362:	e002      	b.n	800936a <_printf_i+0x1d2>
 8009364:	0671      	lsls	r1, r6, #25
 8009366:	d5fb      	bpl.n	8009360 <_printf_i+0x1c8>
 8009368:	8018      	strh	r0, [r3, #0]
 800936a:	2300      	movs	r3, #0
 800936c:	6123      	str	r3, [r4, #16]
 800936e:	4616      	mov	r6, r2
 8009370:	e7ba      	b.n	80092e8 <_printf_i+0x150>
 8009372:	680b      	ldr	r3, [r1, #0]
 8009374:	1d1a      	adds	r2, r3, #4
 8009376:	600a      	str	r2, [r1, #0]
 8009378:	681e      	ldr	r6, [r3, #0]
 800937a:	6862      	ldr	r2, [r4, #4]
 800937c:	2100      	movs	r1, #0
 800937e:	4630      	mov	r0, r6
 8009380:	f7f6 ff36 	bl	80001f0 <memchr>
 8009384:	b108      	cbz	r0, 800938a <_printf_i+0x1f2>
 8009386:	1b80      	subs	r0, r0, r6
 8009388:	6060      	str	r0, [r4, #4]
 800938a:	6863      	ldr	r3, [r4, #4]
 800938c:	6123      	str	r3, [r4, #16]
 800938e:	2300      	movs	r3, #0
 8009390:	f884 3043 	strb.w	r3, [r4, #67]	; 0x43
 8009394:	e7a8      	b.n	80092e8 <_printf_i+0x150>
 8009396:	6923      	ldr	r3, [r4, #16]
 8009398:	4632      	mov	r2, r6
 800939a:	4649      	mov	r1, r9
 800939c:	4640      	mov	r0, r8
 800939e:	47d0      	blx	sl
 80093a0:	3001      	adds	r0, #1
 80093a2:	d0ab      	beq.n	80092fc <_printf_i+0x164>
 80093a4:	6823      	ldr	r3, [r4, #0]
 80093a6:	079b      	lsls	r3, r3, #30
 80093a8:	d413      	bmi.n	80093d2 <_printf_i+0x23a>
 80093aa:	68e0      	ldr	r0, [r4, #12]
 80093ac:	9b03      	ldr	r3, [sp, #12]
 80093ae:	4298      	cmp	r0, r3
 80093b0:	bfb8      	it	lt
 80093b2:	4618      	movlt	r0, r3
 80093b4:	e7a4      	b.n	8009300 <_printf_i+0x168>
 80093b6:	2301      	movs	r3, #1
 80093b8:	4632      	mov	r2, r6
 80093ba:	4649      	mov	r1, r9
 80093bc:	4640      	mov	r0, r8
 80093be:	47d0      	blx	sl
 80093c0:	3001      	adds	r0, #1
 80093c2:	d09b      	beq.n	80092fc <_printf_i+0x164>
 80093c4:	3501      	adds	r5, #1
 80093c6:	68e3      	ldr	r3, [r4, #12]
 80093c8:	9903      	ldr	r1, [sp, #12]
 80093ca:	1a5b      	subs	r3, r3, r1
 80093cc:	42ab      	cmp	r3, r5
 80093ce:	dcf2      	bgt.n	80093b6 <_printf_i+0x21e>
 80093d0:	e7eb      	b.n	80093aa <_printf_i+0x212>
 80093d2:	2500      	movs	r5, #0
 80093d4:	f104 0619 	add.w	r6, r4, #25
 80093d8:	e7f5      	b.n	80093c6 <_printf_i+0x22e>
 80093da:	bf00      	nop
 80093dc:	08044e92 	.word	0x08044e92
 80093e0:	08044ea3 	.word	0x08044ea3

080093e4 <iprintf>:
 80093e4:	b40f      	push	{r0, r1, r2, r3}
 80093e6:	4b0a      	ldr	r3, [pc, #40]	; (8009410 <iprintf+0x2c>)
 80093e8:	b513      	push	{r0, r1, r4, lr}
 80093ea:	681c      	ldr	r4, [r3, #0]
 80093ec:	b124      	cbz	r4, 80093f8 <iprintf+0x14>
 80093ee:	69a3      	ldr	r3, [r4, #24]
 80093f0:	b913      	cbnz	r3, 80093f8 <iprintf+0x14>
 80093f2:	4620      	mov	r0, r4
 80093f4:	f001 f8d6 	bl	800a5a4 <__sinit>
 80093f8:	ab05      	add	r3, sp, #20
 80093fa:	9a04      	ldr	r2, [sp, #16]
 80093fc:	68a1      	ldr	r1, [r4, #8]
 80093fe:	9301      	str	r3, [sp, #4]
 8009400:	4620      	mov	r0, r4
 8009402:	f001 fe43 	bl	800b08c <_vfiprintf_r>
 8009406:	b002      	add	sp, #8
 8009408:	e8bd 4010 	ldmia.w	sp!, {r4, lr}
 800940c:	b004      	add	sp, #16
 800940e:	4770      	bx	lr
 8009410:	20000148 	.word	0x20000148

08009414 <_puts_r>:
 8009414:	b570      	push	{r4, r5, r6, lr}
 8009416:	460e      	mov	r6, r1
 8009418:	4605      	mov	r5, r0
 800941a:	b118      	cbz	r0, 8009424 <_puts_r+0x10>
 800941c:	6983      	ldr	r3, [r0, #24]
 800941e:	b90b      	cbnz	r3, 8009424 <_puts_r+0x10>
 8009420:	f001 f8c0 	bl	800a5a4 <__sinit>
 8009424:	69ab      	ldr	r3, [r5, #24]
 8009426:	68ac      	ldr	r4, [r5, #8]
 8009428:	b913      	cbnz	r3, 8009430 <_puts_r+0x1c>
 800942a:	4628      	mov	r0, r5
 800942c:	f001 f8ba 	bl	800a5a4 <__sinit>
 8009430:	4b2c      	ldr	r3, [pc, #176]	; (80094e4 <_puts_r+0xd0>)
 8009432:	429c      	cmp	r4, r3
 8009434:	d120      	bne.n	8009478 <_puts_r+0x64>
 8009436:	686c      	ldr	r4, [r5, #4]
 8009438:	6e63      	ldr	r3, [r4, #100]	; 0x64
 800943a:	07db      	lsls	r3, r3, #31
 800943c:	d405      	bmi.n	800944a <_puts_r+0x36>
 800943e:	89a3      	ldrh	r3, [r4, #12]
 8009440:	0598      	lsls	r0, r3, #22
 8009442:	d402      	bmi.n	800944a <_puts_r+0x36>
 8009444:	6da0      	ldr	r0, [r4, #88]	; 0x58
 8009446:	f001 f950 	bl	800a6ea <__retarget_lock_acquire_recursive>
 800944a:	89a3      	ldrh	r3, [r4, #12]
 800944c:	0719      	lsls	r1, r3, #28
 800944e:	d51d      	bpl.n	800948c <_puts_r+0x78>
 8009450:	6923      	ldr	r3, [r4, #16]
 8009452:	b1db      	cbz	r3, 800948c <_puts_r+0x78>
 8009454:	3e01      	subs	r6, #1
 8009456:	68a3      	ldr	r3, [r4, #8]
 8009458:	f816 1f01 	ldrb.w	r1, [r6, #1]!
 800945c:	3b01      	subs	r3, #1
 800945e:	60a3      	str	r3, [r4, #8]
 8009460:	bb39      	cbnz	r1, 80094b2 <_puts_r+0x9e>
 8009462:	2b00      	cmp	r3, #0
 8009464:	da38      	bge.n	80094d8 <_puts_r+0xc4>
 8009466:	4622      	mov	r2, r4
 8009468:	210a      	movs	r1, #10
 800946a:	4628      	mov	r0, r5
 800946c:	f000 f848 	bl	8009500 <__swbuf_r>
 8009470:	3001      	adds	r0, #1
 8009472:	d011      	beq.n	8009498 <_puts_r+0x84>
 8009474:	250a      	movs	r5, #10
 8009476:	e011      	b.n	800949c <_puts_r+0x88>
 8009478:	4b1b      	ldr	r3, [pc, #108]	; (80094e8 <_puts_r+0xd4>)
 800947a:	429c      	cmp	r4, r3
 800947c:	d101      	bne.n	8009482 <_puts_r+0x6e>
 800947e:	68ac      	ldr	r4, [r5, #8]
 8009480:	e7da      	b.n	8009438 <_puts_r+0x24>
 8009482:	4b1a      	ldr	r3, [pc, #104]	; (80094ec <_puts_r+0xd8>)
 8009484:	429c      	cmp	r4, r3
 8009486:	bf08      	it	eq
 8009488:	68ec      	ldreq	r4, [r5, #12]
 800948a:	e7d5      	b.n	8009438 <_puts_r+0x24>
 800948c:	4621      	mov	r1, r4
 800948e:	4628      	mov	r0, r5
 8009490:	f000 f888 	bl	80095a4 <__swsetup_r>
 8009494:	2800      	cmp	r0, #0
 8009496:	d0dd      	beq.n	8009454 <_puts_r+0x40>
 8009498:	f04f 35ff 	mov.w	r5, #4294967295	; 0xffffffff
 800949c:	6e63      	ldr	r3, [r4, #100]	; 0x64
 800949e:	07da      	lsls	r2, r3, #31
 80094a0:	d405      	bmi.n	80094ae <_puts_r+0x9a>
 80094a2:	89a3      	ldrh	r3, [r4, #12]
 80094a4:	059b      	lsls	r3, r3, #22
 80094a6:	d402      	bmi.n	80094ae <_puts_r+0x9a>
 80094a8:	6da0      	ldr	r0, [r4, #88]	; 0x58
 80094aa:	f001 f91f 	bl	800a6ec <__retarget_lock_release_recursive>
 80094ae:	4628      	mov	r0, r5
 80094b0:	bd70      	pop	{r4, r5, r6, pc}
 80094b2:	2b00      	cmp	r3, #0
 80094b4:	da04      	bge.n	80094c0 <_puts_r+0xac>
 80094b6:	69a2      	ldr	r2, [r4, #24]
 80094b8:	429a      	cmp	r2, r3
 80094ba:	dc06      	bgt.n	80094ca <_puts_r+0xb6>
 80094bc:	290a      	cmp	r1, #10
 80094be:	d004      	beq.n	80094ca <_puts_r+0xb6>
 80094c0:	6823      	ldr	r3, [r4, #0]
 80094c2:	1c5a      	adds	r2, r3, #1
 80094c4:	6022      	str	r2, [r4, #0]
 80094c6:	7019      	strb	r1, [r3, #0]
 80094c8:	e7c5      	b.n	8009456 <_puts_r+0x42>
 80094ca:	4622      	mov	r2, r4
 80094cc:	4628      	mov	r0, r5
 80094ce:	f000 f817 	bl	8009500 <__swbuf_r>
 80094d2:	3001      	adds	r0, #1
 80094d4:	d1bf      	bne.n	8009456 <_puts_r+0x42>
 80094d6:	e7df      	b.n	8009498 <_puts_r+0x84>
 80094d8:	6823      	ldr	r3, [r4, #0]
 80094da:	250a      	movs	r5, #10
 80094dc:	1c5a      	adds	r2, r3, #1
 80094de:	6022      	str	r2, [r4, #0]
 80094e0:	701d      	strb	r5, [r3, #0]
 80094e2:	e7db      	b.n	800949c <_puts_r+0x88>
 80094e4:	08044f68 	.word	0x08044f68
 80094e8:	08044f88 	.word	0x08044f88
 80094ec:	08044f48 	.word	0x08044f48

080094f0 <puts>:
 80094f0:	4b02      	ldr	r3, [pc, #8]	; (80094fc <puts+0xc>)
 80094f2:	4601      	mov	r1, r0
 80094f4:	6818      	ldr	r0, [r3, #0]
 80094f6:	f7ff bf8d 	b.w	8009414 <_puts_r>
 80094fa:	bf00      	nop
 80094fc:	20000148 	.word	0x20000148

08009500 <__swbuf_r>:
 8009500:	b5f8      	push	{r3, r4, r5, r6, r7, lr}
 8009502:	460e      	mov	r6, r1
 8009504:	4614      	mov	r4, r2
 8009506:	4605      	mov	r5, r0
 8009508:	b118      	cbz	r0, 8009512 <__swbuf_r+0x12>
 800950a:	6983      	ldr	r3, [r0, #24]
 800950c:	b90b      	cbnz	r3, 8009512 <__swbuf_r+0x12>
 800950e:	f001 f849 	bl	800a5a4 <__sinit>
 8009512:	4b21      	ldr	r3, [pc, #132]	; (8009598 <__swbuf_r+0x98>)
 8009514:	429c      	cmp	r4, r3
 8009516:	d12b      	bne.n	8009570 <__swbuf_r+0x70>
 8009518:	686c      	ldr	r4, [r5, #4]
 800951a:	69a3      	ldr	r3, [r4, #24]
 800951c:	60a3      	str	r3, [r4, #8]
 800951e:	89a3      	ldrh	r3, [r4, #12]
 8009520:	071a      	lsls	r2, r3, #28
 8009522:	d52f      	bpl.n	8009584 <__swbuf_r+0x84>
 8009524:	6923      	ldr	r3, [r4, #16]
 8009526:	b36b      	cbz	r3, 8009584 <__swbuf_r+0x84>
 8009528:	6923      	ldr	r3, [r4, #16]
 800952a:	6820      	ldr	r0, [r4, #0]
 800952c:	1ac0      	subs	r0, r0, r3
 800952e:	6963      	ldr	r3, [r4, #20]
 8009530:	b2f6      	uxtb	r6, r6
 8009532:	4283      	cmp	r3, r0
 8009534:	4637      	mov	r7, r6
 8009536:	dc04      	bgt.n	8009542 <__swbuf_r+0x42>
 8009538:	4621      	mov	r1, r4
 800953a:	4628      	mov	r0, r5
 800953c:	f000 ff9e 	bl	800a47c <_fflush_r>
 8009540:	bb30      	cbnz	r0, 8009590 <__swbuf_r+0x90>
 8009542:	68a3      	ldr	r3, [r4, #8]
 8009544:	3b01      	subs	r3, #1
 8009546:	60a3      	str	r3, [r4, #8]
 8009548:	6823      	ldr	r3, [r4, #0]
 800954a:	1c5a      	adds	r2, r3, #1
 800954c:	6022      	str	r2, [r4, #0]
 800954e:	701e      	strb	r6, [r3, #0]
 8009550:	6963      	ldr	r3, [r4, #20]
 8009552:	3001      	adds	r0, #1
 8009554:	4283      	cmp	r3, r0
 8009556:	d004      	beq.n	8009562 <__swbuf_r+0x62>
 8009558:	89a3      	ldrh	r3, [r4, #12]
 800955a:	07db      	lsls	r3, r3, #31
 800955c:	d506      	bpl.n	800956c <__swbuf_r+0x6c>
 800955e:	2e0a      	cmp	r6, #10
 8009560:	d104      	bne.n	800956c <__swbuf_r+0x6c>
 8009562:	4621      	mov	r1, r4
 8009564:	4628      	mov	r0, r5
 8009566:	f000 ff89 	bl	800a47c <_fflush_r>
 800956a:	b988      	cbnz	r0, 8009590 <__swbuf_r+0x90>
 800956c:	4638      	mov	r0, r7
 800956e:	bdf8      	pop	{r3, r4, r5, r6, r7, pc}
 8009570:	4b0a      	ldr	r3, [pc, #40]	; (800959c <__swbuf_r+0x9c>)
 8009572:	429c      	cmp	r4, r3
 8009574:	d101      	bne.n	800957a <__swbuf_r+0x7a>
 8009576:	68ac      	ldr	r4, [r5, #8]
 8009578:	e7cf      	b.n	800951a <__swbuf_r+0x1a>
 800957a:	4b09      	ldr	r3, [pc, #36]	; (80095a0 <__swbuf_r+0xa0>)
 800957c:	429c      	cmp	r4, r3
 800957e:	bf08      	it	eq
 8009580:	68ec      	ldreq	r4, [r5, #12]
 8009582:	e7ca      	b.n	800951a <__swbuf_r+0x1a>
 8009584:	4621      	mov	r1, r4
 8009586:	4628      	mov	r0, r5
 8009588:	f000 f80c 	bl	80095a4 <__swsetup_r>
 800958c:	2800      	cmp	r0, #0
 800958e:	d0cb      	beq.n	8009528 <__swbuf_r+0x28>
 8009590:	f04f 37ff 	mov.w	r7, #4294967295	; 0xffffffff
 8009594:	e7ea      	b.n	800956c <__swbuf_r+0x6c>
 8009596:	bf00      	nop
 8009598:	08044f68 	.word	0x08044f68
 800959c:	08044f88 	.word	0x08044f88
 80095a0:	08044f48 	.word	0x08044f48

080095a4 <__swsetup_r>:
 80095a4:	4b32      	ldr	r3, [pc, #200]	; (8009670 <__swsetup_r+0xcc>)
 80095a6:	b570      	push	{r4, r5, r6, lr}
 80095a8:	681d      	ldr	r5, [r3, #0]
 80095aa:	4606      	mov	r6, r0
 80095ac:	460c      	mov	r4, r1
 80095ae:	b125      	cbz	r5, 80095ba <__swsetup_r+0x16>
 80095b0:	69ab      	ldr	r3, [r5, #24]
 80095b2:	b913      	cbnz	r3, 80095ba <__swsetup_r+0x16>
 80095b4:	4628      	mov	r0, r5
 80095b6:	f000 fff5 	bl	800a5a4 <__sinit>
 80095ba:	4b2e      	ldr	r3, [pc, #184]	; (8009674 <__swsetup_r+0xd0>)
 80095bc:	429c      	cmp	r4, r3
 80095be:	d10f      	bne.n	80095e0 <__swsetup_r+0x3c>
 80095c0:	686c      	ldr	r4, [r5, #4]
 80095c2:	89a3      	ldrh	r3, [r4, #12]
 80095c4:	f9b4 200c 	ldrsh.w	r2, [r4, #12]
 80095c8:	0719      	lsls	r1, r3, #28
 80095ca:	d42c      	bmi.n	8009626 <__swsetup_r+0x82>
 80095cc:	06dd      	lsls	r5, r3, #27
 80095ce:	d411      	bmi.n	80095f4 <__swsetup_r+0x50>
 80095d0:	2309      	movs	r3, #9
 80095d2:	6033      	str	r3, [r6, #0]
 80095d4:	f042 0340 	orr.w	r3, r2, #64	; 0x40
 80095d8:	81a3      	strh	r3, [r4, #12]
 80095da:	f04f 30ff 	mov.w	r0, #4294967295	; 0xffffffff
 80095de:	e03e      	b.n	800965e <__swsetup_r+0xba>
 80095e0:	4b25      	ldr	r3, [pc, #148]	; (8009678 <__swsetup_r+0xd4>)
 80095e2:	429c      	cmp	r4, r3
 80095e4:	d101      	bne.n	80095ea <__swsetup_r+0x46>
 80095e6:	68ac      	ldr	r4, [r5, #8]
 80095e8:	e7eb      	b.n	80095c2 <__swsetup_r+0x1e>
 80095ea:	4b24      	ldr	r3, [pc, #144]	; (800967c <__swsetup_r+0xd8>)
 80095ec:	429c      	cmp	r4, r3
 80095ee:	bf08      	it	eq
 80095f0:	68ec      	ldreq	r4, [r5, #12]
 80095f2:	e7e6      	b.n	80095c2 <__swsetup_r+0x1e>
 80095f4:	0758      	lsls	r0, r3, #29
 80095f6:	d512      	bpl.n	800961e <__swsetup_r+0x7a>
 80095f8:	6b61      	ldr	r1, [r4, #52]	; 0x34
 80095fa:	b141      	cbz	r1, 800960e <__swsetup_r+0x6a>
 80095fc:	f104 0344 	add.w	r3, r4, #68	; 0x44
 8009600:	4299      	cmp	r1, r3
 8009602:	d002      	beq.n	800960a <__swsetup_r+0x66>
 8009604:	4630      	mov	r0, r6
 8009606:	f001 fc6d 	bl	800aee4 <_free_r>
 800960a:	2300      	movs	r3, #0
 800960c:	6363      	str	r3, [r4, #52]	; 0x34
 800960e:	89a3      	ldrh	r3, [r4, #12]
 8009610:	f023 0324 	bic.w	r3, r3, #36	; 0x24
 8009614:	81a3      	strh	r3, [r4, #12]
 8009616:	2300      	movs	r3, #0
 8009618:	6063      	str	r3, [r4, #4]
 800961a:	6923      	ldr	r3, [r4, #16]
 800961c:	6023      	str	r3, [r4, #0]
 800961e:	89a3      	ldrh	r3, [r4, #12]
 8009620:	f043 0308 	orr.w	r3, r3, #8
 8009624:	81a3      	strh	r3, [r4, #12]
 8009626:	6923      	ldr	r3, [r4, #16]
 8009628:	b94b      	cbnz	r3, 800963e <__swsetup_r+0x9a>
 800962a:	89a3      	ldrh	r3, [r4, #12]
 800962c:	f403 7320 	and.w	r3, r3, #640	; 0x280
 8009630:	f5b3 7f00 	cmp.w	r3, #512	; 0x200
 8009634:	d003      	beq.n	800963e <__swsetup_r+0x9a>
 8009636:	4621      	mov	r1, r4
 8009638:	4630      	mov	r0, r6
 800963a:	f001 f87d 	bl	800a738 <__smakebuf_r>
 800963e:	89a0      	ldrh	r0, [r4, #12]
 8009640:	f9b4 200c 	ldrsh.w	r2, [r4, #12]
 8009644:	f010 0301 	ands.w	r3, r0, #1
 8009648:	d00a      	beq.n	8009660 <__swsetup_r+0xbc>
 800964a:	2300      	movs	r3, #0
 800964c:	60a3      	str	r3, [r4, #8]
 800964e:	6963      	ldr	r3, [r4, #20]
 8009650:	425b      	negs	r3, r3
 8009652:	61a3      	str	r3, [r4, #24]
 8009654:	6923      	ldr	r3, [r4, #16]
 8009656:	b943      	cbnz	r3, 800966a <__swsetup_r+0xc6>
 8009658:	f010 0080 	ands.w	r0, r0, #128	; 0x80
 800965c:	d1ba      	bne.n	80095d4 <__swsetup_r+0x30>
 800965e:	bd70      	pop	{r4, r5, r6, pc}
 8009660:	0781      	lsls	r1, r0, #30
 8009662:	bf58      	it	pl
 8009664:	6963      	ldrpl	r3, [r4, #20]
 8009666:	60a3      	str	r3, [r4, #8]
 8009668:	e7f4      	b.n	8009654 <__swsetup_r+0xb0>
 800966a:	2000      	movs	r0, #0
 800966c:	e7f7      	b.n	800965e <__swsetup_r+0xba>
 800966e:	bf00      	nop
 8009670:	20000148 	.word	0x20000148
 8009674:	08044f68 	.word	0x08044f68
 8009678:	08044f88 	.word	0x08044f88
 800967c:	08044f48 	.word	0x08044f48

08009680 <quorem>:
 8009680:	e92d 4ff7 	stmdb	sp!, {r0, r1, r2, r4, r5, r6, r7, r8, r9, sl, fp, lr}
 8009684:	6903      	ldr	r3, [r0, #16]
 8009686:	690c      	ldr	r4, [r1, #16]
 8009688:	42a3      	cmp	r3, r4
 800968a:	4607      	mov	r7, r0
 800968c:	f2c0 8081 	blt.w	8009792 <quorem+0x112>
 8009690:	3c01      	subs	r4, #1
 8009692:	f101 0814 	add.w	r8, r1, #20
 8009696:	f100 0514 	add.w	r5, r0, #20
 800969a:	eb05 0384 	add.w	r3, r5, r4, lsl #2
 800969e:	9301      	str	r3, [sp, #4]
 80096a0:	f858 3024 	ldr.w	r3, [r8, r4, lsl #2]
 80096a4:	f855 2024 	ldr.w	r2, [r5, r4, lsl #2]
 80096a8:	3301      	adds	r3, #1
 80096aa:	429a      	cmp	r2, r3
 80096ac:	ea4f 0b84 	mov.w	fp, r4, lsl #2
 80096b0:	eb08 0984 	add.w	r9, r8, r4, lsl #2
 80096b4:	fbb2 f6f3 	udiv	r6, r2, r3
 80096b8:	d331      	bcc.n	800971e <quorem+0x9e>
 80096ba:	f04f 0e00 	mov.w	lr, #0
 80096be:	4640      	mov	r0, r8
 80096c0:	46ac      	mov	ip, r5
 80096c2:	46f2      	mov	sl, lr
 80096c4:	f850 2b04 	ldr.w	r2, [r0], #4
 80096c8:	b293      	uxth	r3, r2
 80096ca:	fb06 e303 	mla	r3, r6, r3, lr
 80096ce:	ea4f 4e13 	mov.w	lr, r3, lsr #16
 80096d2:	b29b      	uxth	r3, r3
 80096d4:	ebaa 0303 	sub.w	r3, sl, r3
 80096d8:	0c12      	lsrs	r2, r2, #16
 80096da:	f8dc a000 	ldr.w	sl, [ip]
 80096de:	fb06 e202 	mla	r2, r6, r2, lr
 80096e2:	fa13 f38a 	uxtah	r3, r3, sl
 80096e6:	ea4f 4e12 	mov.w	lr, r2, lsr #16
 80096ea:	fa1f fa82 	uxth.w	sl, r2
 80096ee:	f8dc 2000 	ldr.w	r2, [ip]
 80096f2:	ebca 4212 	rsb	r2, sl, r2, lsr #16
 80096f6:	eb02 4223 	add.w	r2, r2, r3, asr #16
 80096fa:	b29b      	uxth	r3, r3
 80096fc:	ea43 4302 	orr.w	r3, r3, r2, lsl #16
 8009700:	4581      	cmp	r9, r0
 8009702:	f84c 3b04 	str.w	r3, [ip], #4
 8009706:	ea4f 4a22 	mov.w	sl, r2, asr #16
 800970a:	d2db      	bcs.n	80096c4 <quorem+0x44>
 800970c:	f855 300b 	ldr.w	r3, [r5, fp]
 8009710:	b92b      	cbnz	r3, 800971e <quorem+0x9e>
 8009712:	9b01      	ldr	r3, [sp, #4]
 8009714:	3b04      	subs	r3, #4
 8009716:	429d      	cmp	r5, r3
 8009718:	461a      	mov	r2, r3
 800971a:	d32e      	bcc.n	800977a <quorem+0xfa>
 800971c:	613c      	str	r4, [r7, #16]
 800971e:	4638      	mov	r0, r7
 8009720:	f001 fad0 	bl	800acc4 <__mcmp>
 8009724:	2800      	cmp	r0, #0
 8009726:	db24      	blt.n	8009772 <quorem+0xf2>
 8009728:	3601      	adds	r6, #1
 800972a:	4628      	mov	r0, r5
 800972c:	f04f 0c00 	mov.w	ip, #0
 8009730:	f858 2b04 	ldr.w	r2, [r8], #4
 8009734:	f8d0 e000 	ldr.w	lr, [r0]
 8009738:	b293      	uxth	r3, r2
 800973a:	ebac 0303 	sub.w	r3, ip, r3
 800973e:	0c12      	lsrs	r2, r2, #16
 8009740:	fa13 f38e 	uxtah	r3, r3, lr
 8009744:	ebc2 421e 	rsb	r2, r2, lr, lsr #16
 8009748:	eb02 4223 	add.w	r2, r2, r3, asr #16
 800974c:	b29b      	uxth	r3, r3
 800974e:	ea43 4302 	orr.w	r3, r3, r2, lsl #16
 8009752:	45c1      	cmp	r9, r8
 8009754:	f840 3b04 	str.w	r3, [r0], #4
 8009758:	ea4f 4c22 	mov.w	ip, r2, asr #16
 800975c:	d2e8      	bcs.n	8009730 <quorem+0xb0>
 800975e:	f855 2024 	ldr.w	r2, [r5, r4, lsl #2]
 8009762:	eb05 0384 	add.w	r3, r5, r4, lsl #2
 8009766:	b922      	cbnz	r2, 8009772 <quorem+0xf2>
 8009768:	3b04      	subs	r3, #4
 800976a:	429d      	cmp	r5, r3
 800976c:	461a      	mov	r2, r3
 800976e:	d30a      	bcc.n	8009786 <quorem+0x106>
 8009770:	613c      	str	r4, [r7, #16]
 8009772:	4630      	mov	r0, r6
 8009774:	b003      	add	sp, #12
 8009776:	e8bd 8ff0 	ldmia.w	sp!, {r4, r5, r6, r7, r8, r9, sl, fp, pc}
 800977a:	6812      	ldr	r2, [r2, #0]
 800977c:	3b04      	subs	r3, #4
 800977e:	2a00      	cmp	r2, #0
 8009780:	d1cc      	bne.n	800971c <quorem+0x9c>
 8009782:	3c01      	subs	r4, #1
 8009784:	e7c7      	b.n	8009716 <quorem+0x96>
 8009786:	6812      	ldr	r2, [r2, #0]
 8009788:	3b04      	subs	r3, #4
 800978a:	2a00      	cmp	r2, #0
 800978c:	d1f0      	bne.n	8009770 <quorem+0xf0>
 800978e:	3c01      	subs	r4, #1
 8009790:	e7eb      	b.n	800976a <quorem+0xea>
 8009792:	2000      	movs	r0, #0
 8009794:	e7ee      	b.n	8009774 <quorem+0xf4>
	...

08009798 <_dtoa_r>:
 8009798:	e92d 4ff0 	stmdb	sp!, {r4, r5, r6, r7, r8, r9, sl, fp, lr}
 800979c:	ed2d 8b02 	vpush	{d8}
 80097a0:	ec57 6b10 	vmov	r6, r7, d0
 80097a4:	b095      	sub	sp, #84	; 0x54
 80097a6:	6a45      	ldr	r5, [r0, #36]	; 0x24
 80097a8:	f8dd 8080 	ldr.w	r8, [sp, #128]	; 0x80
 80097ac:	9105      	str	r1, [sp, #20]
 80097ae:	e9cd 6702 	strd	r6, r7, [sp, #8]
 80097b2:	4604      	mov	r4, r0
 80097b4:	9209      	str	r2, [sp, #36]	; 0x24
 80097b6:	930f      	str	r3, [sp, #60]	; 0x3c
 80097b8:	b975      	cbnz	r5, 80097d8 <_dtoa_r+0x40>
 80097ba:	2010      	movs	r0, #16
 80097bc:	f000 fffc 	bl	800a7b8 <malloc>
 80097c0:	4602      	mov	r2, r0
 80097c2:	6260      	str	r0, [r4, #36]	; 0x24
 80097c4:	b920      	cbnz	r0, 80097d0 <_dtoa_r+0x38>
 80097c6:	4bb2      	ldr	r3, [pc, #712]	; (8009a90 <_dtoa_r+0x2f8>)
 80097c8:	21ea      	movs	r1, #234	; 0xea
 80097ca:	48b2      	ldr	r0, [pc, #712]	; (8009a94 <_dtoa_r+0x2fc>)
 80097cc:	f001 fdf4 	bl	800b3b8 <__assert_func>
 80097d0:	e9c0 5501 	strd	r5, r5, [r0, #4]
 80097d4:	6005      	str	r5, [r0, #0]
 80097d6:	60c5      	str	r5, [r0, #12]
 80097d8:	6a63      	ldr	r3, [r4, #36]	; 0x24
 80097da:	6819      	ldr	r1, [r3, #0]
 80097dc:	b151      	cbz	r1, 80097f4 <_dtoa_r+0x5c>
 80097de:	685a      	ldr	r2, [r3, #4]
 80097e0:	604a      	str	r2, [r1, #4]
 80097e2:	2301      	movs	r3, #1
 80097e4:	4093      	lsls	r3, r2
 80097e6:	608b      	str	r3, [r1, #8]
 80097e8:	4620      	mov	r0, r4
 80097ea:	f001 f82d 	bl	800a848 <_Bfree>
 80097ee:	6a63      	ldr	r3, [r4, #36]	; 0x24
 80097f0:	2200      	movs	r2, #0
 80097f2:	601a      	str	r2, [r3, #0]
 80097f4:	1e3b      	subs	r3, r7, #0
 80097f6:	bfb9      	ittee	lt
 80097f8:	f023 4300 	biclt.w	r3, r3, #2147483648	; 0x80000000
 80097fc:	9303      	strlt	r3, [sp, #12]
 80097fe:	2300      	movge	r3, #0
 8009800:	f8c8 3000 	strge.w	r3, [r8]
 8009804:	f8dd 900c 	ldr.w	r9, [sp, #12]
 8009808:	4ba3      	ldr	r3, [pc, #652]	; (8009a98 <_dtoa_r+0x300>)
 800980a:	bfbc      	itt	lt
 800980c:	2201      	movlt	r2, #1
 800980e:	f8c8 2000 	strlt.w	r2, [r8]
 8009812:	ea33 0309 	bics.w	r3, r3, r9
 8009816:	d11b      	bne.n	8009850 <_dtoa_r+0xb8>
 8009818:	9a0f      	ldr	r2, [sp, #60]	; 0x3c
 800981a:	f242 730f 	movw	r3, #9999	; 0x270f
 800981e:	6013      	str	r3, [r2, #0]
 8009820:	f3c9 0313 	ubfx	r3, r9, #0, #20
 8009824:	4333      	orrs	r3, r6
 8009826:	f000 857a 	beq.w	800a31e <_dtoa_r+0xb86>
 800982a:	9b21      	ldr	r3, [sp, #132]	; 0x84
 800982c:	b963      	cbnz	r3, 8009848 <_dtoa_r+0xb0>
 800982e:	4b9b      	ldr	r3, [pc, #620]	; (8009a9c <_dtoa_r+0x304>)
 8009830:	e024      	b.n	800987c <_dtoa_r+0xe4>
 8009832:	4b9b      	ldr	r3, [pc, #620]	; (8009aa0 <_dtoa_r+0x308>)
 8009834:	9300      	str	r3, [sp, #0]
 8009836:	3308      	adds	r3, #8
 8009838:	9a21      	ldr	r2, [sp, #132]	; 0x84
 800983a:	6013      	str	r3, [r2, #0]
 800983c:	9800      	ldr	r0, [sp, #0]
 800983e:	b015      	add	sp, #84	; 0x54
 8009840:	ecbd 8b02 	vpop	{d8}
 8009844:	e8bd 8ff0 	ldmia.w	sp!, {r4, r5, r6, r7, r8, r9, sl, fp, pc}
 8009848:	4b94      	ldr	r3, [pc, #592]	; (8009a9c <_dtoa_r+0x304>)
 800984a:	9300      	str	r3, [sp, #0]
 800984c:	3303      	adds	r3, #3
 800984e:	e7f3      	b.n	8009838 <_dtoa_r+0xa0>
 8009850:	ed9d 7b02 	vldr	d7, [sp, #8]
 8009854:	2200      	movs	r2, #0
 8009856:	ec51 0b17 	vmov	r0, r1, d7
 800985a:	2300      	movs	r3, #0
 800985c:	ed8d 7b0a 	vstr	d7, [sp, #40]	; 0x28
 8009860:	f7f7 f93a 	bl	8000ad8 <__aeabi_dcmpeq>
 8009864:	4680      	mov	r8, r0
 8009866:	b158      	cbz	r0, 8009880 <_dtoa_r+0xe8>
 8009868:	9a0f      	ldr	r2, [sp, #60]	; 0x3c
 800986a:	2301      	movs	r3, #1
 800986c:	6013      	str	r3, [r2, #0]
 800986e:	9b21      	ldr	r3, [sp, #132]	; 0x84
 8009870:	2b00      	cmp	r3, #0
 8009872:	f000 8551 	beq.w	800a318 <_dtoa_r+0xb80>
 8009876:	488b      	ldr	r0, [pc, #556]	; (8009aa4 <_dtoa_r+0x30c>)
 8009878:	6018      	str	r0, [r3, #0]
 800987a:	1e43      	subs	r3, r0, #1
 800987c:	9300      	str	r3, [sp, #0]
 800987e:	e7dd      	b.n	800983c <_dtoa_r+0xa4>
 8009880:	ed9d 0b0a 	vldr	d0, [sp, #40]	; 0x28
 8009884:	aa12      	add	r2, sp, #72	; 0x48
 8009886:	a913      	add	r1, sp, #76	; 0x4c
 8009888:	4620      	mov	r0, r4
 800988a:	f001 fabf 	bl	800ae0c <__d2b>
 800988e:	f3c9 550a 	ubfx	r5, r9, #20, #11
 8009892:	4683      	mov	fp, r0
 8009894:	2d00      	cmp	r5, #0
 8009896:	d07c      	beq.n	8009992 <_dtoa_r+0x1fa>
 8009898:	9b0b      	ldr	r3, [sp, #44]	; 0x2c
 800989a:	f8cd 8040 	str.w	r8, [sp, #64]	; 0x40
 800989e:	f3c3 0313 	ubfx	r3, r3, #0, #20
 80098a2:	e9dd 670a 	ldrd	r6, r7, [sp, #40]	; 0x28
 80098a6:	f043 577f 	orr.w	r7, r3, #1069547520	; 0x3fc00000
 80098aa:	f447 1740 	orr.w	r7, r7, #3145728	; 0x300000
 80098ae:	f2a5 35ff 	subw	r5, r5, #1023	; 0x3ff
 80098b2:	4b7d      	ldr	r3, [pc, #500]	; (8009aa8 <_dtoa_r+0x310>)
 80098b4:	2200      	movs	r2, #0
 80098b6:	4630      	mov	r0, r6
 80098b8:	4639      	mov	r1, r7
 80098ba:	f7f6 fced 	bl	8000298 <__aeabi_dsub>
 80098be:	a36e      	add	r3, pc, #440	; (adr r3, 8009a78 <_dtoa_r+0x2e0>)
 80098c0:	e9d3 2300 	ldrd	r2, r3, [r3]
 80098c4:	f7f6 fea0 	bl	8000608 <__aeabi_dmul>
 80098c8:	a36d      	add	r3, pc, #436	; (adr r3, 8009a80 <_dtoa_r+0x2e8>)
 80098ca:	e9d3 2300 	ldrd	r2, r3, [r3]
 80098ce:	f7f6 fce5 	bl	800029c <__adddf3>
 80098d2:	4606      	mov	r6, r0
 80098d4:	4628      	mov	r0, r5
 80098d6:	460f      	mov	r7, r1
 80098d8:	f7f6 fe2c 	bl	8000534 <__aeabi_i2d>
 80098dc:	a36a      	add	r3, pc, #424	; (adr r3, 8009a88 <_dtoa_r+0x2f0>)
 80098de:	e9d3 2300 	ldrd	r2, r3, [r3]
 80098e2:	f7f6 fe91 	bl	8000608 <__aeabi_dmul>
 80098e6:	4602      	mov	r2, r0
 80098e8:	460b      	mov	r3, r1
 80098ea:	4630      	mov	r0, r6
 80098ec:	4639      	mov	r1, r7
 80098ee:	f7f6 fcd5 	bl	800029c <__adddf3>
 80098f2:	4606      	mov	r6, r0
 80098f4:	460f      	mov	r7, r1
 80098f6:	f7f7 f937 	bl	8000b68 <__aeabi_d2iz>
 80098fa:	2200      	movs	r2, #0
 80098fc:	4682      	mov	sl, r0
 80098fe:	2300      	movs	r3, #0
 8009900:	4630      	mov	r0, r6
 8009902:	4639      	mov	r1, r7
 8009904:	f7f7 f8f2 	bl	8000aec <__aeabi_dcmplt>
 8009908:	b148      	cbz	r0, 800991e <_dtoa_r+0x186>
 800990a:	4650      	mov	r0, sl
 800990c:	f7f6 fe12 	bl	8000534 <__aeabi_i2d>
 8009910:	4632      	mov	r2, r6
 8009912:	463b      	mov	r3, r7
 8009914:	f7f7 f8e0 	bl	8000ad8 <__aeabi_dcmpeq>
 8009918:	b908      	cbnz	r0, 800991e <_dtoa_r+0x186>
 800991a:	f10a 3aff 	add.w	sl, sl, #4294967295	; 0xffffffff
 800991e:	f1ba 0f16 	cmp.w	sl, #22
 8009922:	d854      	bhi.n	80099ce <_dtoa_r+0x236>
 8009924:	4b61      	ldr	r3, [pc, #388]	; (8009aac <_dtoa_r+0x314>)
 8009926:	eb03 03ca 	add.w	r3, r3, sl, lsl #3
 800992a:	e9d3 2300 	ldrd	r2, r3, [r3]
 800992e:	e9dd 010a 	ldrd	r0, r1, [sp, #40]	; 0x28
 8009932:	f7f7 f8db 	bl	8000aec <__aeabi_dcmplt>
 8009936:	2800      	cmp	r0, #0
 8009938:	d04b      	beq.n	80099d2 <_dtoa_r+0x23a>
 800993a:	f10a 3aff 	add.w	sl, sl, #4294967295	; 0xffffffff
 800993e:	2300      	movs	r3, #0
 8009940:	930e      	str	r3, [sp, #56]	; 0x38
 8009942:	9b12      	ldr	r3, [sp, #72]	; 0x48
 8009944:	1b5d      	subs	r5, r3, r5
 8009946:	1e6b      	subs	r3, r5, #1
 8009948:	9304      	str	r3, [sp, #16]
 800994a:	bf43      	ittte	mi
 800994c:	2300      	movmi	r3, #0
 800994e:	f1c5 0801 	rsbmi	r8, r5, #1
 8009952:	9304      	strmi	r3, [sp, #16]
 8009954:	f04f 0800 	movpl.w	r8, #0
 8009958:	f1ba 0f00 	cmp.w	sl, #0
 800995c:	db3b      	blt.n	80099d6 <_dtoa_r+0x23e>
 800995e:	9b04      	ldr	r3, [sp, #16]
 8009960:	f8cd a034 	str.w	sl, [sp, #52]	; 0x34
 8009964:	4453      	add	r3, sl
 8009966:	9304      	str	r3, [sp, #16]
 8009968:	2300      	movs	r3, #0
 800996a:	9306      	str	r3, [sp, #24]
 800996c:	9b05      	ldr	r3, [sp, #20]
 800996e:	2b09      	cmp	r3, #9
 8009970:	d869      	bhi.n	8009a46 <_dtoa_r+0x2ae>
 8009972:	2b05      	cmp	r3, #5
 8009974:	bfc4      	itt	gt
 8009976:	3b04      	subgt	r3, #4
 8009978:	9305      	strgt	r3, [sp, #20]
 800997a:	9b05      	ldr	r3, [sp, #20]
 800997c:	f1a3 0302 	sub.w	r3, r3, #2
 8009980:	bfcc      	ite	gt
 8009982:	2500      	movgt	r5, #0
 8009984:	2501      	movle	r5, #1
 8009986:	2b03      	cmp	r3, #3
 8009988:	d869      	bhi.n	8009a5e <_dtoa_r+0x2c6>
 800998a:	e8df f003 	tbb	[pc, r3]
 800998e:	4e2c      	.short	0x4e2c
 8009990:	5a4c      	.short	0x5a4c
 8009992:	e9dd 5312 	ldrd	r5, r3, [sp, #72]	; 0x48
 8009996:	441d      	add	r5, r3
 8009998:	f205 4332 	addw	r3, r5, #1074	; 0x432
 800999c:	2b20      	cmp	r3, #32
 800999e:	bfc1      	itttt	gt
 80099a0:	f1c3 0340 	rsbgt	r3, r3, #64	; 0x40
 80099a4:	f205 4012 	addwgt	r0, r5, #1042	; 0x412
 80099a8:	fa09 f303 	lslgt.w	r3, r9, r3
 80099ac:	fa26 f000 	lsrgt.w	r0, r6, r0
 80099b0:	bfda      	itte	le
 80099b2:	f1c3 0320 	rsble	r3, r3, #32
 80099b6:	fa06 f003 	lslle.w	r0, r6, r3
 80099ba:	4318      	orrgt	r0, r3
 80099bc:	f7f6 fdaa 	bl	8000514 <__aeabi_ui2d>
 80099c0:	2301      	movs	r3, #1
 80099c2:	4606      	mov	r6, r0
 80099c4:	f1a1 77f8 	sub.w	r7, r1, #32505856	; 0x1f00000
 80099c8:	3d01      	subs	r5, #1
 80099ca:	9310      	str	r3, [sp, #64]	; 0x40
 80099cc:	e771      	b.n	80098b2 <_dtoa_r+0x11a>
 80099ce:	2301      	movs	r3, #1
 80099d0:	e7b6      	b.n	8009940 <_dtoa_r+0x1a8>
 80099d2:	900e      	str	r0, [sp, #56]	; 0x38
 80099d4:	e7b5      	b.n	8009942 <_dtoa_r+0x1aa>
 80099d6:	f1ca 0300 	rsb	r3, sl, #0
 80099da:	9306      	str	r3, [sp, #24]
 80099dc:	2300      	movs	r3, #0
 80099de:	eba8 080a 	sub.w	r8, r8, sl
 80099e2:	930d      	str	r3, [sp, #52]	; 0x34
 80099e4:	e7c2      	b.n	800996c <_dtoa_r+0x1d4>
 80099e6:	2300      	movs	r3, #0
 80099e8:	9308      	str	r3, [sp, #32]
 80099ea:	9b09      	ldr	r3, [sp, #36]	; 0x24
 80099ec:	2b00      	cmp	r3, #0
 80099ee:	dc39      	bgt.n	8009a64 <_dtoa_r+0x2cc>
 80099f0:	f04f 0901 	mov.w	r9, #1
 80099f4:	f8cd 9004 	str.w	r9, [sp, #4]
 80099f8:	464b      	mov	r3, r9
 80099fa:	f8cd 9024 	str.w	r9, [sp, #36]	; 0x24
 80099fe:	6a60      	ldr	r0, [r4, #36]	; 0x24
 8009a00:	2200      	movs	r2, #0
 8009a02:	6042      	str	r2, [r0, #4]
 8009a04:	2204      	movs	r2, #4
 8009a06:	f102 0614 	add.w	r6, r2, #20
 8009a0a:	429e      	cmp	r6, r3
 8009a0c:	6841      	ldr	r1, [r0, #4]
 8009a0e:	d92f      	bls.n	8009a70 <_dtoa_r+0x2d8>
 8009a10:	4620      	mov	r0, r4
 8009a12:	f000 fed9 	bl	800a7c8 <_Balloc>
 8009a16:	9000      	str	r0, [sp, #0]
 8009a18:	2800      	cmp	r0, #0
 8009a1a:	d14b      	bne.n	8009ab4 <_dtoa_r+0x31c>
 8009a1c:	4b24      	ldr	r3, [pc, #144]	; (8009ab0 <_dtoa_r+0x318>)
 8009a1e:	4602      	mov	r2, r0
 8009a20:	f44f 71d5 	mov.w	r1, #426	; 0x1aa
 8009a24:	e6d1      	b.n	80097ca <_dtoa_r+0x32>
 8009a26:	2301      	movs	r3, #1
 8009a28:	e7de      	b.n	80099e8 <_dtoa_r+0x250>
 8009a2a:	2300      	movs	r3, #0
 8009a2c:	9308      	str	r3, [sp, #32]
 8009a2e:	9b09      	ldr	r3, [sp, #36]	; 0x24
 8009a30:	eb0a 0903 	add.w	r9, sl, r3
 8009a34:	f109 0301 	add.w	r3, r9, #1
 8009a38:	2b01      	cmp	r3, #1
 8009a3a:	9301      	str	r3, [sp, #4]
 8009a3c:	bfb8      	it	lt
 8009a3e:	2301      	movlt	r3, #1
 8009a40:	e7dd      	b.n	80099fe <_dtoa_r+0x266>
 8009a42:	2301      	movs	r3, #1
 8009a44:	e7f2      	b.n	8009a2c <_dtoa_r+0x294>
 8009a46:	2501      	movs	r5, #1
 8009a48:	2300      	movs	r3, #0
 8009a4a:	9305      	str	r3, [sp, #20]
 8009a4c:	9508      	str	r5, [sp, #32]
 8009a4e:	f04f 39ff 	mov.w	r9, #4294967295	; 0xffffffff
 8009a52:	2200      	movs	r2, #0
 8009a54:	f8cd 9004 	str.w	r9, [sp, #4]
 8009a58:	2312      	movs	r3, #18
 8009a5a:	9209      	str	r2, [sp, #36]	; 0x24
 8009a5c:	e7cf      	b.n	80099fe <_dtoa_r+0x266>
 8009a5e:	2301      	movs	r3, #1
 8009a60:	9308      	str	r3, [sp, #32]
 8009a62:	e7f4      	b.n	8009a4e <_dtoa_r+0x2b6>
 8009a64:	f8dd 9024 	ldr.w	r9, [sp, #36]	; 0x24
 8009a68:	f8cd 9004 	str.w	r9, [sp, #4]
 8009a6c:	464b      	mov	r3, r9
 8009a6e:	e7c6      	b.n	80099fe <_dtoa_r+0x266>
 8009a70:	3101      	adds	r1, #1
 8009a72:	6041      	str	r1, [r0, #4]
 8009a74:	0052      	lsls	r2, r2, #1
 8009a76:	e7c6      	b.n	8009a06 <_dtoa_r+0x26e>
 8009a78:	636f4361 	.word	0x636f4361
 8009a7c:	3fd287a7 	.word	0x3fd287a7
 8009a80:	8b60c8b3 	.word	0x8b60c8b3
 8009a84:	3fc68a28 	.word	0x3fc68a28
 8009a88:	509f79fb 	.word	0x509f79fb
 8009a8c:	3fd34413 	.word	0x3fd34413
 8009a90:	08044ec1 	.word	0x08044ec1
 8009a94:	08044ed8 	.word	0x08044ed8
 8009a98:	7ff00000 	.word	0x7ff00000
 8009a9c:	08044ebd 	.word	0x08044ebd
 8009aa0:	08044eb4 	.word	0x08044eb4
 8009aa4:	08044e91 	.word	0x08044e91
 8009aa8:	3ff80000 	.word	0x3ff80000
 8009aac:	08045030 	.word	0x08045030
 8009ab0:	08044f37 	.word	0x08044f37
 8009ab4:	6a63      	ldr	r3, [r4, #36]	; 0x24
 8009ab6:	9a00      	ldr	r2, [sp, #0]
 8009ab8:	601a      	str	r2, [r3, #0]
 8009aba:	9b01      	ldr	r3, [sp, #4]
 8009abc:	2b0e      	cmp	r3, #14
 8009abe:	f200 80ad 	bhi.w	8009c1c <_dtoa_r+0x484>
 8009ac2:	2d00      	cmp	r5, #0
 8009ac4:	f000 80aa 	beq.w	8009c1c <_dtoa_r+0x484>
 8009ac8:	f1ba 0f00 	cmp.w	sl, #0
 8009acc:	dd36      	ble.n	8009b3c <_dtoa_r+0x3a4>
 8009ace:	4ac3      	ldr	r2, [pc, #780]	; (8009ddc <_dtoa_r+0x644>)
 8009ad0:	f00a 030f 	and.w	r3, sl, #15
 8009ad4:	eb02 03c3 	add.w	r3, r2, r3, lsl #3
 8009ad8:	ed93 7b00 	vldr	d7, [r3]
 8009adc:	f41a 7f80 	tst.w	sl, #256	; 0x100
 8009ae0:	ea4f 172a 	mov.w	r7, sl, asr #4
 8009ae4:	eeb0 8a47 	vmov.f32	s16, s14
 8009ae8:	eef0 8a67 	vmov.f32	s17, s15
 8009aec:	d016      	beq.n	8009b1c <_dtoa_r+0x384>
 8009aee:	4bbc      	ldr	r3, [pc, #752]	; (8009de0 <_dtoa_r+0x648>)
 8009af0:	e9dd 010a 	ldrd	r0, r1, [sp, #40]	; 0x28
 8009af4:	e9d3 2308 	ldrd	r2, r3, [r3, #32]
 8009af8:	f7f6 feb0 	bl	800085c <__aeabi_ddiv>
 8009afc:	e9cd 0102 	strd	r0, r1, [sp, #8]
 8009b00:	f007 070f 	and.w	r7, r7, #15
 8009b04:	2503      	movs	r5, #3
 8009b06:	4eb6      	ldr	r6, [pc, #728]	; (8009de0 <_dtoa_r+0x648>)
 8009b08:	b957      	cbnz	r7, 8009b20 <_dtoa_r+0x388>
 8009b0a:	e9dd 0102 	ldrd	r0, r1, [sp, #8]
 8009b0e:	ec53 2b18 	vmov	r2, r3, d8
 8009b12:	f7f6 fea3 	bl	800085c <__aeabi_ddiv>
 8009b16:	e9cd 0102 	strd	r0, r1, [sp, #8]
 8009b1a:	e029      	b.n	8009b70 <_dtoa_r+0x3d8>
 8009b1c:	2502      	movs	r5, #2
 8009b1e:	e7f2      	b.n	8009b06 <_dtoa_r+0x36e>
 8009b20:	07f9      	lsls	r1, r7, #31
 8009b22:	d508      	bpl.n	8009b36 <_dtoa_r+0x39e>
 8009b24:	ec51 0b18 	vmov	r0, r1, d8
 8009b28:	e9d6 2300 	ldrd	r2, r3, [r6]
 8009b2c:	f7f6 fd6c 	bl	8000608 <__aeabi_dmul>
 8009b30:	ec41 0b18 	vmov	d8, r0, r1
 8009b34:	3501      	adds	r5, #1
 8009b36:	107f      	asrs	r7, r7, #1
 8009b38:	3608      	adds	r6, #8
 8009b3a:	e7e5      	b.n	8009b08 <_dtoa_r+0x370>
 8009b3c:	f000 80a6 	beq.w	8009c8c <_dtoa_r+0x4f4>
 8009b40:	f1ca 0600 	rsb	r6, sl, #0
 8009b44:	4ba5      	ldr	r3, [pc, #660]	; (8009ddc <_dtoa_r+0x644>)
 8009b46:	4fa6      	ldr	r7, [pc, #664]	; (8009de0 <_dtoa_r+0x648>)
 8009b48:	f006 020f 	and.w	r2, r6, #15
 8009b4c:	eb03 03c2 	add.w	r3, r3, r2, lsl #3
 8009b50:	e9d3 2300 	ldrd	r2, r3, [r3]
 8009b54:	e9dd 010a 	ldrd	r0, r1, [sp, #40]	; 0x28
 8009b58:	f7f6 fd56 	bl	8000608 <__aeabi_dmul>
 8009b5c:	e9cd 0102 	strd	r0, r1, [sp, #8]
 8009b60:	1136      	asrs	r6, r6, #4
 8009b62:	2300      	movs	r3, #0
 8009b64:	2502      	movs	r5, #2
 8009b66:	2e00      	cmp	r6, #0
 8009b68:	f040 8085 	bne.w	8009c76 <_dtoa_r+0x4de>
 8009b6c:	2b00      	cmp	r3, #0
 8009b6e:	d1d2      	bne.n	8009b16 <_dtoa_r+0x37e>
 8009b70:	9b0e      	ldr	r3, [sp, #56]	; 0x38
 8009b72:	2b00      	cmp	r3, #0
 8009b74:	f000 808c 	beq.w	8009c90 <_dtoa_r+0x4f8>
 8009b78:	e9dd 6702 	ldrd	r6, r7, [sp, #8]
 8009b7c:	4b99      	ldr	r3, [pc, #612]	; (8009de4 <_dtoa_r+0x64c>)
 8009b7e:	2200      	movs	r2, #0
 8009b80:	4630      	mov	r0, r6
 8009b82:	4639      	mov	r1, r7
 8009b84:	f7f6 ffb2 	bl	8000aec <__aeabi_dcmplt>
 8009b88:	2800      	cmp	r0, #0
 8009b8a:	f000 8081 	beq.w	8009c90 <_dtoa_r+0x4f8>
 8009b8e:	9b01      	ldr	r3, [sp, #4]
 8009b90:	2b00      	cmp	r3, #0
 8009b92:	d07d      	beq.n	8009c90 <_dtoa_r+0x4f8>
 8009b94:	f1b9 0f00 	cmp.w	r9, #0
 8009b98:	dd3c      	ble.n	8009c14 <_dtoa_r+0x47c>
 8009b9a:	f10a 33ff 	add.w	r3, sl, #4294967295	; 0xffffffff
 8009b9e:	9307      	str	r3, [sp, #28]
 8009ba0:	2200      	movs	r2, #0
 8009ba2:	4b91      	ldr	r3, [pc, #580]	; (8009de8 <_dtoa_r+0x650>)
 8009ba4:	4630      	mov	r0, r6
 8009ba6:	4639      	mov	r1, r7
 8009ba8:	f7f6 fd2e 	bl	8000608 <__aeabi_dmul>
 8009bac:	e9cd 0102 	strd	r0, r1, [sp, #8]
 8009bb0:	3501      	adds	r5, #1
 8009bb2:	f8cd 9030 	str.w	r9, [sp, #48]	; 0x30
 8009bb6:	e9dd 6702 	ldrd	r6, r7, [sp, #8]
 8009bba:	4628      	mov	r0, r5
 8009bbc:	f7f6 fcba 	bl	8000534 <__aeabi_i2d>
 8009bc0:	4632      	mov	r2, r6
 8009bc2:	463b      	mov	r3, r7
 8009bc4:	f7f6 fd20 	bl	8000608 <__aeabi_dmul>
 8009bc8:	4b88      	ldr	r3, [pc, #544]	; (8009dec <_dtoa_r+0x654>)
 8009bca:	2200      	movs	r2, #0
 8009bcc:	f7f6 fb66 	bl	800029c <__adddf3>
 8009bd0:	f1a1 7350 	sub.w	r3, r1, #54525952	; 0x3400000
 8009bd4:	e9cd 0102 	strd	r0, r1, [sp, #8]
 8009bd8:	9303      	str	r3, [sp, #12]
 8009bda:	9b0c      	ldr	r3, [sp, #48]	; 0x30
 8009bdc:	2b00      	cmp	r3, #0
 8009bde:	d15c      	bne.n	8009c9a <_dtoa_r+0x502>
 8009be0:	4b83      	ldr	r3, [pc, #524]	; (8009df0 <_dtoa_r+0x658>)
 8009be2:	2200      	movs	r2, #0
 8009be4:	4630      	mov	r0, r6
 8009be6:	4639      	mov	r1, r7
 8009be8:	f7f6 fb56 	bl	8000298 <__aeabi_dsub>
 8009bec:	e9dd 2302 	ldrd	r2, r3, [sp, #8]
 8009bf0:	4606      	mov	r6, r0
 8009bf2:	460f      	mov	r7, r1
 8009bf4:	f7f6 ff98 	bl	8000b28 <__aeabi_dcmpgt>
 8009bf8:	2800      	cmp	r0, #0
 8009bfa:	f040 8296 	bne.w	800a12a <_dtoa_r+0x992>
 8009bfe:	e9dd 2102 	ldrd	r2, r1, [sp, #8]
 8009c02:	4630      	mov	r0, r6
 8009c04:	f101 4300 	add.w	r3, r1, #2147483648	; 0x80000000
 8009c08:	4639      	mov	r1, r7
 8009c0a:	f7f6 ff6f 	bl	8000aec <__aeabi_dcmplt>
 8009c0e:	2800      	cmp	r0, #0
 8009c10:	f040 8288 	bne.w	800a124 <_dtoa_r+0x98c>
 8009c14:	e9dd 230a 	ldrd	r2, r3, [sp, #40]	; 0x28
 8009c18:	e9cd 2302 	strd	r2, r3, [sp, #8]
 8009c1c:	9b13      	ldr	r3, [sp, #76]	; 0x4c
 8009c1e:	2b00      	cmp	r3, #0
 8009c20:	f2c0 8158 	blt.w	8009ed4 <_dtoa_r+0x73c>
 8009c24:	f1ba 0f0e 	cmp.w	sl, #14
 8009c28:	f300 8154 	bgt.w	8009ed4 <_dtoa_r+0x73c>
 8009c2c:	4b6b      	ldr	r3, [pc, #428]	; (8009ddc <_dtoa_r+0x644>)
 8009c2e:	eb03 03ca 	add.w	r3, r3, sl, lsl #3
 8009c32:	e9d3 8900 	ldrd	r8, r9, [r3]
 8009c36:	9b09      	ldr	r3, [sp, #36]	; 0x24
 8009c38:	2b00      	cmp	r3, #0
 8009c3a:	f280 80e3 	bge.w	8009e04 <_dtoa_r+0x66c>
 8009c3e:	9b01      	ldr	r3, [sp, #4]
 8009c40:	2b00      	cmp	r3, #0
 8009c42:	f300 80df 	bgt.w	8009e04 <_dtoa_r+0x66c>
 8009c46:	f040 826d 	bne.w	800a124 <_dtoa_r+0x98c>
 8009c4a:	4b69      	ldr	r3, [pc, #420]	; (8009df0 <_dtoa_r+0x658>)
 8009c4c:	2200      	movs	r2, #0
 8009c4e:	4640      	mov	r0, r8
 8009c50:	4649      	mov	r1, r9
 8009c52:	f7f6 fcd9 	bl	8000608 <__aeabi_dmul>
 8009c56:	e9dd 2302 	ldrd	r2, r3, [sp, #8]
 8009c5a:	f7f6 ff5b 	bl	8000b14 <__aeabi_dcmpge>
 8009c5e:	9e01      	ldr	r6, [sp, #4]
 8009c60:	4637      	mov	r7, r6
 8009c62:	2800      	cmp	r0, #0
 8009c64:	f040 8243 	bne.w	800a0ee <_dtoa_r+0x956>
 8009c68:	9d00      	ldr	r5, [sp, #0]
 8009c6a:	2331      	movs	r3, #49	; 0x31
 8009c6c:	f805 3b01 	strb.w	r3, [r5], #1
 8009c70:	f10a 0a01 	add.w	sl, sl, #1
 8009c74:	e23f      	b.n	800a0f6 <_dtoa_r+0x95e>
 8009c76:	07f2      	lsls	r2, r6, #31
 8009c78:	d505      	bpl.n	8009c86 <_dtoa_r+0x4ee>
 8009c7a:	e9d7 2300 	ldrd	r2, r3, [r7]
 8009c7e:	f7f6 fcc3 	bl	8000608 <__aeabi_dmul>
 8009c82:	3501      	adds	r5, #1
 8009c84:	2301      	movs	r3, #1
 8009c86:	1076      	asrs	r6, r6, #1
 8009c88:	3708      	adds	r7, #8
 8009c8a:	e76c      	b.n	8009b66 <_dtoa_r+0x3ce>
 8009c8c:	2502      	movs	r5, #2
 8009c8e:	e76f      	b.n	8009b70 <_dtoa_r+0x3d8>
 8009c90:	9b01      	ldr	r3, [sp, #4]
 8009c92:	f8cd a01c 	str.w	sl, [sp, #28]
 8009c96:	930c      	str	r3, [sp, #48]	; 0x30
 8009c98:	e78d      	b.n	8009bb6 <_dtoa_r+0x41e>
 8009c9a:	9900      	ldr	r1, [sp, #0]
 8009c9c:	980c      	ldr	r0, [sp, #48]	; 0x30
 8009c9e:	9a0c      	ldr	r2, [sp, #48]	; 0x30
 8009ca0:	4b4e      	ldr	r3, [pc, #312]	; (8009ddc <_dtoa_r+0x644>)
 8009ca2:	ed9d 7b02 	vldr	d7, [sp, #8]
 8009ca6:	4401      	add	r1, r0
 8009ca8:	9102      	str	r1, [sp, #8]
 8009caa:	9908      	ldr	r1, [sp, #32]
 8009cac:	eeb0 8a47 	vmov.f32	s16, s14
 8009cb0:	eef0 8a67 	vmov.f32	s17, s15
 8009cb4:	eb03 03c2 	add.w	r3, r3, r2, lsl #3
 8009cb8:	e953 2302 	ldrd	r2, r3, [r3, #-8]
 8009cbc:	2900      	cmp	r1, #0
 8009cbe:	d045      	beq.n	8009d4c <_dtoa_r+0x5b4>
 8009cc0:	494c      	ldr	r1, [pc, #304]	; (8009df4 <_dtoa_r+0x65c>)
 8009cc2:	2000      	movs	r0, #0
 8009cc4:	f7f6 fdca 	bl	800085c <__aeabi_ddiv>
 8009cc8:	ec53 2b18 	vmov	r2, r3, d8
 8009ccc:	f7f6 fae4 	bl	8000298 <__aeabi_dsub>
 8009cd0:	9d00      	ldr	r5, [sp, #0]
 8009cd2:	ec41 0b18 	vmov	d8, r0, r1
 8009cd6:	4639      	mov	r1, r7
 8009cd8:	4630      	mov	r0, r6
 8009cda:	f7f6 ff45 	bl	8000b68 <__aeabi_d2iz>
 8009cde:	900c      	str	r0, [sp, #48]	; 0x30
 8009ce0:	f7f6 fc28 	bl	8000534 <__aeabi_i2d>
 8009ce4:	4602      	mov	r2, r0
 8009ce6:	460b      	mov	r3, r1
 8009ce8:	4630      	mov	r0, r6
 8009cea:	4639      	mov	r1, r7
 8009cec:	f7f6 fad4 	bl	8000298 <__aeabi_dsub>
 8009cf0:	9b0c      	ldr	r3, [sp, #48]	; 0x30
 8009cf2:	3330      	adds	r3, #48	; 0x30
 8009cf4:	f805 3b01 	strb.w	r3, [r5], #1
 8009cf8:	ec53 2b18 	vmov	r2, r3, d8
 8009cfc:	4606      	mov	r6, r0
 8009cfe:	460f      	mov	r7, r1
 8009d00:	f7f6 fef4 	bl	8000aec <__aeabi_dcmplt>
 8009d04:	2800      	cmp	r0, #0
 8009d06:	d165      	bne.n	8009dd4 <_dtoa_r+0x63c>
 8009d08:	4632      	mov	r2, r6
 8009d0a:	463b      	mov	r3, r7
 8009d0c:	4935      	ldr	r1, [pc, #212]	; (8009de4 <_dtoa_r+0x64c>)
 8009d0e:	2000      	movs	r0, #0
 8009d10:	f7f6 fac2 	bl	8000298 <__aeabi_dsub>
 8009d14:	ec53 2b18 	vmov	r2, r3, d8
 8009d18:	f7f6 fee8 	bl	8000aec <__aeabi_dcmplt>
 8009d1c:	2800      	cmp	r0, #0
 8009d1e:	f040 80b9 	bne.w	8009e94 <_dtoa_r+0x6fc>
 8009d22:	9b02      	ldr	r3, [sp, #8]
 8009d24:	429d      	cmp	r5, r3
 8009d26:	f43f af75 	beq.w	8009c14 <_dtoa_r+0x47c>
 8009d2a:	4b2f      	ldr	r3, [pc, #188]	; (8009de8 <_dtoa_r+0x650>)
 8009d2c:	ec51 0b18 	vmov	r0, r1, d8
 8009d30:	2200      	movs	r2, #0
 8009d32:	f7f6 fc69 	bl	8000608 <__aeabi_dmul>
 8009d36:	4b2c      	ldr	r3, [pc, #176]	; (8009de8 <_dtoa_r+0x650>)
 8009d38:	ec41 0b18 	vmov	d8, r0, r1
 8009d3c:	2200      	movs	r2, #0
 8009d3e:	4630      	mov	r0, r6
 8009d40:	4639      	mov	r1, r7
 8009d42:	f7f6 fc61 	bl	8000608 <__aeabi_dmul>
 8009d46:	4606      	mov	r6, r0
 8009d48:	460f      	mov	r7, r1
 8009d4a:	e7c4      	b.n	8009cd6 <_dtoa_r+0x53e>
 8009d4c:	ec51 0b17 	vmov	r0, r1, d7
 8009d50:	f7f6 fc5a 	bl	8000608 <__aeabi_dmul>
 8009d54:	9b02      	ldr	r3, [sp, #8]
 8009d56:	9d00      	ldr	r5, [sp, #0]
 8009d58:	930c      	str	r3, [sp, #48]	; 0x30
 8009d5a:	ec41 0b18 	vmov	d8, r0, r1
 8009d5e:	4639      	mov	r1, r7
 8009d60:	4630      	mov	r0, r6
 8009d62:	f7f6 ff01 	bl	8000b68 <__aeabi_d2iz>
 8009d66:	9011      	str	r0, [sp, #68]	; 0x44
 8009d68:	f7f6 fbe4 	bl	8000534 <__aeabi_i2d>
 8009d6c:	4602      	mov	r2, r0
 8009d6e:	460b      	mov	r3, r1
 8009d70:	4630      	mov	r0, r6
 8009d72:	4639      	mov	r1, r7
 8009d74:	f7f6 fa90 	bl	8000298 <__aeabi_dsub>
 8009d78:	9b11      	ldr	r3, [sp, #68]	; 0x44
 8009d7a:	3330      	adds	r3, #48	; 0x30
 8009d7c:	f805 3b01 	strb.w	r3, [r5], #1
 8009d80:	9b02      	ldr	r3, [sp, #8]
 8009d82:	429d      	cmp	r5, r3
 8009d84:	4606      	mov	r6, r0
 8009d86:	460f      	mov	r7, r1
 8009d88:	f04f 0200 	mov.w	r2, #0
 8009d8c:	d134      	bne.n	8009df8 <_dtoa_r+0x660>
 8009d8e:	4b19      	ldr	r3, [pc, #100]	; (8009df4 <_dtoa_r+0x65c>)
 8009d90:	ec51 0b18 	vmov	r0, r1, d8
 8009d94:	f7f6 fa82 	bl	800029c <__adddf3>
 8009d98:	4602      	mov	r2, r0
 8009d9a:	460b      	mov	r3, r1
 8009d9c:	4630      	mov	r0, r6
 8009d9e:	4639      	mov	r1, r7
 8009da0:	f7f6 fec2 	bl	8000b28 <__aeabi_dcmpgt>
 8009da4:	2800      	cmp	r0, #0
 8009da6:	d175      	bne.n	8009e94 <_dtoa_r+0x6fc>
 8009da8:	ec53 2b18 	vmov	r2, r3, d8
 8009dac:	4911      	ldr	r1, [pc, #68]	; (8009df4 <_dtoa_r+0x65c>)
 8009dae:	2000      	movs	r0, #0
 8009db0:	f7f6 fa72 	bl	8000298 <__aeabi_dsub>
 8009db4:	4602      	mov	r2, r0
 8009db6:	460b      	mov	r3, r1
 8009db8:	4630      	mov	r0, r6
 8009dba:	4639      	mov	r1, r7
 8009dbc:	f7f6 fe96 	bl	8000aec <__aeabi_dcmplt>
 8009dc0:	2800      	cmp	r0, #0
 8009dc2:	f43f af27 	beq.w	8009c14 <_dtoa_r+0x47c>
 8009dc6:	9d0c      	ldr	r5, [sp, #48]	; 0x30
 8009dc8:	1e6b      	subs	r3, r5, #1
 8009dca:	930c      	str	r3, [sp, #48]	; 0x30
 8009dcc:	f815 3c01 	ldrb.w	r3, [r5, #-1]
 8009dd0:	2b30      	cmp	r3, #48	; 0x30
 8009dd2:	d0f8      	beq.n	8009dc6 <_dtoa_r+0x62e>
 8009dd4:	f8dd a01c 	ldr.w	sl, [sp, #28]
 8009dd8:	e04a      	b.n	8009e70 <_dtoa_r+0x6d8>
 8009dda:	bf00      	nop
 8009ddc:	08045030 	.word	0x08045030
 8009de0:	08045008 	.word	0x08045008
 8009de4:	3ff00000 	.word	0x3ff00000
 8009de8:	40240000 	.word	0x40240000
 8009dec:	401c0000 	.word	0x401c0000
 8009df0:	40140000 	.word	0x40140000
 8009df4:	3fe00000 	.word	0x3fe00000
 8009df8:	4baf      	ldr	r3, [pc, #700]	; (800a0b8 <_dtoa_r+0x920>)
 8009dfa:	f7f6 fc05 	bl	8000608 <__aeabi_dmul>
 8009dfe:	4606      	mov	r6, r0
 8009e00:	460f      	mov	r7, r1
 8009e02:	e7ac      	b.n	8009d5e <_dtoa_r+0x5c6>
 8009e04:	e9dd 6702 	ldrd	r6, r7, [sp, #8]
 8009e08:	9d00      	ldr	r5, [sp, #0]
 8009e0a:	4642      	mov	r2, r8
 8009e0c:	464b      	mov	r3, r9
 8009e0e:	4630      	mov	r0, r6
 8009e10:	4639      	mov	r1, r7
 8009e12:	f7f6 fd23 	bl	800085c <__aeabi_ddiv>
 8009e16:	f7f6 fea7 	bl	8000b68 <__aeabi_d2iz>
 8009e1a:	9002      	str	r0, [sp, #8]
 8009e1c:	f7f6 fb8a 	bl	8000534 <__aeabi_i2d>
 8009e20:	4642      	mov	r2, r8
 8009e22:	464b      	mov	r3, r9
 8009e24:	f7f6 fbf0 	bl	8000608 <__aeabi_dmul>
 8009e28:	4602      	mov	r2, r0
 8009e2a:	460b      	mov	r3, r1
 8009e2c:	4630      	mov	r0, r6
 8009e2e:	4639      	mov	r1, r7
 8009e30:	f7f6 fa32 	bl	8000298 <__aeabi_dsub>
 8009e34:	9e02      	ldr	r6, [sp, #8]
 8009e36:	9f01      	ldr	r7, [sp, #4]
 8009e38:	3630      	adds	r6, #48	; 0x30
 8009e3a:	f805 6b01 	strb.w	r6, [r5], #1
 8009e3e:	9e00      	ldr	r6, [sp, #0]
 8009e40:	1bae      	subs	r6, r5, r6
 8009e42:	42b7      	cmp	r7, r6
 8009e44:	4602      	mov	r2, r0
 8009e46:	460b      	mov	r3, r1
 8009e48:	d137      	bne.n	8009eba <_dtoa_r+0x722>
 8009e4a:	f7f6 fa27 	bl	800029c <__adddf3>
 8009e4e:	4642      	mov	r2, r8
 8009e50:	464b      	mov	r3, r9
 8009e52:	4606      	mov	r6, r0
 8009e54:	460f      	mov	r7, r1
 8009e56:	f7f6 fe67 	bl	8000b28 <__aeabi_dcmpgt>
 8009e5a:	b9c8      	cbnz	r0, 8009e90 <_dtoa_r+0x6f8>
 8009e5c:	4642      	mov	r2, r8
 8009e5e:	464b      	mov	r3, r9
 8009e60:	4630      	mov	r0, r6
 8009e62:	4639      	mov	r1, r7
 8009e64:	f7f6 fe38 	bl	8000ad8 <__aeabi_dcmpeq>
 8009e68:	b110      	cbz	r0, 8009e70 <_dtoa_r+0x6d8>
 8009e6a:	9b02      	ldr	r3, [sp, #8]
 8009e6c:	07d9      	lsls	r1, r3, #31
 8009e6e:	d40f      	bmi.n	8009e90 <_dtoa_r+0x6f8>
 8009e70:	4620      	mov	r0, r4
 8009e72:	4659      	mov	r1, fp
 8009e74:	f000 fce8 	bl	800a848 <_Bfree>
 8009e78:	2300      	movs	r3, #0
 8009e7a:	702b      	strb	r3, [r5, #0]
 8009e7c:	9b0f      	ldr	r3, [sp, #60]	; 0x3c
 8009e7e:	f10a 0001 	add.w	r0, sl, #1
 8009e82:	6018      	str	r0, [r3, #0]
 8009e84:	9b21      	ldr	r3, [sp, #132]	; 0x84
 8009e86:	2b00      	cmp	r3, #0
 8009e88:	f43f acd8 	beq.w	800983c <_dtoa_r+0xa4>
 8009e8c:	601d      	str	r5, [r3, #0]
 8009e8e:	e4d5      	b.n	800983c <_dtoa_r+0xa4>
 8009e90:	f8cd a01c 	str.w	sl, [sp, #28]
 8009e94:	462b      	mov	r3, r5
 8009e96:	461d      	mov	r5, r3
 8009e98:	f813 2d01 	ldrb.w	r2, [r3, #-1]!
 8009e9c:	2a39      	cmp	r2, #57	; 0x39
 8009e9e:	d108      	bne.n	8009eb2 <_dtoa_r+0x71a>
 8009ea0:	9a00      	ldr	r2, [sp, #0]
 8009ea2:	429a      	cmp	r2, r3
 8009ea4:	d1f7      	bne.n	8009e96 <_dtoa_r+0x6fe>
 8009ea6:	9a07      	ldr	r2, [sp, #28]
 8009ea8:	9900      	ldr	r1, [sp, #0]
 8009eaa:	3201      	adds	r2, #1
 8009eac:	9207      	str	r2, [sp, #28]
 8009eae:	2230      	movs	r2, #48	; 0x30
 8009eb0:	700a      	strb	r2, [r1, #0]
 8009eb2:	781a      	ldrb	r2, [r3, #0]
 8009eb4:	3201      	adds	r2, #1
 8009eb6:	701a      	strb	r2, [r3, #0]
 8009eb8:	e78c      	b.n	8009dd4 <_dtoa_r+0x63c>
 8009eba:	4b7f      	ldr	r3, [pc, #508]	; (800a0b8 <_dtoa_r+0x920>)
 8009ebc:	2200      	movs	r2, #0
 8009ebe:	f7f6 fba3 	bl	8000608 <__aeabi_dmul>
 8009ec2:	2200      	movs	r2, #0
 8009ec4:	2300      	movs	r3, #0
 8009ec6:	4606      	mov	r6, r0
 8009ec8:	460f      	mov	r7, r1
 8009eca:	f7f6 fe05 	bl	8000ad8 <__aeabi_dcmpeq>
 8009ece:	2800      	cmp	r0, #0
 8009ed0:	d09b      	beq.n	8009e0a <_dtoa_r+0x672>
 8009ed2:	e7cd      	b.n	8009e70 <_dtoa_r+0x6d8>
 8009ed4:	9a08      	ldr	r2, [sp, #32]
 8009ed6:	2a00      	cmp	r2, #0
 8009ed8:	f000 80c4 	beq.w	800a064 <_dtoa_r+0x8cc>
 8009edc:	9a05      	ldr	r2, [sp, #20]
 8009ede:	2a01      	cmp	r2, #1
 8009ee0:	f300 80a8 	bgt.w	800a034 <_dtoa_r+0x89c>
 8009ee4:	9a10      	ldr	r2, [sp, #64]	; 0x40
 8009ee6:	2a00      	cmp	r2, #0
 8009ee8:	f000 80a0 	beq.w	800a02c <_dtoa_r+0x894>
 8009eec:	f203 4333 	addw	r3, r3, #1075	; 0x433
 8009ef0:	9e06      	ldr	r6, [sp, #24]
 8009ef2:	4645      	mov	r5, r8
 8009ef4:	9a04      	ldr	r2, [sp, #16]
 8009ef6:	2101      	movs	r1, #1
 8009ef8:	441a      	add	r2, r3
 8009efa:	4620      	mov	r0, r4
 8009efc:	4498      	add	r8, r3
 8009efe:	9204      	str	r2, [sp, #16]
 8009f00:	f000 fd5e 	bl	800a9c0 <__i2b>
 8009f04:	4607      	mov	r7, r0
 8009f06:	2d00      	cmp	r5, #0
 8009f08:	dd0b      	ble.n	8009f22 <_dtoa_r+0x78a>
 8009f0a:	9b04      	ldr	r3, [sp, #16]
 8009f0c:	2b00      	cmp	r3, #0
 8009f0e:	dd08      	ble.n	8009f22 <_dtoa_r+0x78a>
 8009f10:	42ab      	cmp	r3, r5
 8009f12:	9a04      	ldr	r2, [sp, #16]
 8009f14:	bfa8      	it	ge
 8009f16:	462b      	movge	r3, r5
 8009f18:	eba8 0803 	sub.w	r8, r8, r3
 8009f1c:	1aed      	subs	r5, r5, r3
 8009f1e:	1ad3      	subs	r3, r2, r3
 8009f20:	9304      	str	r3, [sp, #16]
 8009f22:	9b06      	ldr	r3, [sp, #24]
 8009f24:	b1fb      	cbz	r3, 8009f66 <_dtoa_r+0x7ce>
 8009f26:	9b08      	ldr	r3, [sp, #32]
 8009f28:	2b00      	cmp	r3, #0
 8009f2a:	f000 809f 	beq.w	800a06c <_dtoa_r+0x8d4>
 8009f2e:	2e00      	cmp	r6, #0
 8009f30:	dd11      	ble.n	8009f56 <_dtoa_r+0x7be>
 8009f32:	4639      	mov	r1, r7
 8009f34:	4632      	mov	r2, r6
 8009f36:	4620      	mov	r0, r4
 8009f38:	f000 fdfe 	bl	800ab38 <__pow5mult>
 8009f3c:	465a      	mov	r2, fp
 8009f3e:	4601      	mov	r1, r0
 8009f40:	4607      	mov	r7, r0
 8009f42:	4620      	mov	r0, r4
 8009f44:	f000 fd52 	bl	800a9ec <__multiply>
 8009f48:	4659      	mov	r1, fp
 8009f4a:	9007      	str	r0, [sp, #28]
 8009f4c:	4620      	mov	r0, r4
 8009f4e:	f000 fc7b 	bl	800a848 <_Bfree>
 8009f52:	9b07      	ldr	r3, [sp, #28]
 8009f54:	469b      	mov	fp, r3
 8009f56:	9b06      	ldr	r3, [sp, #24]
 8009f58:	1b9a      	subs	r2, r3, r6
 8009f5a:	d004      	beq.n	8009f66 <_dtoa_r+0x7ce>
 8009f5c:	4659      	mov	r1, fp
 8009f5e:	4620      	mov	r0, r4
 8009f60:	f000 fdea 	bl	800ab38 <__pow5mult>
 8009f64:	4683      	mov	fp, r0
 8009f66:	2101      	movs	r1, #1
 8009f68:	4620      	mov	r0, r4
 8009f6a:	f000 fd29 	bl	800a9c0 <__i2b>
 8009f6e:	9b0d      	ldr	r3, [sp, #52]	; 0x34
 8009f70:	2b00      	cmp	r3, #0
 8009f72:	4606      	mov	r6, r0
 8009f74:	dd7c      	ble.n	800a070 <_dtoa_r+0x8d8>
 8009f76:	461a      	mov	r2, r3
 8009f78:	4601      	mov	r1, r0
 8009f7a:	4620      	mov	r0, r4
 8009f7c:	f000 fddc 	bl	800ab38 <__pow5mult>
 8009f80:	9b05      	ldr	r3, [sp, #20]
 8009f82:	2b01      	cmp	r3, #1
 8009f84:	4606      	mov	r6, r0
 8009f86:	dd76      	ble.n	800a076 <_dtoa_r+0x8de>
 8009f88:	2300      	movs	r3, #0
 8009f8a:	9306      	str	r3, [sp, #24]
 8009f8c:	6933      	ldr	r3, [r6, #16]
 8009f8e:	eb06 0383 	add.w	r3, r6, r3, lsl #2
 8009f92:	6918      	ldr	r0, [r3, #16]
 8009f94:	f000 fcc4 	bl	800a920 <__hi0bits>
 8009f98:	f1c0 0020 	rsb	r0, r0, #32
 8009f9c:	9b04      	ldr	r3, [sp, #16]
 8009f9e:	4418      	add	r0, r3
 8009fa0:	f010 001f 	ands.w	r0, r0, #31
 8009fa4:	f000 8086 	beq.w	800a0b4 <_dtoa_r+0x91c>
 8009fa8:	f1c0 0320 	rsb	r3, r0, #32
 8009fac:	2b04      	cmp	r3, #4
 8009fae:	dd7f      	ble.n	800a0b0 <_dtoa_r+0x918>
 8009fb0:	f1c0 001c 	rsb	r0, r0, #28
 8009fb4:	9b04      	ldr	r3, [sp, #16]
 8009fb6:	4403      	add	r3, r0
 8009fb8:	4480      	add	r8, r0
 8009fba:	4405      	add	r5, r0
 8009fbc:	9304      	str	r3, [sp, #16]
 8009fbe:	f1b8 0f00 	cmp.w	r8, #0
 8009fc2:	dd05      	ble.n	8009fd0 <_dtoa_r+0x838>
 8009fc4:	4659      	mov	r1, fp
 8009fc6:	4642      	mov	r2, r8
 8009fc8:	4620      	mov	r0, r4
 8009fca:	f000 fe0f 	bl	800abec <__lshift>
 8009fce:	4683      	mov	fp, r0
 8009fd0:	9b04      	ldr	r3, [sp, #16]
 8009fd2:	2b00      	cmp	r3, #0
 8009fd4:	dd05      	ble.n	8009fe2 <_dtoa_r+0x84a>
 8009fd6:	4631      	mov	r1, r6
 8009fd8:	461a      	mov	r2, r3
 8009fda:	4620      	mov	r0, r4
 8009fdc:	f000 fe06 	bl	800abec <__lshift>
 8009fe0:	4606      	mov	r6, r0
 8009fe2:	9b0e      	ldr	r3, [sp, #56]	; 0x38
 8009fe4:	2b00      	cmp	r3, #0
 8009fe6:	d069      	beq.n	800a0bc <_dtoa_r+0x924>
 8009fe8:	4631      	mov	r1, r6
 8009fea:	4658      	mov	r0, fp
 8009fec:	f000 fe6a 	bl	800acc4 <__mcmp>
 8009ff0:	2800      	cmp	r0, #0
 8009ff2:	da63      	bge.n	800a0bc <_dtoa_r+0x924>
 8009ff4:	2300      	movs	r3, #0
 8009ff6:	4659      	mov	r1, fp
 8009ff8:	220a      	movs	r2, #10
 8009ffa:	4620      	mov	r0, r4
 8009ffc:	f000 fc46 	bl	800a88c <__multadd>
 800a000:	9b08      	ldr	r3, [sp, #32]
 800a002:	f10a 3aff 	add.w	sl, sl, #4294967295	; 0xffffffff
 800a006:	4683      	mov	fp, r0
 800a008:	2b00      	cmp	r3, #0
 800a00a:	f000 818f 	beq.w	800a32c <_dtoa_r+0xb94>
 800a00e:	4639      	mov	r1, r7
 800a010:	2300      	movs	r3, #0
 800a012:	220a      	movs	r2, #10
 800a014:	4620      	mov	r0, r4
 800a016:	f000 fc39 	bl	800a88c <__multadd>
 800a01a:	f1b9 0f00 	cmp.w	r9, #0
 800a01e:	4607      	mov	r7, r0
 800a020:	f300 808e 	bgt.w	800a140 <_dtoa_r+0x9a8>
 800a024:	9b05      	ldr	r3, [sp, #20]
 800a026:	2b02      	cmp	r3, #2
 800a028:	dc50      	bgt.n	800a0cc <_dtoa_r+0x934>
 800a02a:	e089      	b.n	800a140 <_dtoa_r+0x9a8>
 800a02c:	9b12      	ldr	r3, [sp, #72]	; 0x48
 800a02e:	f1c3 0336 	rsb	r3, r3, #54	; 0x36
 800a032:	e75d      	b.n	8009ef0 <_dtoa_r+0x758>
 800a034:	9b01      	ldr	r3, [sp, #4]
 800a036:	1e5e      	subs	r6, r3, #1
 800a038:	9b06      	ldr	r3, [sp, #24]
 800a03a:	42b3      	cmp	r3, r6
 800a03c:	bfbf      	itttt	lt
 800a03e:	9b06      	ldrlt	r3, [sp, #24]
 800a040:	9606      	strlt	r6, [sp, #24]
 800a042:	1af2      	sublt	r2, r6, r3
 800a044:	9b0d      	ldrlt	r3, [sp, #52]	; 0x34
 800a046:	bfb6      	itet	lt
 800a048:	189b      	addlt	r3, r3, r2
 800a04a:	1b9e      	subge	r6, r3, r6
 800a04c:	930d      	strlt	r3, [sp, #52]	; 0x34
 800a04e:	9b01      	ldr	r3, [sp, #4]
 800a050:	bfb8      	it	lt
 800a052:	2600      	movlt	r6, #0
 800a054:	2b00      	cmp	r3, #0
 800a056:	bfb5      	itete	lt
 800a058:	eba8 0503 	sublt.w	r5, r8, r3
 800a05c:	9b01      	ldrge	r3, [sp, #4]
 800a05e:	2300      	movlt	r3, #0
 800a060:	4645      	movge	r5, r8
 800a062:	e747      	b.n	8009ef4 <_dtoa_r+0x75c>
 800a064:	9e06      	ldr	r6, [sp, #24]
 800a066:	9f08      	ldr	r7, [sp, #32]
 800a068:	4645      	mov	r5, r8
 800a06a:	e74c      	b.n	8009f06 <_dtoa_r+0x76e>
 800a06c:	9a06      	ldr	r2, [sp, #24]
 800a06e:	e775      	b.n	8009f5c <_dtoa_r+0x7c4>
 800a070:	9b05      	ldr	r3, [sp, #20]
 800a072:	2b01      	cmp	r3, #1
 800a074:	dc18      	bgt.n	800a0a8 <_dtoa_r+0x910>
 800a076:	9b02      	ldr	r3, [sp, #8]
 800a078:	b9b3      	cbnz	r3, 800a0a8 <_dtoa_r+0x910>
 800a07a:	9b03      	ldr	r3, [sp, #12]
 800a07c:	f3c3 0313 	ubfx	r3, r3, #0, #20
 800a080:	b9a3      	cbnz	r3, 800a0ac <_dtoa_r+0x914>
 800a082:	9b03      	ldr	r3, [sp, #12]
 800a084:	f023 4300 	bic.w	r3, r3, #2147483648	; 0x80000000
 800a088:	0d1b      	lsrs	r3, r3, #20
 800a08a:	051b      	lsls	r3, r3, #20
 800a08c:	b12b      	cbz	r3, 800a09a <_dtoa_r+0x902>
 800a08e:	9b04      	ldr	r3, [sp, #16]
 800a090:	3301      	adds	r3, #1
 800a092:	9304      	str	r3, [sp, #16]
 800a094:	f108 0801 	add.w	r8, r8, #1
 800a098:	2301      	movs	r3, #1
 800a09a:	9306      	str	r3, [sp, #24]
 800a09c:	9b0d      	ldr	r3, [sp, #52]	; 0x34
 800a09e:	2b00      	cmp	r3, #0
 800a0a0:	f47f af74 	bne.w	8009f8c <_dtoa_r+0x7f4>
 800a0a4:	2001      	movs	r0, #1
 800a0a6:	e779      	b.n	8009f9c <_dtoa_r+0x804>
 800a0a8:	2300      	movs	r3, #0
 800a0aa:	e7f6      	b.n	800a09a <_dtoa_r+0x902>
 800a0ac:	9b02      	ldr	r3, [sp, #8]
 800a0ae:	e7f4      	b.n	800a09a <_dtoa_r+0x902>
 800a0b0:	d085      	beq.n	8009fbe <_dtoa_r+0x826>
 800a0b2:	4618      	mov	r0, r3
 800a0b4:	301c      	adds	r0, #28
 800a0b6:	e77d      	b.n	8009fb4 <_dtoa_r+0x81c>
 800a0b8:	40240000 	.word	0x40240000
 800a0bc:	9b01      	ldr	r3, [sp, #4]
 800a0be:	2b00      	cmp	r3, #0
 800a0c0:	dc38      	bgt.n	800a134 <_dtoa_r+0x99c>
 800a0c2:	9b05      	ldr	r3, [sp, #20]
 800a0c4:	2b02      	cmp	r3, #2
 800a0c6:	dd35      	ble.n	800a134 <_dtoa_r+0x99c>
 800a0c8:	f8dd 9004 	ldr.w	r9, [sp, #4]
 800a0cc:	f1b9 0f00 	cmp.w	r9, #0
 800a0d0:	d10d      	bne.n	800a0ee <_dtoa_r+0x956>
 800a0d2:	4631      	mov	r1, r6
 800a0d4:	464b      	mov	r3, r9
 800a0d6:	2205      	movs	r2, #5
 800a0d8:	4620      	mov	r0, r4
 800a0da:	f000 fbd7 	bl	800a88c <__multadd>
 800a0de:	4601      	mov	r1, r0
 800a0e0:	4606      	mov	r6, r0
 800a0e2:	4658      	mov	r0, fp
 800a0e4:	f000 fdee 	bl	800acc4 <__mcmp>
 800a0e8:	2800      	cmp	r0, #0
 800a0ea:	f73f adbd 	bgt.w	8009c68 <_dtoa_r+0x4d0>
 800a0ee:	9b09      	ldr	r3, [sp, #36]	; 0x24
 800a0f0:	9d00      	ldr	r5, [sp, #0]
 800a0f2:	ea6f 0a03 	mvn.w	sl, r3
 800a0f6:	f04f 0800 	mov.w	r8, #0
 800a0fa:	4631      	mov	r1, r6
 800a0fc:	4620      	mov	r0, r4
 800a0fe:	f000 fba3 	bl	800a848 <_Bfree>
 800a102:	2f00      	cmp	r7, #0
 800a104:	f43f aeb4 	beq.w	8009e70 <_dtoa_r+0x6d8>
 800a108:	f1b8 0f00 	cmp.w	r8, #0
 800a10c:	d005      	beq.n	800a11a <_dtoa_r+0x982>
 800a10e:	45b8      	cmp	r8, r7
 800a110:	d003      	beq.n	800a11a <_dtoa_r+0x982>
 800a112:	4641      	mov	r1, r8
 800a114:	4620      	mov	r0, r4
 800a116:	f000 fb97 	bl	800a848 <_Bfree>
 800a11a:	4639      	mov	r1, r7
 800a11c:	4620      	mov	r0, r4
 800a11e:	f000 fb93 	bl	800a848 <_Bfree>
 800a122:	e6a5      	b.n	8009e70 <_dtoa_r+0x6d8>
 800a124:	2600      	movs	r6, #0
 800a126:	4637      	mov	r7, r6
 800a128:	e7e1      	b.n	800a0ee <_dtoa_r+0x956>
 800a12a:	9e0c      	ldr	r6, [sp, #48]	; 0x30
 800a12c:	f8dd a01c 	ldr.w	sl, [sp, #28]
 800a130:	4637      	mov	r7, r6
 800a132:	e599      	b.n	8009c68 <_dtoa_r+0x4d0>
 800a134:	9b08      	ldr	r3, [sp, #32]
 800a136:	f8dd 9004 	ldr.w	r9, [sp, #4]
 800a13a:	2b00      	cmp	r3, #0
 800a13c:	f000 80fd 	beq.w	800a33a <_dtoa_r+0xba2>
 800a140:	2d00      	cmp	r5, #0
 800a142:	dd05      	ble.n	800a150 <_dtoa_r+0x9b8>
 800a144:	4639      	mov	r1, r7
 800a146:	462a      	mov	r2, r5
 800a148:	4620      	mov	r0, r4
 800a14a:	f000 fd4f 	bl	800abec <__lshift>
 800a14e:	4607      	mov	r7, r0
 800a150:	9b06      	ldr	r3, [sp, #24]
 800a152:	2b00      	cmp	r3, #0
 800a154:	d05c      	beq.n	800a210 <_dtoa_r+0xa78>
 800a156:	6879      	ldr	r1, [r7, #4]
 800a158:	4620      	mov	r0, r4
 800a15a:	f000 fb35 	bl	800a7c8 <_Balloc>
 800a15e:	4605      	mov	r5, r0
 800a160:	b928      	cbnz	r0, 800a16e <_dtoa_r+0x9d6>
 800a162:	4b80      	ldr	r3, [pc, #512]	; (800a364 <_dtoa_r+0xbcc>)
 800a164:	4602      	mov	r2, r0
 800a166:	f240 21ea 	movw	r1, #746	; 0x2ea
 800a16a:	f7ff bb2e 	b.w	80097ca <_dtoa_r+0x32>
 800a16e:	693a      	ldr	r2, [r7, #16]
 800a170:	3202      	adds	r2, #2
 800a172:	0092      	lsls	r2, r2, #2
 800a174:	f107 010c 	add.w	r1, r7, #12
 800a178:	300c      	adds	r0, #12
 800a17a:	f7fe fcb3 	bl	8008ae4 <memcpy>
 800a17e:	2201      	movs	r2, #1
 800a180:	4629      	mov	r1, r5
 800a182:	4620      	mov	r0, r4
 800a184:	f000 fd32 	bl	800abec <__lshift>
 800a188:	9b00      	ldr	r3, [sp, #0]
 800a18a:	3301      	adds	r3, #1
 800a18c:	9301      	str	r3, [sp, #4]
 800a18e:	9b00      	ldr	r3, [sp, #0]
 800a190:	444b      	add	r3, r9
 800a192:	9307      	str	r3, [sp, #28]
 800a194:	9b02      	ldr	r3, [sp, #8]
 800a196:	f003 0301 	and.w	r3, r3, #1
 800a19a:	46b8      	mov	r8, r7
 800a19c:	9306      	str	r3, [sp, #24]
 800a19e:	4607      	mov	r7, r0
 800a1a0:	9b01      	ldr	r3, [sp, #4]
 800a1a2:	4631      	mov	r1, r6
 800a1a4:	3b01      	subs	r3, #1
 800a1a6:	4658      	mov	r0, fp
 800a1a8:	9302      	str	r3, [sp, #8]
 800a1aa:	f7ff fa69 	bl	8009680 <quorem>
 800a1ae:	4603      	mov	r3, r0
 800a1b0:	3330      	adds	r3, #48	; 0x30
 800a1b2:	9004      	str	r0, [sp, #16]
 800a1b4:	4641      	mov	r1, r8
 800a1b6:	4658      	mov	r0, fp
 800a1b8:	9308      	str	r3, [sp, #32]
 800a1ba:	f000 fd83 	bl	800acc4 <__mcmp>
 800a1be:	463a      	mov	r2, r7
 800a1c0:	4681      	mov	r9, r0
 800a1c2:	4631      	mov	r1, r6
 800a1c4:	4620      	mov	r0, r4
 800a1c6:	f000 fd99 	bl	800acfc <__mdiff>
 800a1ca:	68c2      	ldr	r2, [r0, #12]
 800a1cc:	9b08      	ldr	r3, [sp, #32]
 800a1ce:	4605      	mov	r5, r0
 800a1d0:	bb02      	cbnz	r2, 800a214 <_dtoa_r+0xa7c>
 800a1d2:	4601      	mov	r1, r0
 800a1d4:	4658      	mov	r0, fp
 800a1d6:	f000 fd75 	bl	800acc4 <__mcmp>
 800a1da:	9b08      	ldr	r3, [sp, #32]
 800a1dc:	4602      	mov	r2, r0
 800a1de:	4629      	mov	r1, r5
 800a1e0:	4620      	mov	r0, r4
 800a1e2:	e9cd 3208 	strd	r3, r2, [sp, #32]
 800a1e6:	f000 fb2f 	bl	800a848 <_Bfree>
 800a1ea:	9b05      	ldr	r3, [sp, #20]
 800a1ec:	9a09      	ldr	r2, [sp, #36]	; 0x24
 800a1ee:	9d01      	ldr	r5, [sp, #4]
 800a1f0:	ea43 0102 	orr.w	r1, r3, r2
 800a1f4:	9b06      	ldr	r3, [sp, #24]
 800a1f6:	430b      	orrs	r3, r1
 800a1f8:	9b08      	ldr	r3, [sp, #32]
 800a1fa:	d10d      	bne.n	800a218 <_dtoa_r+0xa80>
 800a1fc:	2b39      	cmp	r3, #57	; 0x39
 800a1fe:	d029      	beq.n	800a254 <_dtoa_r+0xabc>
 800a200:	f1b9 0f00 	cmp.w	r9, #0
 800a204:	dd01      	ble.n	800a20a <_dtoa_r+0xa72>
 800a206:	9b04      	ldr	r3, [sp, #16]
 800a208:	3331      	adds	r3, #49	; 0x31
 800a20a:	9a02      	ldr	r2, [sp, #8]
 800a20c:	7013      	strb	r3, [r2, #0]
 800a20e:	e774      	b.n	800a0fa <_dtoa_r+0x962>
 800a210:	4638      	mov	r0, r7
 800a212:	e7b9      	b.n	800a188 <_dtoa_r+0x9f0>
 800a214:	2201      	movs	r2, #1
 800a216:	e7e2      	b.n	800a1de <_dtoa_r+0xa46>
 800a218:	f1b9 0f00 	cmp.w	r9, #0
 800a21c:	db06      	blt.n	800a22c <_dtoa_r+0xa94>
 800a21e:	9905      	ldr	r1, [sp, #20]
 800a220:	ea41 0909 	orr.w	r9, r1, r9
 800a224:	9906      	ldr	r1, [sp, #24]
 800a226:	ea59 0101 	orrs.w	r1, r9, r1
 800a22a:	d120      	bne.n	800a26e <_dtoa_r+0xad6>
 800a22c:	2a00      	cmp	r2, #0
 800a22e:	ddec      	ble.n	800a20a <_dtoa_r+0xa72>
 800a230:	4659      	mov	r1, fp
 800a232:	2201      	movs	r2, #1
 800a234:	4620      	mov	r0, r4
 800a236:	9301      	str	r3, [sp, #4]
 800a238:	f000 fcd8 	bl	800abec <__lshift>
 800a23c:	4631      	mov	r1, r6
 800a23e:	4683      	mov	fp, r0
 800a240:	f000 fd40 	bl	800acc4 <__mcmp>
 800a244:	2800      	cmp	r0, #0
 800a246:	9b01      	ldr	r3, [sp, #4]
 800a248:	dc02      	bgt.n	800a250 <_dtoa_r+0xab8>
 800a24a:	d1de      	bne.n	800a20a <_dtoa_r+0xa72>
 800a24c:	07da      	lsls	r2, r3, #31
 800a24e:	d5dc      	bpl.n	800a20a <_dtoa_r+0xa72>
 800a250:	2b39      	cmp	r3, #57	; 0x39
 800a252:	d1d8      	bne.n	800a206 <_dtoa_r+0xa6e>
 800a254:	9a02      	ldr	r2, [sp, #8]
 800a256:	2339      	movs	r3, #57	; 0x39
 800a258:	7013      	strb	r3, [r2, #0]
 800a25a:	462b      	mov	r3, r5
 800a25c:	461d      	mov	r5, r3
 800a25e:	3b01      	subs	r3, #1
 800a260:	f815 2c01 	ldrb.w	r2, [r5, #-1]
 800a264:	2a39      	cmp	r2, #57	; 0x39
 800a266:	d050      	beq.n	800a30a <_dtoa_r+0xb72>
 800a268:	3201      	adds	r2, #1
 800a26a:	701a      	strb	r2, [r3, #0]
 800a26c:	e745      	b.n	800a0fa <_dtoa_r+0x962>
 800a26e:	2a00      	cmp	r2, #0
 800a270:	dd03      	ble.n	800a27a <_dtoa_r+0xae2>
 800a272:	2b39      	cmp	r3, #57	; 0x39
 800a274:	d0ee      	beq.n	800a254 <_dtoa_r+0xabc>
 800a276:	3301      	adds	r3, #1
 800a278:	e7c7      	b.n	800a20a <_dtoa_r+0xa72>
 800a27a:	9a01      	ldr	r2, [sp, #4]
 800a27c:	9907      	ldr	r1, [sp, #28]
 800a27e:	f802 3c01 	strb.w	r3, [r2, #-1]
 800a282:	428a      	cmp	r2, r1
 800a284:	d02a      	beq.n	800a2dc <_dtoa_r+0xb44>
 800a286:	4659      	mov	r1, fp
 800a288:	2300      	movs	r3, #0
 800a28a:	220a      	movs	r2, #10
 800a28c:	4620      	mov	r0, r4
 800a28e:	f000 fafd 	bl	800a88c <__multadd>
 800a292:	45b8      	cmp	r8, r7
 800a294:	4683      	mov	fp, r0
 800a296:	f04f 0300 	mov.w	r3, #0
 800a29a:	f04f 020a 	mov.w	r2, #10
 800a29e:	4641      	mov	r1, r8
 800a2a0:	4620      	mov	r0, r4
 800a2a2:	d107      	bne.n	800a2b4 <_dtoa_r+0xb1c>
 800a2a4:	f000 faf2 	bl	800a88c <__multadd>
 800a2a8:	4680      	mov	r8, r0
 800a2aa:	4607      	mov	r7, r0
 800a2ac:	9b01      	ldr	r3, [sp, #4]
 800a2ae:	3301      	adds	r3, #1
 800a2b0:	9301      	str	r3, [sp, #4]
 800a2b2:	e775      	b.n	800a1a0 <_dtoa_r+0xa08>
 800a2b4:	f000 faea 	bl	800a88c <__multadd>
 800a2b8:	4639      	mov	r1, r7
 800a2ba:	4680      	mov	r8, r0
 800a2bc:	2300      	movs	r3, #0
 800a2be:	220a      	movs	r2, #10
 800a2c0:	4620      	mov	r0, r4
 800a2c2:	f000 fae3 	bl	800a88c <__multadd>
 800a2c6:	4607      	mov	r7, r0
 800a2c8:	e7f0      	b.n	800a2ac <_dtoa_r+0xb14>
 800a2ca:	f1b9 0f00 	cmp.w	r9, #0
 800a2ce:	9a00      	ldr	r2, [sp, #0]
 800a2d0:	bfcc      	ite	gt
 800a2d2:	464d      	movgt	r5, r9
 800a2d4:	2501      	movle	r5, #1
 800a2d6:	4415      	add	r5, r2
 800a2d8:	f04f 0800 	mov.w	r8, #0
 800a2dc:	4659      	mov	r1, fp
 800a2de:	2201      	movs	r2, #1
 800a2e0:	4620      	mov	r0, r4
 800a2e2:	9301      	str	r3, [sp, #4]
 800a2e4:	f000 fc82 	bl	800abec <__lshift>
 800a2e8:	4631      	mov	r1, r6
 800a2ea:	4683      	mov	fp, r0
 800a2ec:	f000 fcea 	bl	800acc4 <__mcmp>
 800a2f0:	2800      	cmp	r0, #0
 800a2f2:	dcb2      	bgt.n	800a25a <_dtoa_r+0xac2>
 800a2f4:	d102      	bne.n	800a2fc <_dtoa_r+0xb64>
 800a2f6:	9b01      	ldr	r3, [sp, #4]
 800a2f8:	07db      	lsls	r3, r3, #31
 800a2fa:	d4ae      	bmi.n	800a25a <_dtoa_r+0xac2>
 800a2fc:	462b      	mov	r3, r5
 800a2fe:	461d      	mov	r5, r3
 800a300:	f813 2d01 	ldrb.w	r2, [r3, #-1]!
 800a304:	2a30      	cmp	r2, #48	; 0x30
 800a306:	d0fa      	beq.n	800a2fe <_dtoa_r+0xb66>
 800a308:	e6f7      	b.n	800a0fa <_dtoa_r+0x962>
 800a30a:	9a00      	ldr	r2, [sp, #0]
 800a30c:	429a      	cmp	r2, r3
 800a30e:	d1a5      	bne.n	800a25c <_dtoa_r+0xac4>
 800a310:	f10a 0a01 	add.w	sl, sl, #1
 800a314:	2331      	movs	r3, #49	; 0x31
 800a316:	e779      	b.n	800a20c <_dtoa_r+0xa74>
 800a318:	4b13      	ldr	r3, [pc, #76]	; (800a368 <_dtoa_r+0xbd0>)
 800a31a:	f7ff baaf 	b.w	800987c <_dtoa_r+0xe4>
 800a31e:	9b21      	ldr	r3, [sp, #132]	; 0x84
 800a320:	2b00      	cmp	r3, #0
 800a322:	f47f aa86 	bne.w	8009832 <_dtoa_r+0x9a>
 800a326:	4b11      	ldr	r3, [pc, #68]	; (800a36c <_dtoa_r+0xbd4>)
 800a328:	f7ff baa8 	b.w	800987c <_dtoa_r+0xe4>
 800a32c:	f1b9 0f00 	cmp.w	r9, #0
 800a330:	dc03      	bgt.n	800a33a <_dtoa_r+0xba2>
 800a332:	9b05      	ldr	r3, [sp, #20]
 800a334:	2b02      	cmp	r3, #2
 800a336:	f73f aec9 	bgt.w	800a0cc <_dtoa_r+0x934>
 800a33a:	9d00      	ldr	r5, [sp, #0]
 800a33c:	4631      	mov	r1, r6
 800a33e:	4658      	mov	r0, fp
 800a340:	f7ff f99e 	bl	8009680 <quorem>
 800a344:	f100 0330 	add.w	r3, r0, #48	; 0x30
 800a348:	f805 3b01 	strb.w	r3, [r5], #1
 800a34c:	9a00      	ldr	r2, [sp, #0]
 800a34e:	1aaa      	subs	r2, r5, r2
 800a350:	4591      	cmp	r9, r2
 800a352:	ddba      	ble.n	800a2ca <_dtoa_r+0xb32>
 800a354:	4659      	mov	r1, fp
 800a356:	2300      	movs	r3, #0
 800a358:	220a      	movs	r2, #10
 800a35a:	4620      	mov	r0, r4
 800a35c:	f000 fa96 	bl	800a88c <__multadd>
 800a360:	4683      	mov	fp, r0
 800a362:	e7eb      	b.n	800a33c <_dtoa_r+0xba4>
 800a364:	08044f37 	.word	0x08044f37
 800a368:	08044e90 	.word	0x08044e90
 800a36c:	08044eb4 	.word	0x08044eb4

0800a370 <__sflush_r>:
 800a370:	898a      	ldrh	r2, [r1, #12]
 800a372:	e92d 41f0 	stmdb	sp!, {r4, r5, r6, r7, r8, lr}
 800a376:	4605      	mov	r5, r0
 800a378:	0710      	lsls	r0, r2, #28
 800a37a:	460c      	mov	r4, r1
 800a37c:	d458      	bmi.n	800a430 <__sflush_r+0xc0>
 800a37e:	684b      	ldr	r3, [r1, #4]
 800a380:	2b00      	cmp	r3, #0
 800a382:	dc05      	bgt.n	800a390 <__sflush_r+0x20>
 800a384:	6c0b      	ldr	r3, [r1, #64]	; 0x40
 800a386:	2b00      	cmp	r3, #0
 800a388:	dc02      	bgt.n	800a390 <__sflush_r+0x20>
 800a38a:	2000      	movs	r0, #0
 800a38c:	e8bd 81f0 	ldmia.w	sp!, {r4, r5, r6, r7, r8, pc}
 800a390:	6ae6      	ldr	r6, [r4, #44]	; 0x2c
 800a392:	2e00      	cmp	r6, #0
 800a394:	d0f9      	beq.n	800a38a <__sflush_r+0x1a>
 800a396:	2300      	movs	r3, #0
 800a398:	f412 5280 	ands.w	r2, r2, #4096	; 0x1000
 800a39c:	682f      	ldr	r7, [r5, #0]
 800a39e:	602b      	str	r3, [r5, #0]
 800a3a0:	d032      	beq.n	800a408 <__sflush_r+0x98>
 800a3a2:	6d60      	ldr	r0, [r4, #84]	; 0x54
 800a3a4:	89a3      	ldrh	r3, [r4, #12]
 800a3a6:	075a      	lsls	r2, r3, #29
 800a3a8:	d505      	bpl.n	800a3b6 <__sflush_r+0x46>
 800a3aa:	6863      	ldr	r3, [r4, #4]
 800a3ac:	1ac0      	subs	r0, r0, r3
 800a3ae:	6b63      	ldr	r3, [r4, #52]	; 0x34
 800a3b0:	b10b      	cbz	r3, 800a3b6 <__sflush_r+0x46>
 800a3b2:	6c23      	ldr	r3, [r4, #64]	; 0x40
 800a3b4:	1ac0      	subs	r0, r0, r3
 800a3b6:	2300      	movs	r3, #0
 800a3b8:	4602      	mov	r2, r0
 800a3ba:	6ae6      	ldr	r6, [r4, #44]	; 0x2c
 800a3bc:	6a21      	ldr	r1, [r4, #32]
 800a3be:	4628      	mov	r0, r5
 800a3c0:	47b0      	blx	r6
 800a3c2:	1c43      	adds	r3, r0, #1
 800a3c4:	89a3      	ldrh	r3, [r4, #12]
 800a3c6:	d106      	bne.n	800a3d6 <__sflush_r+0x66>
 800a3c8:	6829      	ldr	r1, [r5, #0]
 800a3ca:	291d      	cmp	r1, #29
 800a3cc:	d82c      	bhi.n	800a428 <__sflush_r+0xb8>
 800a3ce:	4a2a      	ldr	r2, [pc, #168]	; (800a478 <__sflush_r+0x108>)
 800a3d0:	40ca      	lsrs	r2, r1
 800a3d2:	07d6      	lsls	r6, r2, #31
 800a3d4:	d528      	bpl.n	800a428 <__sflush_r+0xb8>
 800a3d6:	2200      	movs	r2, #0
 800a3d8:	6062      	str	r2, [r4, #4]
 800a3da:	04d9      	lsls	r1, r3, #19
 800a3dc:	6922      	ldr	r2, [r4, #16]
 800a3de:	6022      	str	r2, [r4, #0]
 800a3e0:	d504      	bpl.n	800a3ec <__sflush_r+0x7c>
 800a3e2:	1c42      	adds	r2, r0, #1
 800a3e4:	d101      	bne.n	800a3ea <__sflush_r+0x7a>
 800a3e6:	682b      	ldr	r3, [r5, #0]
 800a3e8:	b903      	cbnz	r3, 800a3ec <__sflush_r+0x7c>
 800a3ea:	6560      	str	r0, [r4, #84]	; 0x54
 800a3ec:	6b61      	ldr	r1, [r4, #52]	; 0x34
 800a3ee:	602f      	str	r7, [r5, #0]
 800a3f0:	2900      	cmp	r1, #0
 800a3f2:	d0ca      	beq.n	800a38a <__sflush_r+0x1a>
 800a3f4:	f104 0344 	add.w	r3, r4, #68	; 0x44
 800a3f8:	4299      	cmp	r1, r3
 800a3fa:	d002      	beq.n	800a402 <__sflush_r+0x92>
 800a3fc:	4628      	mov	r0, r5
 800a3fe:	f000 fd71 	bl	800aee4 <_free_r>
 800a402:	2000      	movs	r0, #0
 800a404:	6360      	str	r0, [r4, #52]	; 0x34
 800a406:	e7c1      	b.n	800a38c <__sflush_r+0x1c>
 800a408:	6a21      	ldr	r1, [r4, #32]
 800a40a:	2301      	movs	r3, #1
 800a40c:	4628      	mov	r0, r5
 800a40e:	47b0      	blx	r6
 800a410:	1c41      	adds	r1, r0, #1
 800a412:	d1c7      	bne.n	800a3a4 <__sflush_r+0x34>
 800a414:	682b      	ldr	r3, [r5, #0]
 800a416:	2b00      	cmp	r3, #0
 800a418:	d0c4      	beq.n	800a3a4 <__sflush_r+0x34>
 800a41a:	2b1d      	cmp	r3, #29
 800a41c:	d001      	beq.n	800a422 <__sflush_r+0xb2>
 800a41e:	2b16      	cmp	r3, #22
 800a420:	d101      	bne.n	800a426 <__sflush_r+0xb6>
 800a422:	602f      	str	r7, [r5, #0]
 800a424:	e7b1      	b.n	800a38a <__sflush_r+0x1a>
 800a426:	89a3      	ldrh	r3, [r4, #12]
 800a428:	f043 0340 	orr.w	r3, r3, #64	; 0x40
 800a42c:	81a3      	strh	r3, [r4, #12]
 800a42e:	e7ad      	b.n	800a38c <__sflush_r+0x1c>
 800a430:	690f      	ldr	r7, [r1, #16]
 800a432:	2f00      	cmp	r7, #0
 800a434:	d0a9      	beq.n	800a38a <__sflush_r+0x1a>
 800a436:	0793      	lsls	r3, r2, #30
 800a438:	680e      	ldr	r6, [r1, #0]
 800a43a:	bf08      	it	eq
 800a43c:	694b      	ldreq	r3, [r1, #20]
 800a43e:	600f      	str	r7, [r1, #0]
 800a440:	bf18      	it	ne
 800a442:	2300      	movne	r3, #0
 800a444:	eba6 0807 	sub.w	r8, r6, r7
 800a448:	608b      	str	r3, [r1, #8]
 800a44a:	f1b8 0f00 	cmp.w	r8, #0
 800a44e:	dd9c      	ble.n	800a38a <__sflush_r+0x1a>
 800a450:	6a21      	ldr	r1, [r4, #32]
 800a452:	6aa6      	ldr	r6, [r4, #40]	; 0x28
 800a454:	4643      	mov	r3, r8
 800a456:	463a      	mov	r2, r7
 800a458:	4628      	mov	r0, r5
 800a45a:	47b0      	blx	r6
 800a45c:	2800      	cmp	r0, #0
 800a45e:	dc06      	bgt.n	800a46e <__sflush_r+0xfe>
 800a460:	89a3      	ldrh	r3, [r4, #12]
 800a462:	f043 0340 	orr.w	r3, r3, #64	; 0x40
 800a466:	81a3      	strh	r3, [r4, #12]
 800a468:	f04f 30ff 	mov.w	r0, #4294967295	; 0xffffffff
 800a46c:	e78e      	b.n	800a38c <__sflush_r+0x1c>
 800a46e:	4407      	add	r7, r0
 800a470:	eba8 0800 	sub.w	r8, r8, r0
 800a474:	e7e9      	b.n	800a44a <__sflush_r+0xda>
 800a476:	bf00      	nop
 800a478:	20400001 	.word	0x20400001

0800a47c <_fflush_r>:
 800a47c:	b538      	push	{r3, r4, r5, lr}
 800a47e:	690b      	ldr	r3, [r1, #16]
 800a480:	4605      	mov	r5, r0
 800a482:	460c      	mov	r4, r1
 800a484:	b913      	cbnz	r3, 800a48c <_fflush_r+0x10>
 800a486:	2500      	movs	r5, #0
 800a488:	4628      	mov	r0, r5
 800a48a:	bd38      	pop	{r3, r4, r5, pc}
 800a48c:	b118      	cbz	r0, 800a496 <_fflush_r+0x1a>
 800a48e:	6983      	ldr	r3, [r0, #24]
 800a490:	b90b      	cbnz	r3, 800a496 <_fflush_r+0x1a>
 800a492:	f000 f887 	bl	800a5a4 <__sinit>
 800a496:	4b14      	ldr	r3, [pc, #80]	; (800a4e8 <_fflush_r+0x6c>)
 800a498:	429c      	cmp	r4, r3
 800a49a:	d11b      	bne.n	800a4d4 <_fflush_r+0x58>
 800a49c:	686c      	ldr	r4, [r5, #4]
 800a49e:	f9b4 300c 	ldrsh.w	r3, [r4, #12]
 800a4a2:	2b00      	cmp	r3, #0
 800a4a4:	d0ef      	beq.n	800a486 <_fflush_r+0xa>
 800a4a6:	6e62      	ldr	r2, [r4, #100]	; 0x64
 800a4a8:	07d0      	lsls	r0, r2, #31
 800a4aa:	d404      	bmi.n	800a4b6 <_fflush_r+0x3a>
 800a4ac:	0599      	lsls	r1, r3, #22
 800a4ae:	d402      	bmi.n	800a4b6 <_fflush_r+0x3a>
 800a4b0:	6da0      	ldr	r0, [r4, #88]	; 0x58
 800a4b2:	f000 f91a 	bl	800a6ea <__retarget_lock_acquire_recursive>
 800a4b6:	4628      	mov	r0, r5
 800a4b8:	4621      	mov	r1, r4
 800a4ba:	f7ff ff59 	bl	800a370 <__sflush_r>
 800a4be:	6e63      	ldr	r3, [r4, #100]	; 0x64
 800a4c0:	07da      	lsls	r2, r3, #31
 800a4c2:	4605      	mov	r5, r0
 800a4c4:	d4e0      	bmi.n	800a488 <_fflush_r+0xc>
 800a4c6:	89a3      	ldrh	r3, [r4, #12]
 800a4c8:	059b      	lsls	r3, r3, #22
 800a4ca:	d4dd      	bmi.n	800a488 <_fflush_r+0xc>
 800a4cc:	6da0      	ldr	r0, [r4, #88]	; 0x58
 800a4ce:	f000 f90d 	bl	800a6ec <__retarget_lock_release_recursive>
 800a4d2:	e7d9      	b.n	800a488 <_fflush_r+0xc>
 800a4d4:	4b05      	ldr	r3, [pc, #20]	; (800a4ec <_fflush_r+0x70>)
 800a4d6:	429c      	cmp	r4, r3
 800a4d8:	d101      	bne.n	800a4de <_fflush_r+0x62>
 800a4da:	68ac      	ldr	r4, [r5, #8]
 800a4dc:	e7df      	b.n	800a49e <_fflush_r+0x22>
 800a4de:	4b04      	ldr	r3, [pc, #16]	; (800a4f0 <_fflush_r+0x74>)
 800a4e0:	429c      	cmp	r4, r3
 800a4e2:	bf08      	it	eq
 800a4e4:	68ec      	ldreq	r4, [r5, #12]
 800a4e6:	e7da      	b.n	800a49e <_fflush_r+0x22>
 800a4e8:	08044f68 	.word	0x08044f68
 800a4ec:	08044f88 	.word	0x08044f88
 800a4f0:	08044f48 	.word	0x08044f48

0800a4f4 <std>:
 800a4f4:	2300      	movs	r3, #0
 800a4f6:	b510      	push	{r4, lr}
 800a4f8:	4604      	mov	r4, r0
 800a4fa:	e9c0 3300 	strd	r3, r3, [r0]
 800a4fe:	e9c0 3304 	strd	r3, r3, [r0, #16]
 800a502:	6083      	str	r3, [r0, #8]
 800a504:	8181      	strh	r1, [r0, #12]
 800a506:	6643      	str	r3, [r0, #100]	; 0x64
 800a508:	81c2      	strh	r2, [r0, #14]
 800a50a:	6183      	str	r3, [r0, #24]
 800a50c:	4619      	mov	r1, r3
 800a50e:	2208      	movs	r2, #8
 800a510:	305c      	adds	r0, #92	; 0x5c
 800a512:	f7fe faf5 	bl	8008b00 <memset>
 800a516:	4b05      	ldr	r3, [pc, #20]	; (800a52c <std+0x38>)
 800a518:	6263      	str	r3, [r4, #36]	; 0x24
 800a51a:	4b05      	ldr	r3, [pc, #20]	; (800a530 <std+0x3c>)
 800a51c:	62a3      	str	r3, [r4, #40]	; 0x28
 800a51e:	4b05      	ldr	r3, [pc, #20]	; (800a534 <std+0x40>)
 800a520:	62e3      	str	r3, [r4, #44]	; 0x2c
 800a522:	4b05      	ldr	r3, [pc, #20]	; (800a538 <std+0x44>)
 800a524:	6224      	str	r4, [r4, #32]
 800a526:	6323      	str	r3, [r4, #48]	; 0x30
 800a528:	bd10      	pop	{r4, pc}
 800a52a:	bf00      	nop
 800a52c:	0800b30d 	.word	0x0800b30d
 800a530:	0800b32f 	.word	0x0800b32f
 800a534:	0800b367 	.word	0x0800b367
 800a538:	0800b38b 	.word	0x0800b38b

0800a53c <_cleanup_r>:
 800a53c:	4901      	ldr	r1, [pc, #4]	; (800a544 <_cleanup_r+0x8>)
 800a53e:	f000 b8af 	b.w	800a6a0 <_fwalk_reent>
 800a542:	bf00      	nop
 800a544:	0800a47d 	.word	0x0800a47d

0800a548 <__sfmoreglue>:
 800a548:	b570      	push	{r4, r5, r6, lr}
 800a54a:	1e4a      	subs	r2, r1, #1
 800a54c:	2568      	movs	r5, #104	; 0x68
 800a54e:	4355      	muls	r5, r2
 800a550:	460e      	mov	r6, r1
 800a552:	f105 0174 	add.w	r1, r5, #116	; 0x74
 800a556:	f000 fd15 	bl	800af84 <_malloc_r>
 800a55a:	4604      	mov	r4, r0
 800a55c:	b140      	cbz	r0, 800a570 <__sfmoreglue+0x28>
 800a55e:	2100      	movs	r1, #0
 800a560:	e9c0 1600 	strd	r1, r6, [r0]
 800a564:	300c      	adds	r0, #12
 800a566:	60a0      	str	r0, [r4, #8]
 800a568:	f105 0268 	add.w	r2, r5, #104	; 0x68
 800a56c:	f7fe fac8 	bl	8008b00 <memset>
 800a570:	4620      	mov	r0, r4
 800a572:	bd70      	pop	{r4, r5, r6, pc}

0800a574 <__sfp_lock_acquire>:
 800a574:	4801      	ldr	r0, [pc, #4]	; (800a57c <__sfp_lock_acquire+0x8>)
 800a576:	f000 b8b8 	b.w	800a6ea <__retarget_lock_acquire_recursive>
 800a57a:	bf00      	nop
 800a57c:	200134d8 	.word	0x200134d8

0800a580 <__sfp_lock_release>:
 800a580:	4801      	ldr	r0, [pc, #4]	; (800a588 <__sfp_lock_release+0x8>)
 800a582:	f000 b8b3 	b.w	800a6ec <__retarget_lock_release_recursive>
 800a586:	bf00      	nop
 800a588:	200134d8 	.word	0x200134d8

0800a58c <__sinit_lock_acquire>:
 800a58c:	4801      	ldr	r0, [pc, #4]	; (800a594 <__sinit_lock_acquire+0x8>)
 800a58e:	f000 b8ac 	b.w	800a6ea <__retarget_lock_acquire_recursive>
 800a592:	bf00      	nop
 800a594:	200134d3 	.word	0x200134d3

0800a598 <__sinit_lock_release>:
 800a598:	4801      	ldr	r0, [pc, #4]	; (800a5a0 <__sinit_lock_release+0x8>)
 800a59a:	f000 b8a7 	b.w	800a6ec <__retarget_lock_release_recursive>
 800a59e:	bf00      	nop
 800a5a0:	200134d3 	.word	0x200134d3

0800a5a4 <__sinit>:
 800a5a4:	b510      	push	{r4, lr}
 800a5a6:	4604      	mov	r4, r0
 800a5a8:	f7ff fff0 	bl	800a58c <__sinit_lock_acquire>
 800a5ac:	69a3      	ldr	r3, [r4, #24]
 800a5ae:	b11b      	cbz	r3, 800a5b8 <__sinit+0x14>
 800a5b0:	e8bd 4010 	ldmia.w	sp!, {r4, lr}
 800a5b4:	f7ff bff0 	b.w	800a598 <__sinit_lock_release>
 800a5b8:	e9c4 3312 	strd	r3, r3, [r4, #72]	; 0x48
 800a5bc:	6523      	str	r3, [r4, #80]	; 0x50
 800a5be:	4b13      	ldr	r3, [pc, #76]	; (800a60c <__sinit+0x68>)
 800a5c0:	4a13      	ldr	r2, [pc, #76]	; (800a610 <__sinit+0x6c>)
 800a5c2:	681b      	ldr	r3, [r3, #0]
 800a5c4:	62a2      	str	r2, [r4, #40]	; 0x28
 800a5c6:	42a3      	cmp	r3, r4
 800a5c8:	bf04      	itt	eq
 800a5ca:	2301      	moveq	r3, #1
 800a5cc:	61a3      	streq	r3, [r4, #24]
 800a5ce:	4620      	mov	r0, r4
 800a5d0:	f000 f820 	bl	800a614 <__sfp>
 800a5d4:	6060      	str	r0, [r4, #4]
 800a5d6:	4620      	mov	r0, r4
 800a5d8:	f000 f81c 	bl	800a614 <__sfp>
 800a5dc:	60a0      	str	r0, [r4, #8]
 800a5de:	4620      	mov	r0, r4
 800a5e0:	f000 f818 	bl	800a614 <__sfp>
 800a5e4:	2200      	movs	r2, #0
 800a5e6:	60e0      	str	r0, [r4, #12]
 800a5e8:	2104      	movs	r1, #4
 800a5ea:	6860      	ldr	r0, [r4, #4]
 800a5ec:	f7ff ff82 	bl	800a4f4 <std>
 800a5f0:	68a0      	ldr	r0, [r4, #8]
 800a5f2:	2201      	movs	r2, #1
 800a5f4:	2109      	movs	r1, #9
 800a5f6:	f7ff ff7d 	bl	800a4f4 <std>
 800a5fa:	68e0      	ldr	r0, [r4, #12]
 800a5fc:	2202      	movs	r2, #2
 800a5fe:	2112      	movs	r1, #18
 800a600:	f7ff ff78 	bl	800a4f4 <std>
 800a604:	2301      	movs	r3, #1
 800a606:	61a3      	str	r3, [r4, #24]
 800a608:	e7d2      	b.n	800a5b0 <__sinit+0xc>
 800a60a:	bf00      	nop
 800a60c:	08044e7c 	.word	0x08044e7c
 800a610:	0800a53d 	.word	0x0800a53d

0800a614 <__sfp>:
 800a614:	b5f8      	push	{r3, r4, r5, r6, r7, lr}
 800a616:	4607      	mov	r7, r0
 800a618:	f7ff ffac 	bl	800a574 <__sfp_lock_acquire>
 800a61c:	4b1e      	ldr	r3, [pc, #120]	; (800a698 <__sfp+0x84>)
 800a61e:	681e      	ldr	r6, [r3, #0]
 800a620:	69b3      	ldr	r3, [r6, #24]
 800a622:	b913      	cbnz	r3, 800a62a <__sfp+0x16>
 800a624:	4630      	mov	r0, r6
 800a626:	f7ff ffbd 	bl	800a5a4 <__sinit>
 800a62a:	3648      	adds	r6, #72	; 0x48
 800a62c:	e9d6 3401 	ldrd	r3, r4, [r6, #4]
 800a630:	3b01      	subs	r3, #1
 800a632:	d503      	bpl.n	800a63c <__sfp+0x28>
 800a634:	6833      	ldr	r3, [r6, #0]
 800a636:	b30b      	cbz	r3, 800a67c <__sfp+0x68>
 800a638:	6836      	ldr	r6, [r6, #0]
 800a63a:	e7f7      	b.n	800a62c <__sfp+0x18>
 800a63c:	f9b4 500c 	ldrsh.w	r5, [r4, #12]
 800a640:	b9d5      	cbnz	r5, 800a678 <__sfp+0x64>
 800a642:	4b16      	ldr	r3, [pc, #88]	; (800a69c <__sfp+0x88>)
 800a644:	60e3      	str	r3, [r4, #12]
 800a646:	f104 0058 	add.w	r0, r4, #88	; 0x58
 800a64a:	6665      	str	r5, [r4, #100]	; 0x64
 800a64c:	f000 f84c 	bl	800a6e8 <__retarget_lock_init_recursive>
 800a650:	f7ff ff96 	bl	800a580 <__sfp_lock_release>
 800a654:	e9c4 5501 	strd	r5, r5, [r4, #4]
 800a658:	e9c4 5504 	strd	r5, r5, [r4, #16]
 800a65c:	6025      	str	r5, [r4, #0]
 800a65e:	61a5      	str	r5, [r4, #24]
 800a660:	2208      	movs	r2, #8
 800a662:	4629      	mov	r1, r5
 800a664:	f104 005c 	add.w	r0, r4, #92	; 0x5c
 800a668:	f7fe fa4a 	bl	8008b00 <memset>
 800a66c:	e9c4 550d 	strd	r5, r5, [r4, #52]	; 0x34
 800a670:	e9c4 5512 	strd	r5, r5, [r4, #72]	; 0x48
 800a674:	4620      	mov	r0, r4
 800a676:	bdf8      	pop	{r3, r4, r5, r6, r7, pc}
 800a678:	3468      	adds	r4, #104	; 0x68
 800a67a:	e7d9      	b.n	800a630 <__sfp+0x1c>
 800a67c:	2104      	movs	r1, #4
 800a67e:	4638      	mov	r0, r7
 800a680:	f7ff ff62 	bl	800a548 <__sfmoreglue>
 800a684:	4604      	mov	r4, r0
 800a686:	6030      	str	r0, [r6, #0]
 800a688:	2800      	cmp	r0, #0
 800a68a:	d1d5      	bne.n	800a638 <__sfp+0x24>
 800a68c:	f7ff ff78 	bl	800a580 <__sfp_lock_release>
 800a690:	230c      	movs	r3, #12
 800a692:	603b      	str	r3, [r7, #0]
 800a694:	e7ee      	b.n	800a674 <__sfp+0x60>
 800a696:	bf00      	nop
 800a698:	08044e7c 	.word	0x08044e7c
 800a69c:	ffff0001 	.word	0xffff0001

0800a6a0 <_fwalk_reent>:
 800a6a0:	e92d 43f8 	stmdb	sp!, {r3, r4, r5, r6, r7, r8, r9, lr}
 800a6a4:	4606      	mov	r6, r0
 800a6a6:	4688      	mov	r8, r1
 800a6a8:	f100 0448 	add.w	r4, r0, #72	; 0x48
 800a6ac:	2700      	movs	r7, #0
 800a6ae:	e9d4 9501 	ldrd	r9, r5, [r4, #4]
 800a6b2:	f1b9 0901 	subs.w	r9, r9, #1
 800a6b6:	d505      	bpl.n	800a6c4 <_fwalk_reent+0x24>
 800a6b8:	6824      	ldr	r4, [r4, #0]
 800a6ba:	2c00      	cmp	r4, #0
 800a6bc:	d1f7      	bne.n	800a6ae <_fwalk_reent+0xe>
 800a6be:	4638      	mov	r0, r7
 800a6c0:	e8bd 83f8 	ldmia.w	sp!, {r3, r4, r5, r6, r7, r8, r9, pc}
 800a6c4:	89ab      	ldrh	r3, [r5, #12]
 800a6c6:	2b01      	cmp	r3, #1
 800a6c8:	d907      	bls.n	800a6da <_fwalk_reent+0x3a>
 800a6ca:	f9b5 300e 	ldrsh.w	r3, [r5, #14]
 800a6ce:	3301      	adds	r3, #1
 800a6d0:	d003      	beq.n	800a6da <_fwalk_reent+0x3a>
 800a6d2:	4629      	mov	r1, r5
 800a6d4:	4630      	mov	r0, r6
 800a6d6:	47c0      	blx	r8
 800a6d8:	4307      	orrs	r7, r0
 800a6da:	3568      	adds	r5, #104	; 0x68
 800a6dc:	e7e9      	b.n	800a6b2 <_fwalk_reent+0x12>
	...

0800a6e0 <_localeconv_r>:
 800a6e0:	4800      	ldr	r0, [pc, #0]	; (800a6e4 <_localeconv_r+0x4>)
 800a6e2:	4770      	bx	lr
 800a6e4:	2000029c 	.word	0x2000029c

0800a6e8 <__retarget_lock_init_recursive>:
 800a6e8:	4770      	bx	lr

0800a6ea <__retarget_lock_acquire_recursive>:
 800a6ea:	4770      	bx	lr

0800a6ec <__retarget_lock_release_recursive>:
 800a6ec:	4770      	bx	lr

0800a6ee <__swhatbuf_r>:
 800a6ee:	b570      	push	{r4, r5, r6, lr}
 800a6f0:	460e      	mov	r6, r1
 800a6f2:	f9b1 100e 	ldrsh.w	r1, [r1, #14]
 800a6f6:	2900      	cmp	r1, #0
 800a6f8:	b096      	sub	sp, #88	; 0x58
 800a6fa:	4614      	mov	r4, r2
 800a6fc:	461d      	mov	r5, r3
 800a6fe:	da07      	bge.n	800a710 <__swhatbuf_r+0x22>
 800a700:	2300      	movs	r3, #0
 800a702:	602b      	str	r3, [r5, #0]
 800a704:	89b3      	ldrh	r3, [r6, #12]
 800a706:	061a      	lsls	r2, r3, #24
 800a708:	d410      	bmi.n	800a72c <__swhatbuf_r+0x3e>
 800a70a:	f44f 6380 	mov.w	r3, #1024	; 0x400
 800a70e:	e00e      	b.n	800a72e <__swhatbuf_r+0x40>
 800a710:	466a      	mov	r2, sp
 800a712:	f000 fe91 	bl	800b438 <_fstat_r>
 800a716:	2800      	cmp	r0, #0
 800a718:	dbf2      	blt.n	800a700 <__swhatbuf_r+0x12>
 800a71a:	9a01      	ldr	r2, [sp, #4]
 800a71c:	f402 4270 	and.w	r2, r2, #61440	; 0xf000
 800a720:	f5a2 5300 	sub.w	r3, r2, #8192	; 0x2000
 800a724:	425a      	negs	r2, r3
 800a726:	415a      	adcs	r2, r3
 800a728:	602a      	str	r2, [r5, #0]
 800a72a:	e7ee      	b.n	800a70a <__swhatbuf_r+0x1c>
 800a72c:	2340      	movs	r3, #64	; 0x40
 800a72e:	2000      	movs	r0, #0
 800a730:	6023      	str	r3, [r4, #0]
 800a732:	b016      	add	sp, #88	; 0x58
 800a734:	bd70      	pop	{r4, r5, r6, pc}
	...

0800a738 <__smakebuf_r>:
 800a738:	898b      	ldrh	r3, [r1, #12]
 800a73a:	b573      	push	{r0, r1, r4, r5, r6, lr}
 800a73c:	079d      	lsls	r5, r3, #30
 800a73e:	4606      	mov	r6, r0
 800a740:	460c      	mov	r4, r1
 800a742:	d507      	bpl.n	800a754 <__smakebuf_r+0x1c>
 800a744:	f104 0347 	add.w	r3, r4, #71	; 0x47
 800a748:	6023      	str	r3, [r4, #0]
 800a74a:	6123      	str	r3, [r4, #16]
 800a74c:	2301      	movs	r3, #1
 800a74e:	6163      	str	r3, [r4, #20]
 800a750:	b002      	add	sp, #8
 800a752:	bd70      	pop	{r4, r5, r6, pc}
 800a754:	ab01      	add	r3, sp, #4
 800a756:	466a      	mov	r2, sp
 800a758:	f7ff ffc9 	bl	800a6ee <__swhatbuf_r>
 800a75c:	9900      	ldr	r1, [sp, #0]
 800a75e:	4605      	mov	r5, r0
 800a760:	4630      	mov	r0, r6
 800a762:	f000 fc0f 	bl	800af84 <_malloc_r>
 800a766:	b948      	cbnz	r0, 800a77c <__smakebuf_r+0x44>
 800a768:	f9b4 300c 	ldrsh.w	r3, [r4, #12]
 800a76c:	059a      	lsls	r2, r3, #22
 800a76e:	d4ef      	bmi.n	800a750 <__smakebuf_r+0x18>
 800a770:	f023 0303 	bic.w	r3, r3, #3
 800a774:	f043 0302 	orr.w	r3, r3, #2
 800a778:	81a3      	strh	r3, [r4, #12]
 800a77a:	e7e3      	b.n	800a744 <__smakebuf_r+0xc>
 800a77c:	4b0d      	ldr	r3, [pc, #52]	; (800a7b4 <__smakebuf_r+0x7c>)
 800a77e:	62b3      	str	r3, [r6, #40]	; 0x28
 800a780:	89a3      	ldrh	r3, [r4, #12]
 800a782:	6020      	str	r0, [r4, #0]
 800a784:	f043 0380 	orr.w	r3, r3, #128	; 0x80
 800a788:	81a3      	strh	r3, [r4, #12]
 800a78a:	9b00      	ldr	r3, [sp, #0]
 800a78c:	6163      	str	r3, [r4, #20]
 800a78e:	9b01      	ldr	r3, [sp, #4]
 800a790:	6120      	str	r0, [r4, #16]
 800a792:	b15b      	cbz	r3, 800a7ac <__smakebuf_r+0x74>
 800a794:	f9b4 100e 	ldrsh.w	r1, [r4, #14]
 800a798:	4630      	mov	r0, r6
 800a79a:	f000 fe5f 	bl	800b45c <_isatty_r>
 800a79e:	b128      	cbz	r0, 800a7ac <__smakebuf_r+0x74>
 800a7a0:	89a3      	ldrh	r3, [r4, #12]
 800a7a2:	f023 0303 	bic.w	r3, r3, #3
 800a7a6:	f043 0301 	orr.w	r3, r3, #1
 800a7aa:	81a3      	strh	r3, [r4, #12]
 800a7ac:	89a0      	ldrh	r0, [r4, #12]
 800a7ae:	4305      	orrs	r5, r0
 800a7b0:	81a5      	strh	r5, [r4, #12]
 800a7b2:	e7cd      	b.n	800a750 <__smakebuf_r+0x18>
 800a7b4:	0800a53d 	.word	0x0800a53d

0800a7b8 <malloc>:
 800a7b8:	4b02      	ldr	r3, [pc, #8]	; (800a7c4 <malloc+0xc>)
 800a7ba:	4601      	mov	r1, r0
 800a7bc:	6818      	ldr	r0, [r3, #0]
 800a7be:	f000 bbe1 	b.w	800af84 <_malloc_r>
 800a7c2:	bf00      	nop
 800a7c4:	20000148 	.word	0x20000148

0800a7c8 <_Balloc>:
 800a7c8:	b570      	push	{r4, r5, r6, lr}
 800a7ca:	6a46      	ldr	r6, [r0, #36]	; 0x24
 800a7cc:	4604      	mov	r4, r0
 800a7ce:	460d      	mov	r5, r1
 800a7d0:	b976      	cbnz	r6, 800a7f0 <_Balloc+0x28>
 800a7d2:	2010      	movs	r0, #16
 800a7d4:	f7ff fff0 	bl	800a7b8 <malloc>
 800a7d8:	4602      	mov	r2, r0
 800a7da:	6260      	str	r0, [r4, #36]	; 0x24
 800a7dc:	b920      	cbnz	r0, 800a7e8 <_Balloc+0x20>
 800a7de:	4b18      	ldr	r3, [pc, #96]	; (800a840 <_Balloc+0x78>)
 800a7e0:	4818      	ldr	r0, [pc, #96]	; (800a844 <_Balloc+0x7c>)
 800a7e2:	2166      	movs	r1, #102	; 0x66
 800a7e4:	f000 fde8 	bl	800b3b8 <__assert_func>
 800a7e8:	e9c0 6601 	strd	r6, r6, [r0, #4]
 800a7ec:	6006      	str	r6, [r0, #0]
 800a7ee:	60c6      	str	r6, [r0, #12]
 800a7f0:	6a66      	ldr	r6, [r4, #36]	; 0x24
 800a7f2:	68f3      	ldr	r3, [r6, #12]
 800a7f4:	b183      	cbz	r3, 800a818 <_Balloc+0x50>
 800a7f6:	6a63      	ldr	r3, [r4, #36]	; 0x24
 800a7f8:	68db      	ldr	r3, [r3, #12]
 800a7fa:	f853 0025 	ldr.w	r0, [r3, r5, lsl #2]
 800a7fe:	b9b8      	cbnz	r0, 800a830 <_Balloc+0x68>
 800a800:	2101      	movs	r1, #1
 800a802:	fa01 f605 	lsl.w	r6, r1, r5
 800a806:	1d72      	adds	r2, r6, #5
 800a808:	0092      	lsls	r2, r2, #2
 800a80a:	4620      	mov	r0, r4
 800a80c:	f000 fb5a 	bl	800aec4 <_calloc_r>
 800a810:	b160      	cbz	r0, 800a82c <_Balloc+0x64>
 800a812:	e9c0 5601 	strd	r5, r6, [r0, #4]
 800a816:	e00e      	b.n	800a836 <_Balloc+0x6e>
 800a818:	2221      	movs	r2, #33	; 0x21
 800a81a:	2104      	movs	r1, #4
 800a81c:	4620      	mov	r0, r4
 800a81e:	f000 fb51 	bl	800aec4 <_calloc_r>
 800a822:	6a63      	ldr	r3, [r4, #36]	; 0x24
 800a824:	60f0      	str	r0, [r6, #12]
 800a826:	68db      	ldr	r3, [r3, #12]
 800a828:	2b00      	cmp	r3, #0
 800a82a:	d1e4      	bne.n	800a7f6 <_Balloc+0x2e>
 800a82c:	2000      	movs	r0, #0
 800a82e:	bd70      	pop	{r4, r5, r6, pc}
 800a830:	6802      	ldr	r2, [r0, #0]
 800a832:	f843 2025 	str.w	r2, [r3, r5, lsl #2]
 800a836:	2300      	movs	r3, #0
 800a838:	e9c0 3303 	strd	r3, r3, [r0, #12]
 800a83c:	e7f7      	b.n	800a82e <_Balloc+0x66>
 800a83e:	bf00      	nop
 800a840:	08044ec1 	.word	0x08044ec1
 800a844:	08044fa8 	.word	0x08044fa8

0800a848 <_Bfree>:
 800a848:	b570      	push	{r4, r5, r6, lr}
 800a84a:	6a46      	ldr	r6, [r0, #36]	; 0x24
 800a84c:	4605      	mov	r5, r0
 800a84e:	460c      	mov	r4, r1
 800a850:	b976      	cbnz	r6, 800a870 <_Bfree+0x28>
 800a852:	2010      	movs	r0, #16
 800a854:	f7ff ffb0 	bl	800a7b8 <malloc>
 800a858:	4602      	mov	r2, r0
 800a85a:	6268      	str	r0, [r5, #36]	; 0x24
 800a85c:	b920      	cbnz	r0, 800a868 <_Bfree+0x20>
 800a85e:	4b09      	ldr	r3, [pc, #36]	; (800a884 <_Bfree+0x3c>)
 800a860:	4809      	ldr	r0, [pc, #36]	; (800a888 <_Bfree+0x40>)
 800a862:	218a      	movs	r1, #138	; 0x8a
 800a864:	f000 fda8 	bl	800b3b8 <__assert_func>
 800a868:	e9c0 6601 	strd	r6, r6, [r0, #4]
 800a86c:	6006      	str	r6, [r0, #0]
 800a86e:	60c6      	str	r6, [r0, #12]
 800a870:	b13c      	cbz	r4, 800a882 <_Bfree+0x3a>
 800a872:	6a6b      	ldr	r3, [r5, #36]	; 0x24
 800a874:	6862      	ldr	r2, [r4, #4]
 800a876:	68db      	ldr	r3, [r3, #12]
 800a878:	f853 1022 	ldr.w	r1, [r3, r2, lsl #2]
 800a87c:	6021      	str	r1, [r4, #0]
 800a87e:	f843 4022 	str.w	r4, [r3, r2, lsl #2]
 800a882:	bd70      	pop	{r4, r5, r6, pc}
 800a884:	08044ec1 	.word	0x08044ec1
 800a888:	08044fa8 	.word	0x08044fa8

0800a88c <__multadd>:
 800a88c:	e92d 41f0 	stmdb	sp!, {r4, r5, r6, r7, r8, lr}
 800a890:	690e      	ldr	r6, [r1, #16]
 800a892:	4607      	mov	r7, r0
 800a894:	4698      	mov	r8, r3
 800a896:	460c      	mov	r4, r1
 800a898:	f101 0014 	add.w	r0, r1, #20
 800a89c:	2300      	movs	r3, #0
 800a89e:	6805      	ldr	r5, [r0, #0]
 800a8a0:	b2a9      	uxth	r1, r5
 800a8a2:	fb02 8101 	mla	r1, r2, r1, r8
 800a8a6:	ea4f 4c11 	mov.w	ip, r1, lsr #16
 800a8aa:	0c2d      	lsrs	r5, r5, #16
 800a8ac:	fb02 c505 	mla	r5, r2, r5, ip
 800a8b0:	b289      	uxth	r1, r1
 800a8b2:	3301      	adds	r3, #1
 800a8b4:	eb01 4105 	add.w	r1, r1, r5, lsl #16
 800a8b8:	429e      	cmp	r6, r3
 800a8ba:	f840 1b04 	str.w	r1, [r0], #4
 800a8be:	ea4f 4815 	mov.w	r8, r5, lsr #16
 800a8c2:	dcec      	bgt.n	800a89e <__multadd+0x12>
 800a8c4:	f1b8 0f00 	cmp.w	r8, #0
 800a8c8:	d022      	beq.n	800a910 <__multadd+0x84>
 800a8ca:	68a3      	ldr	r3, [r4, #8]
 800a8cc:	42b3      	cmp	r3, r6
 800a8ce:	dc19      	bgt.n	800a904 <__multadd+0x78>
 800a8d0:	6861      	ldr	r1, [r4, #4]
 800a8d2:	4638      	mov	r0, r7
 800a8d4:	3101      	adds	r1, #1
 800a8d6:	f7ff ff77 	bl	800a7c8 <_Balloc>
 800a8da:	4605      	mov	r5, r0
 800a8dc:	b928      	cbnz	r0, 800a8ea <__multadd+0x5e>
 800a8de:	4602      	mov	r2, r0
 800a8e0:	4b0d      	ldr	r3, [pc, #52]	; (800a918 <__multadd+0x8c>)
 800a8e2:	480e      	ldr	r0, [pc, #56]	; (800a91c <__multadd+0x90>)
 800a8e4:	21b5      	movs	r1, #181	; 0xb5
 800a8e6:	f000 fd67 	bl	800b3b8 <__assert_func>
 800a8ea:	6922      	ldr	r2, [r4, #16]
 800a8ec:	3202      	adds	r2, #2
 800a8ee:	f104 010c 	add.w	r1, r4, #12
 800a8f2:	0092      	lsls	r2, r2, #2
 800a8f4:	300c      	adds	r0, #12
 800a8f6:	f7fe f8f5 	bl	8008ae4 <memcpy>
 800a8fa:	4621      	mov	r1, r4
 800a8fc:	4638      	mov	r0, r7
 800a8fe:	f7ff ffa3 	bl	800a848 <_Bfree>
 800a902:	462c      	mov	r4, r5
 800a904:	eb04 0386 	add.w	r3, r4, r6, lsl #2
 800a908:	3601      	adds	r6, #1
 800a90a:	f8c3 8014 	str.w	r8, [r3, #20]
 800a90e:	6126      	str	r6, [r4, #16]
 800a910:	4620      	mov	r0, r4
 800a912:	e8bd 81f0 	ldmia.w	sp!, {r4, r5, r6, r7, r8, pc}
 800a916:	bf00      	nop
 800a918:	08044f37 	.word	0x08044f37
 800a91c:	08044fa8 	.word	0x08044fa8

0800a920 <__hi0bits>:
 800a920:	0c03      	lsrs	r3, r0, #16
 800a922:	041b      	lsls	r3, r3, #16
 800a924:	b9d3      	cbnz	r3, 800a95c <__hi0bits+0x3c>
 800a926:	0400      	lsls	r0, r0, #16
 800a928:	2310      	movs	r3, #16
 800a92a:	f010 4f7f 	tst.w	r0, #4278190080	; 0xff000000
 800a92e:	bf04      	itt	eq
 800a930:	0200      	lsleq	r0, r0, #8
 800a932:	3308      	addeq	r3, #8
 800a934:	f010 4f70 	tst.w	r0, #4026531840	; 0xf0000000
 800a938:	bf04      	itt	eq
 800a93a:	0100      	lsleq	r0, r0, #4
 800a93c:	3304      	addeq	r3, #4
 800a93e:	f010 4f40 	tst.w	r0, #3221225472	; 0xc0000000
 800a942:	bf04      	itt	eq
 800a944:	0080      	lsleq	r0, r0, #2
 800a946:	3302      	addeq	r3, #2
 800a948:	2800      	cmp	r0, #0
 800a94a:	db05      	blt.n	800a958 <__hi0bits+0x38>
 800a94c:	f010 4f80 	tst.w	r0, #1073741824	; 0x40000000
 800a950:	f103 0301 	add.w	r3, r3, #1
 800a954:	bf08      	it	eq
 800a956:	2320      	moveq	r3, #32
 800a958:	4618      	mov	r0, r3
 800a95a:	4770      	bx	lr
 800a95c:	2300      	movs	r3, #0
 800a95e:	e7e4      	b.n	800a92a <__hi0bits+0xa>

0800a960 <__lo0bits>:
 800a960:	6803      	ldr	r3, [r0, #0]
 800a962:	f013 0207 	ands.w	r2, r3, #7
 800a966:	4601      	mov	r1, r0
 800a968:	d00b      	beq.n	800a982 <__lo0bits+0x22>
 800a96a:	07da      	lsls	r2, r3, #31
 800a96c:	d424      	bmi.n	800a9b8 <__lo0bits+0x58>
 800a96e:	0798      	lsls	r0, r3, #30
 800a970:	bf49      	itett	mi
 800a972:	085b      	lsrmi	r3, r3, #1
 800a974:	089b      	lsrpl	r3, r3, #2
 800a976:	2001      	movmi	r0, #1
 800a978:	600b      	strmi	r3, [r1, #0]
 800a97a:	bf5c      	itt	pl
 800a97c:	600b      	strpl	r3, [r1, #0]
 800a97e:	2002      	movpl	r0, #2
 800a980:	4770      	bx	lr
 800a982:	b298      	uxth	r0, r3
 800a984:	b9b0      	cbnz	r0, 800a9b4 <__lo0bits+0x54>
 800a986:	0c1b      	lsrs	r3, r3, #16
 800a988:	2010      	movs	r0, #16
 800a98a:	f013 0fff 	tst.w	r3, #255	; 0xff
 800a98e:	bf04      	itt	eq
 800a990:	0a1b      	lsreq	r3, r3, #8
 800a992:	3008      	addeq	r0, #8
 800a994:	071a      	lsls	r2, r3, #28
 800a996:	bf04      	itt	eq
 800a998:	091b      	lsreq	r3, r3, #4
 800a99a:	3004      	addeq	r0, #4
 800a99c:	079a      	lsls	r2, r3, #30
 800a99e:	bf04      	itt	eq
 800a9a0:	089b      	lsreq	r3, r3, #2
 800a9a2:	3002      	addeq	r0, #2
 800a9a4:	07da      	lsls	r2, r3, #31
 800a9a6:	d403      	bmi.n	800a9b0 <__lo0bits+0x50>
 800a9a8:	085b      	lsrs	r3, r3, #1
 800a9aa:	f100 0001 	add.w	r0, r0, #1
 800a9ae:	d005      	beq.n	800a9bc <__lo0bits+0x5c>
 800a9b0:	600b      	str	r3, [r1, #0]
 800a9b2:	4770      	bx	lr
 800a9b4:	4610      	mov	r0, r2
 800a9b6:	e7e8      	b.n	800a98a <__lo0bits+0x2a>
 800a9b8:	2000      	movs	r0, #0
 800a9ba:	4770      	bx	lr
 800a9bc:	2020      	movs	r0, #32
 800a9be:	4770      	bx	lr

0800a9c0 <__i2b>:
 800a9c0:	b510      	push	{r4, lr}
 800a9c2:	460c      	mov	r4, r1
 800a9c4:	2101      	movs	r1, #1
 800a9c6:	f7ff feff 	bl	800a7c8 <_Balloc>
 800a9ca:	4602      	mov	r2, r0
 800a9cc:	b928      	cbnz	r0, 800a9da <__i2b+0x1a>
 800a9ce:	4b05      	ldr	r3, [pc, #20]	; (800a9e4 <__i2b+0x24>)
 800a9d0:	4805      	ldr	r0, [pc, #20]	; (800a9e8 <__i2b+0x28>)
 800a9d2:	f44f 71a0 	mov.w	r1, #320	; 0x140
 800a9d6:	f000 fcef 	bl	800b3b8 <__assert_func>
 800a9da:	2301      	movs	r3, #1
 800a9dc:	6144      	str	r4, [r0, #20]
 800a9de:	6103      	str	r3, [r0, #16]
 800a9e0:	bd10      	pop	{r4, pc}
 800a9e2:	bf00      	nop
 800a9e4:	08044f37 	.word	0x08044f37
 800a9e8:	08044fa8 	.word	0x08044fa8

0800a9ec <__multiply>:
 800a9ec:	e92d 4ff0 	stmdb	sp!, {r4, r5, r6, r7, r8, r9, sl, fp, lr}
 800a9f0:	4614      	mov	r4, r2
 800a9f2:	690a      	ldr	r2, [r1, #16]
 800a9f4:	6923      	ldr	r3, [r4, #16]
 800a9f6:	429a      	cmp	r2, r3
 800a9f8:	bfb8      	it	lt
 800a9fa:	460b      	movlt	r3, r1
 800a9fc:	460d      	mov	r5, r1
 800a9fe:	bfbc      	itt	lt
 800aa00:	4625      	movlt	r5, r4
 800aa02:	461c      	movlt	r4, r3
 800aa04:	f8d5 a010 	ldr.w	sl, [r5, #16]
 800aa08:	f8d4 9010 	ldr.w	r9, [r4, #16]
 800aa0c:	68ab      	ldr	r3, [r5, #8]
 800aa0e:	6869      	ldr	r1, [r5, #4]
 800aa10:	eb0a 0709 	add.w	r7, sl, r9
 800aa14:	42bb      	cmp	r3, r7
 800aa16:	b085      	sub	sp, #20
 800aa18:	bfb8      	it	lt
 800aa1a:	3101      	addlt	r1, #1
 800aa1c:	f7ff fed4 	bl	800a7c8 <_Balloc>
 800aa20:	b930      	cbnz	r0, 800aa30 <__multiply+0x44>
 800aa22:	4602      	mov	r2, r0
 800aa24:	4b42      	ldr	r3, [pc, #264]	; (800ab30 <__multiply+0x144>)
 800aa26:	4843      	ldr	r0, [pc, #268]	; (800ab34 <__multiply+0x148>)
 800aa28:	f240 115d 	movw	r1, #349	; 0x15d
 800aa2c:	f000 fcc4 	bl	800b3b8 <__assert_func>
 800aa30:	f100 0614 	add.w	r6, r0, #20
 800aa34:	eb06 0887 	add.w	r8, r6, r7, lsl #2
 800aa38:	4633      	mov	r3, r6
 800aa3a:	2200      	movs	r2, #0
 800aa3c:	4543      	cmp	r3, r8
 800aa3e:	d31e      	bcc.n	800aa7e <__multiply+0x92>
 800aa40:	f105 0c14 	add.w	ip, r5, #20
 800aa44:	f104 0314 	add.w	r3, r4, #20
 800aa48:	eb0c 0c8a 	add.w	ip, ip, sl, lsl #2
 800aa4c:	eb03 0289 	add.w	r2, r3, r9, lsl #2
 800aa50:	9202      	str	r2, [sp, #8]
 800aa52:	ebac 0205 	sub.w	r2, ip, r5
 800aa56:	3a15      	subs	r2, #21
 800aa58:	f022 0203 	bic.w	r2, r2, #3
 800aa5c:	3204      	adds	r2, #4
 800aa5e:	f105 0115 	add.w	r1, r5, #21
 800aa62:	458c      	cmp	ip, r1
 800aa64:	bf38      	it	cc
 800aa66:	2204      	movcc	r2, #4
 800aa68:	9201      	str	r2, [sp, #4]
 800aa6a:	9a02      	ldr	r2, [sp, #8]
 800aa6c:	9303      	str	r3, [sp, #12]
 800aa6e:	429a      	cmp	r2, r3
 800aa70:	d808      	bhi.n	800aa84 <__multiply+0x98>
 800aa72:	2f00      	cmp	r7, #0
 800aa74:	dc55      	bgt.n	800ab22 <__multiply+0x136>
 800aa76:	6107      	str	r7, [r0, #16]
 800aa78:	b005      	add	sp, #20
 800aa7a:	e8bd 8ff0 	ldmia.w	sp!, {r4, r5, r6, r7, r8, r9, sl, fp, pc}
 800aa7e:	f843 2b04 	str.w	r2, [r3], #4
 800aa82:	e7db      	b.n	800aa3c <__multiply+0x50>
 800aa84:	f8b3 a000 	ldrh.w	sl, [r3]
 800aa88:	f1ba 0f00 	cmp.w	sl, #0
 800aa8c:	d020      	beq.n	800aad0 <__multiply+0xe4>
 800aa8e:	f105 0e14 	add.w	lr, r5, #20
 800aa92:	46b1      	mov	r9, r6
 800aa94:	2200      	movs	r2, #0
 800aa96:	f85e 4b04 	ldr.w	r4, [lr], #4
 800aa9a:	f8d9 b000 	ldr.w	fp, [r9]
 800aa9e:	b2a1      	uxth	r1, r4
 800aaa0:	fa1f fb8b 	uxth.w	fp, fp
 800aaa4:	fb0a b101 	mla	r1, sl, r1, fp
 800aaa8:	4411      	add	r1, r2
 800aaaa:	f8d9 2000 	ldr.w	r2, [r9]
 800aaae:	0c24      	lsrs	r4, r4, #16
 800aab0:	0c12      	lsrs	r2, r2, #16
 800aab2:	fb0a 2404 	mla	r4, sl, r4, r2
 800aab6:	eb04 4411 	add.w	r4, r4, r1, lsr #16
 800aaba:	b289      	uxth	r1, r1
 800aabc:	ea41 4104 	orr.w	r1, r1, r4, lsl #16
 800aac0:	45f4      	cmp	ip, lr
 800aac2:	f849 1b04 	str.w	r1, [r9], #4
 800aac6:	ea4f 4214 	mov.w	r2, r4, lsr #16
 800aaca:	d8e4      	bhi.n	800aa96 <__multiply+0xaa>
 800aacc:	9901      	ldr	r1, [sp, #4]
 800aace:	5072      	str	r2, [r6, r1]
 800aad0:	9a03      	ldr	r2, [sp, #12]
 800aad2:	f8b2 9002 	ldrh.w	r9, [r2, #2]
 800aad6:	3304      	adds	r3, #4
 800aad8:	f1b9 0f00 	cmp.w	r9, #0
 800aadc:	d01f      	beq.n	800ab1e <__multiply+0x132>
 800aade:	6834      	ldr	r4, [r6, #0]
 800aae0:	f105 0114 	add.w	r1, r5, #20
 800aae4:	46b6      	mov	lr, r6
 800aae6:	f04f 0a00 	mov.w	sl, #0
 800aaea:	880a      	ldrh	r2, [r1, #0]
 800aaec:	f8be b002 	ldrh.w	fp, [lr, #2]
 800aaf0:	fb09 b202 	mla	r2, r9, r2, fp
 800aaf4:	4492      	add	sl, r2
 800aaf6:	b2a4      	uxth	r4, r4
 800aaf8:	ea44 440a 	orr.w	r4, r4, sl, lsl #16
 800aafc:	f84e 4b04 	str.w	r4, [lr], #4
 800ab00:	f851 4b04 	ldr.w	r4, [r1], #4
 800ab04:	f8be 2000 	ldrh.w	r2, [lr]
 800ab08:	0c24      	lsrs	r4, r4, #16
 800ab0a:	fb09 2404 	mla	r4, r9, r4, r2
 800ab0e:	eb04 441a 	add.w	r4, r4, sl, lsr #16
 800ab12:	458c      	cmp	ip, r1
 800ab14:	ea4f 4a14 	mov.w	sl, r4, lsr #16
 800ab18:	d8e7      	bhi.n	800aaea <__multiply+0xfe>
 800ab1a:	9a01      	ldr	r2, [sp, #4]
 800ab1c:	50b4      	str	r4, [r6, r2]
 800ab1e:	3604      	adds	r6, #4
 800ab20:	e7a3      	b.n	800aa6a <__multiply+0x7e>
 800ab22:	f858 3d04 	ldr.w	r3, [r8, #-4]!
 800ab26:	2b00      	cmp	r3, #0
 800ab28:	d1a5      	bne.n	800aa76 <__multiply+0x8a>
 800ab2a:	3f01      	subs	r7, #1
 800ab2c:	e7a1      	b.n	800aa72 <__multiply+0x86>
 800ab2e:	bf00      	nop
 800ab30:	08044f37 	.word	0x08044f37
 800ab34:	08044fa8 	.word	0x08044fa8

0800ab38 <__pow5mult>:
 800ab38:	e92d 43f8 	stmdb	sp!, {r3, r4, r5, r6, r7, r8, r9, lr}
 800ab3c:	4615      	mov	r5, r2
 800ab3e:	f012 0203 	ands.w	r2, r2, #3
 800ab42:	4606      	mov	r6, r0
 800ab44:	460f      	mov	r7, r1
 800ab46:	d007      	beq.n	800ab58 <__pow5mult+0x20>
 800ab48:	4c25      	ldr	r4, [pc, #148]	; (800abe0 <__pow5mult+0xa8>)
 800ab4a:	3a01      	subs	r2, #1
 800ab4c:	2300      	movs	r3, #0
 800ab4e:	f854 2022 	ldr.w	r2, [r4, r2, lsl #2]
 800ab52:	f7ff fe9b 	bl	800a88c <__multadd>
 800ab56:	4607      	mov	r7, r0
 800ab58:	10ad      	asrs	r5, r5, #2
 800ab5a:	d03d      	beq.n	800abd8 <__pow5mult+0xa0>
 800ab5c:	6a74      	ldr	r4, [r6, #36]	; 0x24
 800ab5e:	b97c      	cbnz	r4, 800ab80 <__pow5mult+0x48>
 800ab60:	2010      	movs	r0, #16
 800ab62:	f7ff fe29 	bl	800a7b8 <malloc>
 800ab66:	4602      	mov	r2, r0
 800ab68:	6270      	str	r0, [r6, #36]	; 0x24
 800ab6a:	b928      	cbnz	r0, 800ab78 <__pow5mult+0x40>
 800ab6c:	4b1d      	ldr	r3, [pc, #116]	; (800abe4 <__pow5mult+0xac>)
 800ab6e:	481e      	ldr	r0, [pc, #120]	; (800abe8 <__pow5mult+0xb0>)
 800ab70:	f44f 71d7 	mov.w	r1, #430	; 0x1ae
 800ab74:	f000 fc20 	bl	800b3b8 <__assert_func>
 800ab78:	e9c0 4401 	strd	r4, r4, [r0, #4]
 800ab7c:	6004      	str	r4, [r0, #0]
 800ab7e:	60c4      	str	r4, [r0, #12]
 800ab80:	f8d6 8024 	ldr.w	r8, [r6, #36]	; 0x24
 800ab84:	f8d8 4008 	ldr.w	r4, [r8, #8]
 800ab88:	b94c      	cbnz	r4, 800ab9e <__pow5mult+0x66>
 800ab8a:	f240 2171 	movw	r1, #625	; 0x271
 800ab8e:	4630      	mov	r0, r6
 800ab90:	f7ff ff16 	bl	800a9c0 <__i2b>
 800ab94:	2300      	movs	r3, #0
 800ab96:	f8c8 0008 	str.w	r0, [r8, #8]
 800ab9a:	4604      	mov	r4, r0
 800ab9c:	6003      	str	r3, [r0, #0]
 800ab9e:	f04f 0900 	mov.w	r9, #0
 800aba2:	07eb      	lsls	r3, r5, #31
 800aba4:	d50a      	bpl.n	800abbc <__pow5mult+0x84>
 800aba6:	4639      	mov	r1, r7
 800aba8:	4622      	mov	r2, r4
 800abaa:	4630      	mov	r0, r6
 800abac:	f7ff ff1e 	bl	800a9ec <__multiply>
 800abb0:	4639      	mov	r1, r7
 800abb2:	4680      	mov	r8, r0
 800abb4:	4630      	mov	r0, r6
 800abb6:	f7ff fe47 	bl	800a848 <_Bfree>
 800abba:	4647      	mov	r7, r8
 800abbc:	106d      	asrs	r5, r5, #1
 800abbe:	d00b      	beq.n	800abd8 <__pow5mult+0xa0>
 800abc0:	6820      	ldr	r0, [r4, #0]
 800abc2:	b938      	cbnz	r0, 800abd4 <__pow5mult+0x9c>
 800abc4:	4622      	mov	r2, r4
 800abc6:	4621      	mov	r1, r4
 800abc8:	4630      	mov	r0, r6
 800abca:	f7ff ff0f 	bl	800a9ec <__multiply>
 800abce:	6020      	str	r0, [r4, #0]
 800abd0:	f8c0 9000 	str.w	r9, [r0]
 800abd4:	4604      	mov	r4, r0
 800abd6:	e7e4      	b.n	800aba2 <__pow5mult+0x6a>
 800abd8:	4638      	mov	r0, r7
 800abda:	e8bd 83f8 	ldmia.w	sp!, {r3, r4, r5, r6, r7, r8, r9, pc}
 800abde:	bf00      	nop
 800abe0:	080450f8 	.word	0x080450f8
 800abe4:	08044ec1 	.word	0x08044ec1
 800abe8:	08044fa8 	.word	0x08044fa8

0800abec <__lshift>:
 800abec:	e92d 47f0 	stmdb	sp!, {r4, r5, r6, r7, r8, r9, sl, lr}
 800abf0:	460c      	mov	r4, r1
 800abf2:	6849      	ldr	r1, [r1, #4]
 800abf4:	6923      	ldr	r3, [r4, #16]
 800abf6:	eb03 1862 	add.w	r8, r3, r2, asr #5
 800abfa:	68a3      	ldr	r3, [r4, #8]
 800abfc:	4607      	mov	r7, r0
 800abfe:	4691      	mov	r9, r2
 800ac00:	ea4f 1a62 	mov.w	sl, r2, asr #5
 800ac04:	f108 0601 	add.w	r6, r8, #1
 800ac08:	42b3      	cmp	r3, r6
 800ac0a:	db0b      	blt.n	800ac24 <__lshift+0x38>
 800ac0c:	4638      	mov	r0, r7
 800ac0e:	f7ff fddb 	bl	800a7c8 <_Balloc>
 800ac12:	4605      	mov	r5, r0
 800ac14:	b948      	cbnz	r0, 800ac2a <__lshift+0x3e>
 800ac16:	4602      	mov	r2, r0
 800ac18:	4b28      	ldr	r3, [pc, #160]	; (800acbc <__lshift+0xd0>)
 800ac1a:	4829      	ldr	r0, [pc, #164]	; (800acc0 <__lshift+0xd4>)
 800ac1c:	f240 11d9 	movw	r1, #473	; 0x1d9
 800ac20:	f000 fbca 	bl	800b3b8 <__assert_func>
 800ac24:	3101      	adds	r1, #1
 800ac26:	005b      	lsls	r3, r3, #1
 800ac28:	e7ee      	b.n	800ac08 <__lshift+0x1c>
 800ac2a:	2300      	movs	r3, #0
 800ac2c:	f100 0114 	add.w	r1, r0, #20
 800ac30:	f100 0210 	add.w	r2, r0, #16
 800ac34:	4618      	mov	r0, r3
 800ac36:	4553      	cmp	r3, sl
 800ac38:	db33      	blt.n	800aca2 <__lshift+0xb6>
 800ac3a:	6920      	ldr	r0, [r4, #16]
 800ac3c:	ea2a 7aea 	bic.w	sl, sl, sl, asr #31
 800ac40:	f104 0314 	add.w	r3, r4, #20
 800ac44:	f019 091f 	ands.w	r9, r9, #31
 800ac48:	eb01 018a 	add.w	r1, r1, sl, lsl #2
 800ac4c:	eb03 0c80 	add.w	ip, r3, r0, lsl #2
 800ac50:	d02b      	beq.n	800acaa <__lshift+0xbe>
 800ac52:	f1c9 0e20 	rsb	lr, r9, #32
 800ac56:	468a      	mov	sl, r1
 800ac58:	2200      	movs	r2, #0
 800ac5a:	6818      	ldr	r0, [r3, #0]
 800ac5c:	fa00 f009 	lsl.w	r0, r0, r9
 800ac60:	4302      	orrs	r2, r0
 800ac62:	f84a 2b04 	str.w	r2, [sl], #4
 800ac66:	f853 2b04 	ldr.w	r2, [r3], #4
 800ac6a:	459c      	cmp	ip, r3
 800ac6c:	fa22 f20e 	lsr.w	r2, r2, lr
 800ac70:	d8f3      	bhi.n	800ac5a <__lshift+0x6e>
 800ac72:	ebac 0304 	sub.w	r3, ip, r4
 800ac76:	3b15      	subs	r3, #21
 800ac78:	f023 0303 	bic.w	r3, r3, #3
 800ac7c:	3304      	adds	r3, #4
 800ac7e:	f104 0015 	add.w	r0, r4, #21
 800ac82:	4584      	cmp	ip, r0
 800ac84:	bf38      	it	cc
 800ac86:	2304      	movcc	r3, #4
 800ac88:	50ca      	str	r2, [r1, r3]
 800ac8a:	b10a      	cbz	r2, 800ac90 <__lshift+0xa4>
 800ac8c:	f108 0602 	add.w	r6, r8, #2
 800ac90:	3e01      	subs	r6, #1
 800ac92:	4638      	mov	r0, r7
 800ac94:	612e      	str	r6, [r5, #16]
 800ac96:	4621      	mov	r1, r4
 800ac98:	f7ff fdd6 	bl	800a848 <_Bfree>
 800ac9c:	4628      	mov	r0, r5
 800ac9e:	e8bd 87f0 	ldmia.w	sp!, {r4, r5, r6, r7, r8, r9, sl, pc}
 800aca2:	f842 0f04 	str.w	r0, [r2, #4]!
 800aca6:	3301      	adds	r3, #1
 800aca8:	e7c5      	b.n	800ac36 <__lshift+0x4a>
 800acaa:	3904      	subs	r1, #4
 800acac:	f853 2b04 	ldr.w	r2, [r3], #4
 800acb0:	f841 2f04 	str.w	r2, [r1, #4]!
 800acb4:	459c      	cmp	ip, r3
 800acb6:	d8f9      	bhi.n	800acac <__lshift+0xc0>
 800acb8:	e7ea      	b.n	800ac90 <__lshift+0xa4>
 800acba:	bf00      	nop
 800acbc:	08044f37 	.word	0x08044f37
 800acc0:	08044fa8 	.word	0x08044fa8

0800acc4 <__mcmp>:
 800acc4:	b530      	push	{r4, r5, lr}
 800acc6:	6902      	ldr	r2, [r0, #16]
 800acc8:	690c      	ldr	r4, [r1, #16]
 800acca:	1b12      	subs	r2, r2, r4
 800accc:	d10e      	bne.n	800acec <__mcmp+0x28>
 800acce:	f100 0314 	add.w	r3, r0, #20
 800acd2:	3114      	adds	r1, #20
 800acd4:	eb03 0084 	add.w	r0, r3, r4, lsl #2
 800acd8:	eb01 0184 	add.w	r1, r1, r4, lsl #2
 800acdc:	f850 5d04 	ldr.w	r5, [r0, #-4]!
 800ace0:	f851 4d04 	ldr.w	r4, [r1, #-4]!
 800ace4:	42a5      	cmp	r5, r4
 800ace6:	d003      	beq.n	800acf0 <__mcmp+0x2c>
 800ace8:	d305      	bcc.n	800acf6 <__mcmp+0x32>
 800acea:	2201      	movs	r2, #1
 800acec:	4610      	mov	r0, r2
 800acee:	bd30      	pop	{r4, r5, pc}
 800acf0:	4283      	cmp	r3, r0
 800acf2:	d3f3      	bcc.n	800acdc <__mcmp+0x18>
 800acf4:	e7fa      	b.n	800acec <__mcmp+0x28>
 800acf6:	f04f 32ff 	mov.w	r2, #4294967295	; 0xffffffff
 800acfa:	e7f7      	b.n	800acec <__mcmp+0x28>

0800acfc <__mdiff>:
 800acfc:	e92d 4ff8 	stmdb	sp!, {r3, r4, r5, r6, r7, r8, r9, sl, fp, lr}
 800ad00:	460c      	mov	r4, r1
 800ad02:	4606      	mov	r6, r0
 800ad04:	4611      	mov	r1, r2
 800ad06:	4620      	mov	r0, r4
 800ad08:	4617      	mov	r7, r2
 800ad0a:	f7ff ffdb 	bl	800acc4 <__mcmp>
 800ad0e:	1e05      	subs	r5, r0, #0
 800ad10:	d110      	bne.n	800ad34 <__mdiff+0x38>
 800ad12:	4629      	mov	r1, r5
 800ad14:	4630      	mov	r0, r6
 800ad16:	f7ff fd57 	bl	800a7c8 <_Balloc>
 800ad1a:	b930      	cbnz	r0, 800ad2a <__mdiff+0x2e>
 800ad1c:	4b39      	ldr	r3, [pc, #228]	; (800ae04 <__mdiff+0x108>)
 800ad1e:	4602      	mov	r2, r0
 800ad20:	f240 2132 	movw	r1, #562	; 0x232
 800ad24:	4838      	ldr	r0, [pc, #224]	; (800ae08 <__mdiff+0x10c>)
 800ad26:	f000 fb47 	bl	800b3b8 <__assert_func>
 800ad2a:	2301      	movs	r3, #1
 800ad2c:	e9c0 3504 	strd	r3, r5, [r0, #16]
 800ad30:	e8bd 8ff8 	ldmia.w	sp!, {r3, r4, r5, r6, r7, r8, r9, sl, fp, pc}
 800ad34:	bfa4      	itt	ge
 800ad36:	463b      	movge	r3, r7
 800ad38:	4627      	movge	r7, r4
 800ad3a:	4630      	mov	r0, r6
 800ad3c:	6879      	ldr	r1, [r7, #4]
 800ad3e:	bfa6      	itte	ge
 800ad40:	461c      	movge	r4, r3
 800ad42:	2500      	movge	r5, #0
 800ad44:	2501      	movlt	r5, #1
 800ad46:	f7ff fd3f 	bl	800a7c8 <_Balloc>
 800ad4a:	b920      	cbnz	r0, 800ad56 <__mdiff+0x5a>
 800ad4c:	4b2d      	ldr	r3, [pc, #180]	; (800ae04 <__mdiff+0x108>)
 800ad4e:	4602      	mov	r2, r0
 800ad50:	f44f 7110 	mov.w	r1, #576	; 0x240
 800ad54:	e7e6      	b.n	800ad24 <__mdiff+0x28>
 800ad56:	693e      	ldr	r6, [r7, #16]
 800ad58:	60c5      	str	r5, [r0, #12]
 800ad5a:	6925      	ldr	r5, [r4, #16]
 800ad5c:	f107 0114 	add.w	r1, r7, #20
 800ad60:	f104 0914 	add.w	r9, r4, #20
 800ad64:	f100 0e14 	add.w	lr, r0, #20
 800ad68:	f107 0210 	add.w	r2, r7, #16
 800ad6c:	eb01 0c86 	add.w	ip, r1, r6, lsl #2
 800ad70:	eb09 0585 	add.w	r5, r9, r5, lsl #2
 800ad74:	46f2      	mov	sl, lr
 800ad76:	2700      	movs	r7, #0
 800ad78:	f859 3b04 	ldr.w	r3, [r9], #4
 800ad7c:	f852 bf04 	ldr.w	fp, [r2, #4]!
 800ad80:	fa1f f883 	uxth.w	r8, r3
 800ad84:	fa17 f78b 	uxtah	r7, r7, fp
 800ad88:	0c1b      	lsrs	r3, r3, #16
 800ad8a:	eba7 0808 	sub.w	r8, r7, r8
 800ad8e:	ebc3 431b 	rsb	r3, r3, fp, lsr #16
 800ad92:	eb03 4328 	add.w	r3, r3, r8, asr #16
 800ad96:	fa1f f888 	uxth.w	r8, r8
 800ad9a:	141f      	asrs	r7, r3, #16
 800ad9c:	454d      	cmp	r5, r9
 800ad9e:	ea48 4303 	orr.w	r3, r8, r3, lsl #16
 800ada2:	f84a 3b04 	str.w	r3, [sl], #4
 800ada6:	d8e7      	bhi.n	800ad78 <__mdiff+0x7c>
 800ada8:	1b2b      	subs	r3, r5, r4
 800adaa:	3b15      	subs	r3, #21
 800adac:	f023 0303 	bic.w	r3, r3, #3
 800adb0:	3304      	adds	r3, #4
 800adb2:	3415      	adds	r4, #21
 800adb4:	42a5      	cmp	r5, r4
 800adb6:	bf38      	it	cc
 800adb8:	2304      	movcc	r3, #4
 800adba:	4419      	add	r1, r3
 800adbc:	4473      	add	r3, lr
 800adbe:	469e      	mov	lr, r3
 800adc0:	460d      	mov	r5, r1
 800adc2:	4565      	cmp	r5, ip
 800adc4:	d30e      	bcc.n	800ade4 <__mdiff+0xe8>
 800adc6:	f10c 0203 	add.w	r2, ip, #3
 800adca:	1a52      	subs	r2, r2, r1
 800adcc:	f022 0203 	bic.w	r2, r2, #3
 800add0:	3903      	subs	r1, #3
 800add2:	458c      	cmp	ip, r1
 800add4:	bf38      	it	cc
 800add6:	2200      	movcc	r2, #0
 800add8:	441a      	add	r2, r3
 800adda:	f852 3d04 	ldr.w	r3, [r2, #-4]!
 800adde:	b17b      	cbz	r3, 800ae00 <__mdiff+0x104>
 800ade0:	6106      	str	r6, [r0, #16]
 800ade2:	e7a5      	b.n	800ad30 <__mdiff+0x34>
 800ade4:	f855 8b04 	ldr.w	r8, [r5], #4
 800ade8:	fa17 f488 	uxtah	r4, r7, r8
 800adec:	1422      	asrs	r2, r4, #16
 800adee:	eb02 4218 	add.w	r2, r2, r8, lsr #16
 800adf2:	b2a4      	uxth	r4, r4
 800adf4:	ea44 4402 	orr.w	r4, r4, r2, lsl #16
 800adf8:	f84e 4b04 	str.w	r4, [lr], #4
 800adfc:	1417      	asrs	r7, r2, #16
 800adfe:	e7e0      	b.n	800adc2 <__mdiff+0xc6>
 800ae00:	3e01      	subs	r6, #1
 800ae02:	e7ea      	b.n	800adda <__mdiff+0xde>
 800ae04:	08044f37 	.word	0x08044f37
 800ae08:	08044fa8 	.word	0x08044fa8

0800ae0c <__d2b>:
 800ae0c:	e92d 43f7 	stmdb	sp!, {r0, r1, r2, r4, r5, r6, r7, r8, r9, lr}
 800ae10:	4689      	mov	r9, r1
 800ae12:	2101      	movs	r1, #1
 800ae14:	ec57 6b10 	vmov	r6, r7, d0
 800ae18:	4690      	mov	r8, r2
 800ae1a:	f7ff fcd5 	bl	800a7c8 <_Balloc>
 800ae1e:	4604      	mov	r4, r0
 800ae20:	b930      	cbnz	r0, 800ae30 <__d2b+0x24>
 800ae22:	4602      	mov	r2, r0
 800ae24:	4b25      	ldr	r3, [pc, #148]	; (800aebc <__d2b+0xb0>)
 800ae26:	4826      	ldr	r0, [pc, #152]	; (800aec0 <__d2b+0xb4>)
 800ae28:	f240 310a 	movw	r1, #778	; 0x30a
 800ae2c:	f000 fac4 	bl	800b3b8 <__assert_func>
 800ae30:	f3c7 550a 	ubfx	r5, r7, #20, #11
 800ae34:	f3c7 0313 	ubfx	r3, r7, #0, #20
 800ae38:	bb35      	cbnz	r5, 800ae88 <__d2b+0x7c>
 800ae3a:	2e00      	cmp	r6, #0
 800ae3c:	9301      	str	r3, [sp, #4]
 800ae3e:	d028      	beq.n	800ae92 <__d2b+0x86>
 800ae40:	4668      	mov	r0, sp
 800ae42:	9600      	str	r6, [sp, #0]
 800ae44:	f7ff fd8c 	bl	800a960 <__lo0bits>
 800ae48:	9900      	ldr	r1, [sp, #0]
 800ae4a:	b300      	cbz	r0, 800ae8e <__d2b+0x82>
 800ae4c:	9a01      	ldr	r2, [sp, #4]
 800ae4e:	f1c0 0320 	rsb	r3, r0, #32
 800ae52:	fa02 f303 	lsl.w	r3, r2, r3
 800ae56:	430b      	orrs	r3, r1
 800ae58:	40c2      	lsrs	r2, r0
 800ae5a:	6163      	str	r3, [r4, #20]
 800ae5c:	9201      	str	r2, [sp, #4]
 800ae5e:	9b01      	ldr	r3, [sp, #4]
 800ae60:	61a3      	str	r3, [r4, #24]
 800ae62:	2b00      	cmp	r3, #0
 800ae64:	bf14      	ite	ne
 800ae66:	2202      	movne	r2, #2
 800ae68:	2201      	moveq	r2, #1
 800ae6a:	6122      	str	r2, [r4, #16]
 800ae6c:	b1d5      	cbz	r5, 800aea4 <__d2b+0x98>
 800ae6e:	f2a5 4533 	subw	r5, r5, #1075	; 0x433
 800ae72:	4405      	add	r5, r0
 800ae74:	f8c9 5000 	str.w	r5, [r9]
 800ae78:	f1c0 0035 	rsb	r0, r0, #53	; 0x35
 800ae7c:	f8c8 0000 	str.w	r0, [r8]
 800ae80:	4620      	mov	r0, r4
 800ae82:	b003      	add	sp, #12
 800ae84:	e8bd 83f0 	ldmia.w	sp!, {r4, r5, r6, r7, r8, r9, pc}
 800ae88:	f443 1380 	orr.w	r3, r3, #1048576	; 0x100000
 800ae8c:	e7d5      	b.n	800ae3a <__d2b+0x2e>
 800ae8e:	6161      	str	r1, [r4, #20]
 800ae90:	e7e5      	b.n	800ae5e <__d2b+0x52>
 800ae92:	a801      	add	r0, sp, #4
 800ae94:	f7ff fd64 	bl	800a960 <__lo0bits>
 800ae98:	9b01      	ldr	r3, [sp, #4]
 800ae9a:	6163      	str	r3, [r4, #20]
 800ae9c:	2201      	movs	r2, #1
 800ae9e:	6122      	str	r2, [r4, #16]
 800aea0:	3020      	adds	r0, #32
 800aea2:	e7e3      	b.n	800ae6c <__d2b+0x60>
 800aea4:	eb04 0382 	add.w	r3, r4, r2, lsl #2
 800aea8:	f2a0 4032 	subw	r0, r0, #1074	; 0x432
 800aeac:	f8c9 0000 	str.w	r0, [r9]
 800aeb0:	6918      	ldr	r0, [r3, #16]
 800aeb2:	f7ff fd35 	bl	800a920 <__hi0bits>
 800aeb6:	ebc0 1042 	rsb	r0, r0, r2, lsl #5
 800aeba:	e7df      	b.n	800ae7c <__d2b+0x70>
 800aebc:	08044f37 	.word	0x08044f37
 800aec0:	08044fa8 	.word	0x08044fa8

0800aec4 <_calloc_r>:
 800aec4:	b513      	push	{r0, r1, r4, lr}
 800aec6:	434a      	muls	r2, r1
 800aec8:	4611      	mov	r1, r2
 800aeca:	9201      	str	r2, [sp, #4]
 800aecc:	f000 f85a 	bl	800af84 <_malloc_r>
 800aed0:	4604      	mov	r4, r0
 800aed2:	b118      	cbz	r0, 800aedc <_calloc_r+0x18>
 800aed4:	9a01      	ldr	r2, [sp, #4]
 800aed6:	2100      	movs	r1, #0
 800aed8:	f7fd fe12 	bl	8008b00 <memset>
 800aedc:	4620      	mov	r0, r4
 800aede:	b002      	add	sp, #8
 800aee0:	bd10      	pop	{r4, pc}
	...

0800aee4 <_free_r>:
 800aee4:	b537      	push	{r0, r1, r2, r4, r5, lr}
 800aee6:	2900      	cmp	r1, #0
 800aee8:	d048      	beq.n	800af7c <_free_r+0x98>
 800aeea:	f851 3c04 	ldr.w	r3, [r1, #-4]
 800aeee:	9001      	str	r0, [sp, #4]
 800aef0:	2b00      	cmp	r3, #0
 800aef2:	f1a1 0404 	sub.w	r4, r1, #4
 800aef6:	bfb8      	it	lt
 800aef8:	18e4      	addlt	r4, r4, r3
 800aefa:	f000 fae3 	bl	800b4c4 <__malloc_lock>
 800aefe:	4a20      	ldr	r2, [pc, #128]	; (800af80 <_free_r+0x9c>)
 800af00:	9801      	ldr	r0, [sp, #4]
 800af02:	6813      	ldr	r3, [r2, #0]
 800af04:	4615      	mov	r5, r2
 800af06:	b933      	cbnz	r3, 800af16 <_free_r+0x32>
 800af08:	6063      	str	r3, [r4, #4]
 800af0a:	6014      	str	r4, [r2, #0]
 800af0c:	b003      	add	sp, #12
 800af0e:	e8bd 4030 	ldmia.w	sp!, {r4, r5, lr}
 800af12:	f000 badd 	b.w	800b4d0 <__malloc_unlock>
 800af16:	42a3      	cmp	r3, r4
 800af18:	d90b      	bls.n	800af32 <_free_r+0x4e>
 800af1a:	6821      	ldr	r1, [r4, #0]
 800af1c:	1862      	adds	r2, r4, r1
 800af1e:	4293      	cmp	r3, r2
 800af20:	bf04      	itt	eq
 800af22:	681a      	ldreq	r2, [r3, #0]
 800af24:	685b      	ldreq	r3, [r3, #4]
 800af26:	6063      	str	r3, [r4, #4]
 800af28:	bf04      	itt	eq
 800af2a:	1852      	addeq	r2, r2, r1
 800af2c:	6022      	streq	r2, [r4, #0]
 800af2e:	602c      	str	r4, [r5, #0]
 800af30:	e7ec      	b.n	800af0c <_free_r+0x28>
 800af32:	461a      	mov	r2, r3
 800af34:	685b      	ldr	r3, [r3, #4]
 800af36:	b10b      	cbz	r3, 800af3c <_free_r+0x58>
 800af38:	42a3      	cmp	r3, r4
 800af3a:	d9fa      	bls.n	800af32 <_free_r+0x4e>
 800af3c:	6811      	ldr	r1, [r2, #0]
 800af3e:	1855      	adds	r5, r2, r1
 800af40:	42a5      	cmp	r5, r4
 800af42:	d10b      	bne.n	800af5c <_free_r+0x78>
 800af44:	6824      	ldr	r4, [r4, #0]
 800af46:	4421      	add	r1, r4
 800af48:	1854      	adds	r4, r2, r1
 800af4a:	42a3      	cmp	r3, r4
 800af4c:	6011      	str	r1, [r2, #0]
 800af4e:	d1dd      	bne.n	800af0c <_free_r+0x28>
 800af50:	681c      	ldr	r4, [r3, #0]
 800af52:	685b      	ldr	r3, [r3, #4]
 800af54:	6053      	str	r3, [r2, #4]
 800af56:	4421      	add	r1, r4
 800af58:	6011      	str	r1, [r2, #0]
 800af5a:	e7d7      	b.n	800af0c <_free_r+0x28>
 800af5c:	d902      	bls.n	800af64 <_free_r+0x80>
 800af5e:	230c      	movs	r3, #12
 800af60:	6003      	str	r3, [r0, #0]
 800af62:	e7d3      	b.n	800af0c <_free_r+0x28>
 800af64:	6825      	ldr	r5, [r4, #0]
 800af66:	1961      	adds	r1, r4, r5
 800af68:	428b      	cmp	r3, r1
 800af6a:	bf04      	itt	eq
 800af6c:	6819      	ldreq	r1, [r3, #0]
 800af6e:	685b      	ldreq	r3, [r3, #4]
 800af70:	6063      	str	r3, [r4, #4]
 800af72:	bf04      	itt	eq
 800af74:	1949      	addeq	r1, r1, r5
 800af76:	6021      	streq	r1, [r4, #0]
 800af78:	6054      	str	r4, [r2, #4]
 800af7a:	e7c7      	b.n	800af0c <_free_r+0x28>
 800af7c:	b003      	add	sp, #12
 800af7e:	bd30      	pop	{r4, r5, pc}
 800af80:	20003fc4 	.word	0x20003fc4

0800af84 <_malloc_r>:
 800af84:	b5f8      	push	{r3, r4, r5, r6, r7, lr}
 800af86:	1ccd      	adds	r5, r1, #3
 800af88:	f025 0503 	bic.w	r5, r5, #3
 800af8c:	3508      	adds	r5, #8
 800af8e:	2d0c      	cmp	r5, #12
 800af90:	bf38      	it	cc
 800af92:	250c      	movcc	r5, #12
 800af94:	2d00      	cmp	r5, #0
 800af96:	4606      	mov	r6, r0
 800af98:	db01      	blt.n	800af9e <_malloc_r+0x1a>
 800af9a:	42a9      	cmp	r1, r5
 800af9c:	d903      	bls.n	800afa6 <_malloc_r+0x22>
 800af9e:	230c      	movs	r3, #12
 800afa0:	6033      	str	r3, [r6, #0]
 800afa2:	2000      	movs	r0, #0
 800afa4:	bdf8      	pop	{r3, r4, r5, r6, r7, pc}
 800afa6:	f000 fa8d 	bl	800b4c4 <__malloc_lock>
 800afaa:	4921      	ldr	r1, [pc, #132]	; (800b030 <_malloc_r+0xac>)
 800afac:	680a      	ldr	r2, [r1, #0]
 800afae:	4614      	mov	r4, r2
 800afb0:	b99c      	cbnz	r4, 800afda <_malloc_r+0x56>
 800afb2:	4f20      	ldr	r7, [pc, #128]	; (800b034 <_malloc_r+0xb0>)
 800afb4:	683b      	ldr	r3, [r7, #0]
 800afb6:	b923      	cbnz	r3, 800afc2 <_malloc_r+0x3e>
 800afb8:	4621      	mov	r1, r4
 800afba:	4630      	mov	r0, r6
 800afbc:	f000 f996 	bl	800b2ec <_sbrk_r>
 800afc0:	6038      	str	r0, [r7, #0]
 800afc2:	4629      	mov	r1, r5
 800afc4:	4630      	mov	r0, r6
 800afc6:	f000 f991 	bl	800b2ec <_sbrk_r>
 800afca:	1c43      	adds	r3, r0, #1
 800afcc:	d123      	bne.n	800b016 <_malloc_r+0x92>
 800afce:	230c      	movs	r3, #12
 800afd0:	6033      	str	r3, [r6, #0]
 800afd2:	4630      	mov	r0, r6
 800afd4:	f000 fa7c 	bl	800b4d0 <__malloc_unlock>
 800afd8:	e7e3      	b.n	800afa2 <_malloc_r+0x1e>
 800afda:	6823      	ldr	r3, [r4, #0]
 800afdc:	1b5b      	subs	r3, r3, r5
 800afde:	d417      	bmi.n	800b010 <_malloc_r+0x8c>
 800afe0:	2b0b      	cmp	r3, #11
 800afe2:	d903      	bls.n	800afec <_malloc_r+0x68>
 800afe4:	6023      	str	r3, [r4, #0]
 800afe6:	441c      	add	r4, r3
 800afe8:	6025      	str	r5, [r4, #0]
 800afea:	e004      	b.n	800aff6 <_malloc_r+0x72>
 800afec:	6863      	ldr	r3, [r4, #4]
 800afee:	42a2      	cmp	r2, r4
 800aff0:	bf0c      	ite	eq
 800aff2:	600b      	streq	r3, [r1, #0]
 800aff4:	6053      	strne	r3, [r2, #4]
 800aff6:	4630      	mov	r0, r6
 800aff8:	f000 fa6a 	bl	800b4d0 <__malloc_unlock>
 800affc:	f104 000b 	add.w	r0, r4, #11
 800b000:	1d23      	adds	r3, r4, #4
 800b002:	f020 0007 	bic.w	r0, r0, #7
 800b006:	1ac2      	subs	r2, r0, r3
 800b008:	d0cc      	beq.n	800afa4 <_malloc_r+0x20>
 800b00a:	1a1b      	subs	r3, r3, r0
 800b00c:	50a3      	str	r3, [r4, r2]
 800b00e:	e7c9      	b.n	800afa4 <_malloc_r+0x20>
 800b010:	4622      	mov	r2, r4
 800b012:	6864      	ldr	r4, [r4, #4]
 800b014:	e7cc      	b.n	800afb0 <_malloc_r+0x2c>
 800b016:	1cc4      	adds	r4, r0, #3
 800b018:	f024 0403 	bic.w	r4, r4, #3
 800b01c:	42a0      	cmp	r0, r4
 800b01e:	d0e3      	beq.n	800afe8 <_malloc_r+0x64>
 800b020:	1a21      	subs	r1, r4, r0
 800b022:	4630      	mov	r0, r6
 800b024:	f000 f962 	bl	800b2ec <_sbrk_r>
 800b028:	3001      	adds	r0, #1
 800b02a:	d1dd      	bne.n	800afe8 <_malloc_r+0x64>
 800b02c:	e7cf      	b.n	800afce <_malloc_r+0x4a>
 800b02e:	bf00      	nop
 800b030:	20003fc4 	.word	0x20003fc4
 800b034:	20003fc8 	.word	0x20003fc8

0800b038 <__sfputc_r>:
 800b038:	6893      	ldr	r3, [r2, #8]
 800b03a:	3b01      	subs	r3, #1
 800b03c:	2b00      	cmp	r3, #0
 800b03e:	b410      	push	{r4}
 800b040:	6093      	str	r3, [r2, #8]
 800b042:	da08      	bge.n	800b056 <__sfputc_r+0x1e>
 800b044:	6994      	ldr	r4, [r2, #24]
 800b046:	42a3      	cmp	r3, r4
 800b048:	db01      	blt.n	800b04e <__sfputc_r+0x16>
 800b04a:	290a      	cmp	r1, #10
 800b04c:	d103      	bne.n	800b056 <__sfputc_r+0x1e>
 800b04e:	f85d 4b04 	ldr.w	r4, [sp], #4
 800b052:	f7fe ba55 	b.w	8009500 <__swbuf_r>
 800b056:	6813      	ldr	r3, [r2, #0]
 800b058:	1c58      	adds	r0, r3, #1
 800b05a:	6010      	str	r0, [r2, #0]
 800b05c:	7019      	strb	r1, [r3, #0]
 800b05e:	4608      	mov	r0, r1
 800b060:	f85d 4b04 	ldr.w	r4, [sp], #4
 800b064:	4770      	bx	lr

0800b066 <__sfputs_r>:
 800b066:	b5f8      	push	{r3, r4, r5, r6, r7, lr}
 800b068:	4606      	mov	r6, r0
 800b06a:	460f      	mov	r7, r1
 800b06c:	4614      	mov	r4, r2
 800b06e:	18d5      	adds	r5, r2, r3
 800b070:	42ac      	cmp	r4, r5
 800b072:	d101      	bne.n	800b078 <__sfputs_r+0x12>
 800b074:	2000      	movs	r0, #0
 800b076:	e007      	b.n	800b088 <__sfputs_r+0x22>
 800b078:	f814 1b01 	ldrb.w	r1, [r4], #1
 800b07c:	463a      	mov	r2, r7
 800b07e:	4630      	mov	r0, r6
 800b080:	f7ff ffda 	bl	800b038 <__sfputc_r>
 800b084:	1c43      	adds	r3, r0, #1
 800b086:	d1f3      	bne.n	800b070 <__sfputs_r+0xa>
 800b088:	bdf8      	pop	{r3, r4, r5, r6, r7, pc}
	...

0800b08c <_vfiprintf_r>:
 800b08c:	e92d 4ff0 	stmdb	sp!, {r4, r5, r6, r7, r8, r9, sl, fp, lr}
 800b090:	460d      	mov	r5, r1
 800b092:	b09d      	sub	sp, #116	; 0x74
 800b094:	4614      	mov	r4, r2
 800b096:	4698      	mov	r8, r3
 800b098:	4606      	mov	r6, r0
 800b09a:	b118      	cbz	r0, 800b0a4 <_vfiprintf_r+0x18>
 800b09c:	6983      	ldr	r3, [r0, #24]
 800b09e:	b90b      	cbnz	r3, 800b0a4 <_vfiprintf_r+0x18>
 800b0a0:	f7ff fa80 	bl	800a5a4 <__sinit>
 800b0a4:	4b89      	ldr	r3, [pc, #548]	; (800b2cc <_vfiprintf_r+0x240>)
 800b0a6:	429d      	cmp	r5, r3
 800b0a8:	d11b      	bne.n	800b0e2 <_vfiprintf_r+0x56>
 800b0aa:	6875      	ldr	r5, [r6, #4]
 800b0ac:	6e6b      	ldr	r3, [r5, #100]	; 0x64
 800b0ae:	07d9      	lsls	r1, r3, #31
 800b0b0:	d405      	bmi.n	800b0be <_vfiprintf_r+0x32>
 800b0b2:	89ab      	ldrh	r3, [r5, #12]
 800b0b4:	059a      	lsls	r2, r3, #22
 800b0b6:	d402      	bmi.n	800b0be <_vfiprintf_r+0x32>
 800b0b8:	6da8      	ldr	r0, [r5, #88]	; 0x58
 800b0ba:	f7ff fb16 	bl	800a6ea <__retarget_lock_acquire_recursive>
 800b0be:	89ab      	ldrh	r3, [r5, #12]
 800b0c0:	071b      	lsls	r3, r3, #28
 800b0c2:	d501      	bpl.n	800b0c8 <_vfiprintf_r+0x3c>
 800b0c4:	692b      	ldr	r3, [r5, #16]
 800b0c6:	b9eb      	cbnz	r3, 800b104 <_vfiprintf_r+0x78>
 800b0c8:	4629      	mov	r1, r5
 800b0ca:	4630      	mov	r0, r6
 800b0cc:	f7fe fa6a 	bl	80095a4 <__swsetup_r>
 800b0d0:	b1c0      	cbz	r0, 800b104 <_vfiprintf_r+0x78>
 800b0d2:	6e6b      	ldr	r3, [r5, #100]	; 0x64
 800b0d4:	07dc      	lsls	r4, r3, #31
 800b0d6:	d50e      	bpl.n	800b0f6 <_vfiprintf_r+0x6a>
 800b0d8:	f04f 30ff 	mov.w	r0, #4294967295	; 0xffffffff
 800b0dc:	b01d      	add	sp, #116	; 0x74
 800b0de:	e8bd 8ff0 	ldmia.w	sp!, {r4, r5, r6, r7, r8, r9, sl, fp, pc}
 800b0e2:	4b7b      	ldr	r3, [pc, #492]	; (800b2d0 <_vfiprintf_r+0x244>)
 800b0e4:	429d      	cmp	r5, r3
 800b0e6:	d101      	bne.n	800b0ec <_vfiprintf_r+0x60>
 800b0e8:	68b5      	ldr	r5, [r6, #8]
 800b0ea:	e7df      	b.n	800b0ac <_vfiprintf_r+0x20>
 800b0ec:	4b79      	ldr	r3, [pc, #484]	; (800b2d4 <_vfiprintf_r+0x248>)
 800b0ee:	429d      	cmp	r5, r3
 800b0f0:	bf08      	it	eq
 800b0f2:	68f5      	ldreq	r5, [r6, #12]
 800b0f4:	e7da      	b.n	800b0ac <_vfiprintf_r+0x20>
 800b0f6:	89ab      	ldrh	r3, [r5, #12]
 800b0f8:	0598      	lsls	r0, r3, #22
 800b0fa:	d4ed      	bmi.n	800b0d8 <_vfiprintf_r+0x4c>
 800b0fc:	6da8      	ldr	r0, [r5, #88]	; 0x58
 800b0fe:	f7ff faf5 	bl	800a6ec <__retarget_lock_release_recursive>
 800b102:	e7e9      	b.n	800b0d8 <_vfiprintf_r+0x4c>
 800b104:	2300      	movs	r3, #0
 800b106:	9309      	str	r3, [sp, #36]	; 0x24
 800b108:	2320      	movs	r3, #32
 800b10a:	f88d 3029 	strb.w	r3, [sp, #41]	; 0x29
 800b10e:	f8cd 800c 	str.w	r8, [sp, #12]
 800b112:	2330      	movs	r3, #48	; 0x30
 800b114:	f8df 81c0 	ldr.w	r8, [pc, #448]	; 800b2d8 <_vfiprintf_r+0x24c>
 800b118:	f88d 302a 	strb.w	r3, [sp, #42]	; 0x2a
 800b11c:	f04f 0901 	mov.w	r9, #1
 800b120:	4623      	mov	r3, r4
 800b122:	469a      	mov	sl, r3
 800b124:	f813 2b01 	ldrb.w	r2, [r3], #1
 800b128:	b10a      	cbz	r2, 800b12e <_vfiprintf_r+0xa2>
 800b12a:	2a25      	cmp	r2, #37	; 0x25
 800b12c:	d1f9      	bne.n	800b122 <_vfiprintf_r+0x96>
 800b12e:	ebba 0b04 	subs.w	fp, sl, r4
 800b132:	d00b      	beq.n	800b14c <_vfiprintf_r+0xc0>
 800b134:	465b      	mov	r3, fp
 800b136:	4622      	mov	r2, r4
 800b138:	4629      	mov	r1, r5
 800b13a:	4630      	mov	r0, r6
 800b13c:	f7ff ff93 	bl	800b066 <__sfputs_r>
 800b140:	3001      	adds	r0, #1
 800b142:	f000 80aa 	beq.w	800b29a <_vfiprintf_r+0x20e>
 800b146:	9a09      	ldr	r2, [sp, #36]	; 0x24
 800b148:	445a      	add	r2, fp
 800b14a:	9209      	str	r2, [sp, #36]	; 0x24
 800b14c:	f89a 3000 	ldrb.w	r3, [sl]
 800b150:	2b00      	cmp	r3, #0
 800b152:	f000 80a2 	beq.w	800b29a <_vfiprintf_r+0x20e>
 800b156:	2300      	movs	r3, #0
 800b158:	f04f 32ff 	mov.w	r2, #4294967295	; 0xffffffff
 800b15c:	e9cd 2305 	strd	r2, r3, [sp, #20]
 800b160:	f10a 0a01 	add.w	sl, sl, #1
 800b164:	9304      	str	r3, [sp, #16]
 800b166:	9307      	str	r3, [sp, #28]
 800b168:	f88d 3053 	strb.w	r3, [sp, #83]	; 0x53
 800b16c:	931a      	str	r3, [sp, #104]	; 0x68
 800b16e:	4654      	mov	r4, sl
 800b170:	2205      	movs	r2, #5
 800b172:	f814 1b01 	ldrb.w	r1, [r4], #1
 800b176:	4858      	ldr	r0, [pc, #352]	; (800b2d8 <_vfiprintf_r+0x24c>)
 800b178:	f7f5 f83a 	bl	80001f0 <memchr>
 800b17c:	9a04      	ldr	r2, [sp, #16]
 800b17e:	b9d8      	cbnz	r0, 800b1b8 <_vfiprintf_r+0x12c>
 800b180:	06d1      	lsls	r1, r2, #27
 800b182:	bf44      	itt	mi
 800b184:	2320      	movmi	r3, #32
 800b186:	f88d 3053 	strbmi.w	r3, [sp, #83]	; 0x53
 800b18a:	0713      	lsls	r3, r2, #28
 800b18c:	bf44      	itt	mi
 800b18e:	232b      	movmi	r3, #43	; 0x2b
 800b190:	f88d 3053 	strbmi.w	r3, [sp, #83]	; 0x53
 800b194:	f89a 3000 	ldrb.w	r3, [sl]
 800b198:	2b2a      	cmp	r3, #42	; 0x2a
 800b19a:	d015      	beq.n	800b1c8 <_vfiprintf_r+0x13c>
 800b19c:	9a07      	ldr	r2, [sp, #28]
 800b19e:	4654      	mov	r4, sl
 800b1a0:	2000      	movs	r0, #0
 800b1a2:	f04f 0c0a 	mov.w	ip, #10
 800b1a6:	4621      	mov	r1, r4
 800b1a8:	f811 3b01 	ldrb.w	r3, [r1], #1
 800b1ac:	3b30      	subs	r3, #48	; 0x30
 800b1ae:	2b09      	cmp	r3, #9
 800b1b0:	d94e      	bls.n	800b250 <_vfiprintf_r+0x1c4>
 800b1b2:	b1b0      	cbz	r0, 800b1e2 <_vfiprintf_r+0x156>
 800b1b4:	9207      	str	r2, [sp, #28]
 800b1b6:	e014      	b.n	800b1e2 <_vfiprintf_r+0x156>
 800b1b8:	eba0 0308 	sub.w	r3, r0, r8
 800b1bc:	fa09 f303 	lsl.w	r3, r9, r3
 800b1c0:	4313      	orrs	r3, r2
 800b1c2:	9304      	str	r3, [sp, #16]
 800b1c4:	46a2      	mov	sl, r4
 800b1c6:	e7d2      	b.n	800b16e <_vfiprintf_r+0xe2>
 800b1c8:	9b03      	ldr	r3, [sp, #12]
 800b1ca:	1d19      	adds	r1, r3, #4
 800b1cc:	681b      	ldr	r3, [r3, #0]
 800b1ce:	9103      	str	r1, [sp, #12]
 800b1d0:	2b00      	cmp	r3, #0
 800b1d2:	bfbb      	ittet	lt
 800b1d4:	425b      	neglt	r3, r3
 800b1d6:	f042 0202 	orrlt.w	r2, r2, #2
 800b1da:	9307      	strge	r3, [sp, #28]
 800b1dc:	9307      	strlt	r3, [sp, #28]
 800b1de:	bfb8      	it	lt
 800b1e0:	9204      	strlt	r2, [sp, #16]
 800b1e2:	7823      	ldrb	r3, [r4, #0]
 800b1e4:	2b2e      	cmp	r3, #46	; 0x2e
 800b1e6:	d10c      	bne.n	800b202 <_vfiprintf_r+0x176>
 800b1e8:	7863      	ldrb	r3, [r4, #1]
 800b1ea:	2b2a      	cmp	r3, #42	; 0x2a
 800b1ec:	d135      	bne.n	800b25a <_vfiprintf_r+0x1ce>
 800b1ee:	9b03      	ldr	r3, [sp, #12]
 800b1f0:	1d1a      	adds	r2, r3, #4
 800b1f2:	681b      	ldr	r3, [r3, #0]
 800b1f4:	9203      	str	r2, [sp, #12]
 800b1f6:	2b00      	cmp	r3, #0
 800b1f8:	bfb8      	it	lt
 800b1fa:	f04f 33ff 	movlt.w	r3, #4294967295	; 0xffffffff
 800b1fe:	3402      	adds	r4, #2
 800b200:	9305      	str	r3, [sp, #20]
 800b202:	f8df a0e4 	ldr.w	sl, [pc, #228]	; 800b2e8 <_vfiprintf_r+0x25c>
 800b206:	7821      	ldrb	r1, [r4, #0]
 800b208:	2203      	movs	r2, #3
 800b20a:	4650      	mov	r0, sl
 800b20c:	f7f4 fff0 	bl	80001f0 <memchr>
 800b210:	b140      	cbz	r0, 800b224 <_vfiprintf_r+0x198>
 800b212:	2340      	movs	r3, #64	; 0x40
 800b214:	eba0 000a 	sub.w	r0, r0, sl
 800b218:	fa03 f000 	lsl.w	r0, r3, r0
 800b21c:	9b04      	ldr	r3, [sp, #16]
 800b21e:	4303      	orrs	r3, r0
 800b220:	3401      	adds	r4, #1
 800b222:	9304      	str	r3, [sp, #16]
 800b224:	f814 1b01 	ldrb.w	r1, [r4], #1
 800b228:	482c      	ldr	r0, [pc, #176]	; (800b2dc <_vfiprintf_r+0x250>)
 800b22a:	f88d 1028 	strb.w	r1, [sp, #40]	; 0x28
 800b22e:	2206      	movs	r2, #6
 800b230:	f7f4 ffde 	bl	80001f0 <memchr>
 800b234:	2800      	cmp	r0, #0
 800b236:	d03f      	beq.n	800b2b8 <_vfiprintf_r+0x22c>
 800b238:	4b29      	ldr	r3, [pc, #164]	; (800b2e0 <_vfiprintf_r+0x254>)
 800b23a:	bb1b      	cbnz	r3, 800b284 <_vfiprintf_r+0x1f8>
 800b23c:	9b03      	ldr	r3, [sp, #12]
 800b23e:	3307      	adds	r3, #7
 800b240:	f023 0307 	bic.w	r3, r3, #7
 800b244:	3308      	adds	r3, #8
 800b246:	9303      	str	r3, [sp, #12]
 800b248:	9b09      	ldr	r3, [sp, #36]	; 0x24
 800b24a:	443b      	add	r3, r7
 800b24c:	9309      	str	r3, [sp, #36]	; 0x24
 800b24e:	e767      	b.n	800b120 <_vfiprintf_r+0x94>
 800b250:	fb0c 3202 	mla	r2, ip, r2, r3
 800b254:	460c      	mov	r4, r1
 800b256:	2001      	movs	r0, #1
 800b258:	e7a5      	b.n	800b1a6 <_vfiprintf_r+0x11a>
 800b25a:	2300      	movs	r3, #0
 800b25c:	3401      	adds	r4, #1
 800b25e:	9305      	str	r3, [sp, #20]
 800b260:	4619      	mov	r1, r3
 800b262:	f04f 0c0a 	mov.w	ip, #10
 800b266:	4620      	mov	r0, r4
 800b268:	f810 2b01 	ldrb.w	r2, [r0], #1
 800b26c:	3a30      	subs	r2, #48	; 0x30
 800b26e:	2a09      	cmp	r2, #9
 800b270:	d903      	bls.n	800b27a <_vfiprintf_r+0x1ee>
 800b272:	2b00      	cmp	r3, #0
 800b274:	d0c5      	beq.n	800b202 <_vfiprintf_r+0x176>
 800b276:	9105      	str	r1, [sp, #20]
 800b278:	e7c3      	b.n	800b202 <_vfiprintf_r+0x176>
 800b27a:	fb0c 2101 	mla	r1, ip, r1, r2
 800b27e:	4604      	mov	r4, r0
 800b280:	2301      	movs	r3, #1
 800b282:	e7f0      	b.n	800b266 <_vfiprintf_r+0x1da>
 800b284:	ab03      	add	r3, sp, #12
 800b286:	9300      	str	r3, [sp, #0]
 800b288:	462a      	mov	r2, r5
 800b28a:	4b16      	ldr	r3, [pc, #88]	; (800b2e4 <_vfiprintf_r+0x258>)
 800b28c:	a904      	add	r1, sp, #16
 800b28e:	4630      	mov	r0, r6
 800b290:	f7fd fcde 	bl	8008c50 <_printf_float>
 800b294:	4607      	mov	r7, r0
 800b296:	1c78      	adds	r0, r7, #1
 800b298:	d1d6      	bne.n	800b248 <_vfiprintf_r+0x1bc>
 800b29a:	6e6b      	ldr	r3, [r5, #100]	; 0x64
 800b29c:	07d9      	lsls	r1, r3, #31
 800b29e:	d405      	bmi.n	800b2ac <_vfiprintf_r+0x220>
 800b2a0:	89ab      	ldrh	r3, [r5, #12]
 800b2a2:	059a      	lsls	r2, r3, #22
 800b2a4:	d402      	bmi.n	800b2ac <_vfiprintf_r+0x220>
 800b2a6:	6da8      	ldr	r0, [r5, #88]	; 0x58
 800b2a8:	f7ff fa20 	bl	800a6ec <__retarget_lock_release_recursive>
 800b2ac:	89ab      	ldrh	r3, [r5, #12]
 800b2ae:	065b      	lsls	r3, r3, #25
 800b2b0:	f53f af12 	bmi.w	800b0d8 <_vfiprintf_r+0x4c>
 800b2b4:	9809      	ldr	r0, [sp, #36]	; 0x24
 800b2b6:	e711      	b.n	800b0dc <_vfiprintf_r+0x50>
 800b2b8:	ab03      	add	r3, sp, #12
 800b2ba:	9300      	str	r3, [sp, #0]
 800b2bc:	462a      	mov	r2, r5
 800b2be:	4b09      	ldr	r3, [pc, #36]	; (800b2e4 <_vfiprintf_r+0x258>)
 800b2c0:	a904      	add	r1, sp, #16
 800b2c2:	4630      	mov	r0, r6
 800b2c4:	f7fd ff68 	bl	8009198 <_printf_i>
 800b2c8:	e7e4      	b.n	800b294 <_vfiprintf_r+0x208>
 800b2ca:	bf00      	nop
 800b2cc:	08044f68 	.word	0x08044f68
 800b2d0:	08044f88 	.word	0x08044f88
 800b2d4:	08044f48 	.word	0x08044f48
 800b2d8:	08045104 	.word	0x08045104
 800b2dc:	0804510e 	.word	0x0804510e
 800b2e0:	08008c51 	.word	0x08008c51
 800b2e4:	0800b067 	.word	0x0800b067
 800b2e8:	0804510a 	.word	0x0804510a

0800b2ec <_sbrk_r>:
 800b2ec:	b538      	push	{r3, r4, r5, lr}
 800b2ee:	4d06      	ldr	r5, [pc, #24]	; (800b308 <_sbrk_r+0x1c>)
 800b2f0:	2300      	movs	r3, #0
 800b2f2:	4604      	mov	r4, r0
 800b2f4:	4608      	mov	r0, r1
 800b2f6:	602b      	str	r3, [r5, #0]
 800b2f8:	f7f8 fd1c 	bl	8003d34 <_sbrk>
 800b2fc:	1c43      	adds	r3, r0, #1
 800b2fe:	d102      	bne.n	800b306 <_sbrk_r+0x1a>
 800b300:	682b      	ldr	r3, [r5, #0]
 800b302:	b103      	cbz	r3, 800b306 <_sbrk_r+0x1a>
 800b304:	6023      	str	r3, [r4, #0]
 800b306:	bd38      	pop	{r3, r4, r5, pc}
 800b308:	200134dc 	.word	0x200134dc

0800b30c <__sread>:
 800b30c:	b510      	push	{r4, lr}
 800b30e:	460c      	mov	r4, r1
 800b310:	f9b1 100e 	ldrsh.w	r1, [r1, #14]
 800b314:	f000 f8e2 	bl	800b4dc <_read_r>
 800b318:	2800      	cmp	r0, #0
 800b31a:	bfab      	itete	ge
 800b31c:	6d63      	ldrge	r3, [r4, #84]	; 0x54
 800b31e:	89a3      	ldrhlt	r3, [r4, #12]
 800b320:	181b      	addge	r3, r3, r0
 800b322:	f423 5380 	biclt.w	r3, r3, #4096	; 0x1000
 800b326:	bfac      	ite	ge
 800b328:	6563      	strge	r3, [r4, #84]	; 0x54
 800b32a:	81a3      	strhlt	r3, [r4, #12]
 800b32c:	bd10      	pop	{r4, pc}

0800b32e <__swrite>:
 800b32e:	e92d 41f0 	stmdb	sp!, {r4, r5, r6, r7, r8, lr}
 800b332:	461f      	mov	r7, r3
 800b334:	898b      	ldrh	r3, [r1, #12]
 800b336:	05db      	lsls	r3, r3, #23
 800b338:	4605      	mov	r5, r0
 800b33a:	460c      	mov	r4, r1
 800b33c:	4616      	mov	r6, r2
 800b33e:	d505      	bpl.n	800b34c <__swrite+0x1e>
 800b340:	f9b1 100e 	ldrsh.w	r1, [r1, #14]
 800b344:	2302      	movs	r3, #2
 800b346:	2200      	movs	r2, #0
 800b348:	f000 f898 	bl	800b47c <_lseek_r>
 800b34c:	89a3      	ldrh	r3, [r4, #12]
 800b34e:	f9b4 100e 	ldrsh.w	r1, [r4, #14]
 800b352:	f423 5380 	bic.w	r3, r3, #4096	; 0x1000
 800b356:	81a3      	strh	r3, [r4, #12]
 800b358:	4632      	mov	r2, r6
 800b35a:	463b      	mov	r3, r7
 800b35c:	4628      	mov	r0, r5
 800b35e:	e8bd 41f0 	ldmia.w	sp!, {r4, r5, r6, r7, r8, lr}
 800b362:	f000 b817 	b.w	800b394 <_write_r>

0800b366 <__sseek>:
 800b366:	b510      	push	{r4, lr}
 800b368:	460c      	mov	r4, r1
 800b36a:	f9b1 100e 	ldrsh.w	r1, [r1, #14]
 800b36e:	f000 f885 	bl	800b47c <_lseek_r>
 800b372:	1c43      	adds	r3, r0, #1
 800b374:	89a3      	ldrh	r3, [r4, #12]
 800b376:	bf15      	itete	ne
 800b378:	6560      	strne	r0, [r4, #84]	; 0x54
 800b37a:	f423 5380 	biceq.w	r3, r3, #4096	; 0x1000
 800b37e:	f443 5380 	orrne.w	r3, r3, #4096	; 0x1000
 800b382:	81a3      	strheq	r3, [r4, #12]
 800b384:	bf18      	it	ne
 800b386:	81a3      	strhne	r3, [r4, #12]
 800b388:	bd10      	pop	{r4, pc}

0800b38a <__sclose>:
 800b38a:	f9b1 100e 	ldrsh.w	r1, [r1, #14]
 800b38e:	f000 b831 	b.w	800b3f4 <_close_r>
	...

0800b394 <_write_r>:
 800b394:	b538      	push	{r3, r4, r5, lr}
 800b396:	4d07      	ldr	r5, [pc, #28]	; (800b3b4 <_write_r+0x20>)
 800b398:	4604      	mov	r4, r0
 800b39a:	4608      	mov	r0, r1
 800b39c:	4611      	mov	r1, r2
 800b39e:	2200      	movs	r2, #0
 800b3a0:	602a      	str	r2, [r5, #0]
 800b3a2:	461a      	mov	r2, r3
 800b3a4:	f7f6 f808 	bl	80013b8 <_write>
 800b3a8:	1c43      	adds	r3, r0, #1
 800b3aa:	d102      	bne.n	800b3b2 <_write_r+0x1e>
 800b3ac:	682b      	ldr	r3, [r5, #0]
 800b3ae:	b103      	cbz	r3, 800b3b2 <_write_r+0x1e>
 800b3b0:	6023      	str	r3, [r4, #0]
 800b3b2:	bd38      	pop	{r3, r4, r5, pc}
 800b3b4:	200134dc 	.word	0x200134dc

0800b3b8 <__assert_func>:
 800b3b8:	b51f      	push	{r0, r1, r2, r3, r4, lr}
 800b3ba:	4614      	mov	r4, r2
 800b3bc:	461a      	mov	r2, r3
 800b3be:	4b09      	ldr	r3, [pc, #36]	; (800b3e4 <__assert_func+0x2c>)
 800b3c0:	681b      	ldr	r3, [r3, #0]
 800b3c2:	4605      	mov	r5, r0
 800b3c4:	68d8      	ldr	r0, [r3, #12]
 800b3c6:	b14c      	cbz	r4, 800b3dc <__assert_func+0x24>
 800b3c8:	4b07      	ldr	r3, [pc, #28]	; (800b3e8 <__assert_func+0x30>)
 800b3ca:	9100      	str	r1, [sp, #0]
 800b3cc:	e9cd 3401 	strd	r3, r4, [sp, #4]
 800b3d0:	4906      	ldr	r1, [pc, #24]	; (800b3ec <__assert_func+0x34>)
 800b3d2:	462b      	mov	r3, r5
 800b3d4:	f000 f81e 	bl	800b414 <fiprintf>
 800b3d8:	f000 f89f 	bl	800b51a <abort>
 800b3dc:	4b04      	ldr	r3, [pc, #16]	; (800b3f0 <__assert_func+0x38>)
 800b3de:	461c      	mov	r4, r3
 800b3e0:	e7f3      	b.n	800b3ca <__assert_func+0x12>
 800b3e2:	bf00      	nop
 800b3e4:	20000148 	.word	0x20000148
 800b3e8:	08045115 	.word	0x08045115
 800b3ec:	08045122 	.word	0x08045122
 800b3f0:	08045150 	.word	0x08045150

0800b3f4 <_close_r>:
 800b3f4:	b538      	push	{r3, r4, r5, lr}
 800b3f6:	4d06      	ldr	r5, [pc, #24]	; (800b410 <_close_r+0x1c>)
 800b3f8:	2300      	movs	r3, #0
 800b3fa:	4604      	mov	r4, r0
 800b3fc:	4608      	mov	r0, r1
 800b3fe:	602b      	str	r3, [r5, #0]
 800b400:	f7f8 fc8a 	bl	8003d18 <_close>
 800b404:	1c43      	adds	r3, r0, #1
 800b406:	d102      	bne.n	800b40e <_close_r+0x1a>
 800b408:	682b      	ldr	r3, [r5, #0]
 800b40a:	b103      	cbz	r3, 800b40e <_close_r+0x1a>
 800b40c:	6023      	str	r3, [r4, #0]
 800b40e:	bd38      	pop	{r3, r4, r5, pc}
 800b410:	200134dc 	.word	0x200134dc

0800b414 <fiprintf>:
 800b414:	b40e      	push	{r1, r2, r3}
 800b416:	b503      	push	{r0, r1, lr}
 800b418:	4601      	mov	r1, r0
 800b41a:	ab03      	add	r3, sp, #12
 800b41c:	4805      	ldr	r0, [pc, #20]	; (800b434 <fiprintf+0x20>)
 800b41e:	f853 2b04 	ldr.w	r2, [r3], #4
 800b422:	6800      	ldr	r0, [r0, #0]
 800b424:	9301      	str	r3, [sp, #4]
 800b426:	f7ff fe31 	bl	800b08c <_vfiprintf_r>
 800b42a:	b002      	add	sp, #8
 800b42c:	f85d eb04 	ldr.w	lr, [sp], #4
 800b430:	b003      	add	sp, #12
 800b432:	4770      	bx	lr
 800b434:	20000148 	.word	0x20000148

0800b438 <_fstat_r>:
 800b438:	b538      	push	{r3, r4, r5, lr}
 800b43a:	4d07      	ldr	r5, [pc, #28]	; (800b458 <_fstat_r+0x20>)
 800b43c:	2300      	movs	r3, #0
 800b43e:	4604      	mov	r4, r0
 800b440:	4608      	mov	r0, r1
 800b442:	4611      	mov	r1, r2
 800b444:	602b      	str	r3, [r5, #0]
 800b446:	f7f8 fc6b 	bl	8003d20 <_fstat>
 800b44a:	1c43      	adds	r3, r0, #1
 800b44c:	d102      	bne.n	800b454 <_fstat_r+0x1c>
 800b44e:	682b      	ldr	r3, [r5, #0]
 800b450:	b103      	cbz	r3, 800b454 <_fstat_r+0x1c>
 800b452:	6023      	str	r3, [r4, #0]
 800b454:	bd38      	pop	{r3, r4, r5, pc}
 800b456:	bf00      	nop
 800b458:	200134dc 	.word	0x200134dc

0800b45c <_isatty_r>:
 800b45c:	b538      	push	{r3, r4, r5, lr}
 800b45e:	4d06      	ldr	r5, [pc, #24]	; (800b478 <_isatty_r+0x1c>)
 800b460:	2300      	movs	r3, #0
 800b462:	4604      	mov	r4, r0
 800b464:	4608      	mov	r0, r1
 800b466:	602b      	str	r3, [r5, #0]
 800b468:	f7f8 fc60 	bl	8003d2c <_isatty>
 800b46c:	1c43      	adds	r3, r0, #1
 800b46e:	d102      	bne.n	800b476 <_isatty_r+0x1a>
 800b470:	682b      	ldr	r3, [r5, #0]
 800b472:	b103      	cbz	r3, 800b476 <_isatty_r+0x1a>
 800b474:	6023      	str	r3, [r4, #0]
 800b476:	bd38      	pop	{r3, r4, r5, pc}
 800b478:	200134dc 	.word	0x200134dc

0800b47c <_lseek_r>:
 800b47c:	b538      	push	{r3, r4, r5, lr}
 800b47e:	4d07      	ldr	r5, [pc, #28]	; (800b49c <_lseek_r+0x20>)
 800b480:	4604      	mov	r4, r0
 800b482:	4608      	mov	r0, r1
 800b484:	4611      	mov	r1, r2
 800b486:	2200      	movs	r2, #0
 800b488:	602a      	str	r2, [r5, #0]
 800b48a:	461a      	mov	r2, r3
 800b48c:	f7f8 fc50 	bl	8003d30 <_lseek>
 800b490:	1c43      	adds	r3, r0, #1
 800b492:	d102      	bne.n	800b49a <_lseek_r+0x1e>
 800b494:	682b      	ldr	r3, [r5, #0]
 800b496:	b103      	cbz	r3, 800b49a <_lseek_r+0x1e>
 800b498:	6023      	str	r3, [r4, #0]
 800b49a:	bd38      	pop	{r3, r4, r5, pc}
 800b49c:	200134dc 	.word	0x200134dc

0800b4a0 <__ascii_mbtowc>:
 800b4a0:	b082      	sub	sp, #8
 800b4a2:	b901      	cbnz	r1, 800b4a6 <__ascii_mbtowc+0x6>
 800b4a4:	a901      	add	r1, sp, #4
 800b4a6:	b142      	cbz	r2, 800b4ba <__ascii_mbtowc+0x1a>
 800b4a8:	b14b      	cbz	r3, 800b4be <__ascii_mbtowc+0x1e>
 800b4aa:	7813      	ldrb	r3, [r2, #0]
 800b4ac:	600b      	str	r3, [r1, #0]
 800b4ae:	7812      	ldrb	r2, [r2, #0]
 800b4b0:	1e10      	subs	r0, r2, #0
 800b4b2:	bf18      	it	ne
 800b4b4:	2001      	movne	r0, #1
 800b4b6:	b002      	add	sp, #8
 800b4b8:	4770      	bx	lr
 800b4ba:	4610      	mov	r0, r2
 800b4bc:	e7fb      	b.n	800b4b6 <__ascii_mbtowc+0x16>
 800b4be:	f06f 0001 	mvn.w	r0, #1
 800b4c2:	e7f8      	b.n	800b4b6 <__ascii_mbtowc+0x16>

0800b4c4 <__malloc_lock>:
 800b4c4:	4801      	ldr	r0, [pc, #4]	; (800b4cc <__malloc_lock+0x8>)
 800b4c6:	f7ff b910 	b.w	800a6ea <__retarget_lock_acquire_recursive>
 800b4ca:	bf00      	nop
 800b4cc:	200134d4 	.word	0x200134d4

0800b4d0 <__malloc_unlock>:
 800b4d0:	4801      	ldr	r0, [pc, #4]	; (800b4d8 <__malloc_unlock+0x8>)
 800b4d2:	f7ff b90b 	b.w	800a6ec <__retarget_lock_release_recursive>
 800b4d6:	bf00      	nop
 800b4d8:	200134d4 	.word	0x200134d4

0800b4dc <_read_r>:
 800b4dc:	b538      	push	{r3, r4, r5, lr}
 800b4de:	4d07      	ldr	r5, [pc, #28]	; (800b4fc <_read_r+0x20>)
 800b4e0:	4604      	mov	r4, r0
 800b4e2:	4608      	mov	r0, r1
 800b4e4:	4611      	mov	r1, r2
 800b4e6:	2200      	movs	r2, #0
 800b4e8:	602a      	str	r2, [r5, #0]
 800b4ea:	461a      	mov	r2, r3
 800b4ec:	f7f8 fc06 	bl	8003cfc <_read>
 800b4f0:	1c43      	adds	r3, r0, #1
 800b4f2:	d102      	bne.n	800b4fa <_read_r+0x1e>
 800b4f4:	682b      	ldr	r3, [r5, #0]
 800b4f6:	b103      	cbz	r3, 800b4fa <_read_r+0x1e>
 800b4f8:	6023      	str	r3, [r4, #0]
 800b4fa:	bd38      	pop	{r3, r4, r5, pc}
 800b4fc:	200134dc 	.word	0x200134dc

0800b500 <__ascii_wctomb>:
 800b500:	b149      	cbz	r1, 800b516 <__ascii_wctomb+0x16>
 800b502:	2aff      	cmp	r2, #255	; 0xff
 800b504:	bf85      	ittet	hi
 800b506:	238a      	movhi	r3, #138	; 0x8a
 800b508:	6003      	strhi	r3, [r0, #0]
 800b50a:	700a      	strbls	r2, [r1, #0]
 800b50c:	f04f 30ff 	movhi.w	r0, #4294967295	; 0xffffffff
 800b510:	bf98      	it	ls
 800b512:	2001      	movls	r0, #1
 800b514:	4770      	bx	lr
 800b516:	4608      	mov	r0, r1
 800b518:	4770      	bx	lr

0800b51a <abort>:
 800b51a:	b508      	push	{r3, lr}
 800b51c:	2006      	movs	r0, #6
 800b51e:	f000 f82b 	bl	800b578 <raise>
 800b522:	2001      	movs	r0, #1
 800b524:	f7f8 fbe4 	bl	8003cf0 <_exit>

0800b528 <_raise_r>:
 800b528:	291f      	cmp	r1, #31
 800b52a:	b538      	push	{r3, r4, r5, lr}
 800b52c:	4604      	mov	r4, r0
 800b52e:	460d      	mov	r5, r1
 800b530:	d904      	bls.n	800b53c <_raise_r+0x14>
 800b532:	2316      	movs	r3, #22
 800b534:	6003      	str	r3, [r0, #0]
 800b536:	f04f 30ff 	mov.w	r0, #4294967295	; 0xffffffff
 800b53a:	bd38      	pop	{r3, r4, r5, pc}
 800b53c:	6c42      	ldr	r2, [r0, #68]	; 0x44
 800b53e:	b112      	cbz	r2, 800b546 <_raise_r+0x1e>
 800b540:	f852 3021 	ldr.w	r3, [r2, r1, lsl #2]
 800b544:	b94b      	cbnz	r3, 800b55a <_raise_r+0x32>
 800b546:	4620      	mov	r0, r4
 800b548:	f000 f830 	bl	800b5ac <_getpid_r>
 800b54c:	462a      	mov	r2, r5
 800b54e:	4601      	mov	r1, r0
 800b550:	4620      	mov	r0, r4
 800b552:	e8bd 4038 	ldmia.w	sp!, {r3, r4, r5, lr}
 800b556:	f000 b817 	b.w	800b588 <_kill_r>
 800b55a:	2b01      	cmp	r3, #1
 800b55c:	d00a      	beq.n	800b574 <_raise_r+0x4c>
 800b55e:	1c59      	adds	r1, r3, #1
 800b560:	d103      	bne.n	800b56a <_raise_r+0x42>
 800b562:	2316      	movs	r3, #22
 800b564:	6003      	str	r3, [r0, #0]
 800b566:	2001      	movs	r0, #1
 800b568:	e7e7      	b.n	800b53a <_raise_r+0x12>
 800b56a:	2400      	movs	r4, #0
 800b56c:	f842 4025 	str.w	r4, [r2, r5, lsl #2]
 800b570:	4628      	mov	r0, r5
 800b572:	4798      	blx	r3
 800b574:	2000      	movs	r0, #0
 800b576:	e7e0      	b.n	800b53a <_raise_r+0x12>

0800b578 <raise>:
 800b578:	4b02      	ldr	r3, [pc, #8]	; (800b584 <raise+0xc>)
 800b57a:	4601      	mov	r1, r0
 800b57c:	6818      	ldr	r0, [r3, #0]
 800b57e:	f7ff bfd3 	b.w	800b528 <_raise_r>
 800b582:	bf00      	nop
 800b584:	20000148 	.word	0x20000148

0800b588 <_kill_r>:
 800b588:	b538      	push	{r3, r4, r5, lr}
 800b58a:	4d07      	ldr	r5, [pc, #28]	; (800b5a8 <_kill_r+0x20>)
 800b58c:	2300      	movs	r3, #0
 800b58e:	4604      	mov	r4, r0
 800b590:	4608      	mov	r0, r1
 800b592:	4611      	mov	r1, r2
 800b594:	602b      	str	r3, [r5, #0]
 800b596:	f7f8 fba3 	bl	8003ce0 <_kill>
 800b59a:	1c43      	adds	r3, r0, #1
 800b59c:	d102      	bne.n	800b5a4 <_kill_r+0x1c>
 800b59e:	682b      	ldr	r3, [r5, #0]
 800b5a0:	b103      	cbz	r3, 800b5a4 <_kill_r+0x1c>
 800b5a2:	6023      	str	r3, [r4, #0]
 800b5a4:	bd38      	pop	{r3, r4, r5, pc}
 800b5a6:	bf00      	nop
 800b5a8:	200134dc 	.word	0x200134dc

0800b5ac <_getpid_r>:
 800b5ac:	f7f8 bb96 	b.w	8003cdc <_getpid>

0800b5b0 <cosf>:
 800b5b0:	ee10 3a10 	vmov	r3, s0
 800b5b4:	b507      	push	{r0, r1, r2, lr}
 800b5b6:	4a1c      	ldr	r2, [pc, #112]	; (800b628 <cosf+0x78>)
 800b5b8:	f023 4300 	bic.w	r3, r3, #2147483648	; 0x80000000
 800b5bc:	4293      	cmp	r3, r2
 800b5be:	dc04      	bgt.n	800b5ca <cosf+0x1a>
 800b5c0:	eddf 0a1a 	vldr	s1, [pc, #104]	; 800b62c <cosf+0x7c>
 800b5c4:	f000 fd82 	bl	800c0cc <__kernel_cosf>
 800b5c8:	e004      	b.n	800b5d4 <cosf+0x24>
 800b5ca:	f1b3 4fff 	cmp.w	r3, #2139095040	; 0x7f800000
 800b5ce:	db04      	blt.n	800b5da <cosf+0x2a>
 800b5d0:	ee30 0a40 	vsub.f32	s0, s0, s0
 800b5d4:	b003      	add	sp, #12
 800b5d6:	f85d fb04 	ldr.w	pc, [sp], #4
 800b5da:	4668      	mov	r0, sp
 800b5dc:	f000 fc36 	bl	800be4c <__ieee754_rem_pio2f>
 800b5e0:	f000 0003 	and.w	r0, r0, #3
 800b5e4:	2801      	cmp	r0, #1
 800b5e6:	d007      	beq.n	800b5f8 <cosf+0x48>
 800b5e8:	2802      	cmp	r0, #2
 800b5ea:	d00e      	beq.n	800b60a <cosf+0x5a>
 800b5ec:	b9a0      	cbnz	r0, 800b618 <cosf+0x68>
 800b5ee:	eddd 0a01 	vldr	s1, [sp, #4]
 800b5f2:	ed9d 0a00 	vldr	s0, [sp]
 800b5f6:	e7e5      	b.n	800b5c4 <cosf+0x14>
 800b5f8:	eddd 0a01 	vldr	s1, [sp, #4]
 800b5fc:	ed9d 0a00 	vldr	s0, [sp]
 800b600:	f001 f84e 	bl	800c6a0 <__kernel_sinf>
 800b604:	eeb1 0a40 	vneg.f32	s0, s0
 800b608:	e7e4      	b.n	800b5d4 <cosf+0x24>
 800b60a:	eddd 0a01 	vldr	s1, [sp, #4]
 800b60e:	ed9d 0a00 	vldr	s0, [sp]
 800b612:	f000 fd5b 	bl	800c0cc <__kernel_cosf>
 800b616:	e7f5      	b.n	800b604 <cosf+0x54>
 800b618:	eddd 0a01 	vldr	s1, [sp, #4]
 800b61c:	ed9d 0a00 	vldr	s0, [sp]
 800b620:	2001      	movs	r0, #1
 800b622:	f001 f83d 	bl	800c6a0 <__kernel_sinf>
 800b626:	e7d5      	b.n	800b5d4 <cosf+0x24>
 800b628:	3f490fd8 	.word	0x3f490fd8
 800b62c:	00000000 	.word	0x00000000

0800b630 <floorf>:
 800b630:	ee10 3a10 	vmov	r3, s0
 800b634:	f3c3 52c7 	ubfx	r2, r3, #23, #8
 800b638:	3a7f      	subs	r2, #127	; 0x7f
 800b63a:	2a16      	cmp	r2, #22
 800b63c:	f023 4100 	bic.w	r1, r3, #2147483648	; 0x80000000
 800b640:	dc2a      	bgt.n	800b698 <floorf+0x68>
 800b642:	2a00      	cmp	r2, #0
 800b644:	da11      	bge.n	800b66a <floorf+0x3a>
 800b646:	eddf 7a18 	vldr	s15, [pc, #96]	; 800b6a8 <floorf+0x78>
 800b64a:	ee30 0a27 	vadd.f32	s0, s0, s15
 800b64e:	eeb5 0ac0 	vcmpe.f32	s0, #0.0
 800b652:	eef1 fa10 	vmrs	APSR_nzcv, fpscr
 800b656:	dd05      	ble.n	800b664 <floorf+0x34>
 800b658:	2b00      	cmp	r3, #0
 800b65a:	da23      	bge.n	800b6a4 <floorf+0x74>
 800b65c:	4a13      	ldr	r2, [pc, #76]	; (800b6ac <floorf+0x7c>)
 800b65e:	2900      	cmp	r1, #0
 800b660:	bf18      	it	ne
 800b662:	4613      	movne	r3, r2
 800b664:	ee00 3a10 	vmov	s0, r3
 800b668:	4770      	bx	lr
 800b66a:	4911      	ldr	r1, [pc, #68]	; (800b6b0 <floorf+0x80>)
 800b66c:	4111      	asrs	r1, r2
 800b66e:	420b      	tst	r3, r1
 800b670:	d0fa      	beq.n	800b668 <floorf+0x38>
 800b672:	eddf 7a0d 	vldr	s15, [pc, #52]	; 800b6a8 <floorf+0x78>
 800b676:	ee30 0a27 	vadd.f32	s0, s0, s15
 800b67a:	eeb5 0ac0 	vcmpe.f32	s0, #0.0
 800b67e:	eef1 fa10 	vmrs	APSR_nzcv, fpscr
 800b682:	ddef      	ble.n	800b664 <floorf+0x34>
 800b684:	2b00      	cmp	r3, #0
 800b686:	bfbe      	ittt	lt
 800b688:	f44f 0000 	movlt.w	r0, #8388608	; 0x800000
 800b68c:	fa40 f202 	asrlt.w	r2, r0, r2
 800b690:	189b      	addlt	r3, r3, r2
 800b692:	ea23 0301 	bic.w	r3, r3, r1
 800b696:	e7e5      	b.n	800b664 <floorf+0x34>
 800b698:	f1b1 4fff 	cmp.w	r1, #2139095040	; 0x7f800000
 800b69c:	d3e4      	bcc.n	800b668 <floorf+0x38>
 800b69e:	ee30 0a00 	vadd.f32	s0, s0, s0
 800b6a2:	4770      	bx	lr
 800b6a4:	2300      	movs	r3, #0
 800b6a6:	e7dd      	b.n	800b664 <floorf+0x34>
 800b6a8:	7149f2ca 	.word	0x7149f2ca
 800b6ac:	bf800000 	.word	0xbf800000
 800b6b0:	007fffff 	.word	0x007fffff

0800b6b4 <sinf>:
 800b6b4:	ee10 3a10 	vmov	r3, s0
 800b6b8:	b507      	push	{r0, r1, r2, lr}
 800b6ba:	4a1d      	ldr	r2, [pc, #116]	; (800b730 <sinf+0x7c>)
 800b6bc:	f023 4300 	bic.w	r3, r3, #2147483648	; 0x80000000
 800b6c0:	4293      	cmp	r3, r2
 800b6c2:	dc05      	bgt.n	800b6d0 <sinf+0x1c>
 800b6c4:	eddf 0a1b 	vldr	s1, [pc, #108]	; 800b734 <sinf+0x80>
 800b6c8:	2000      	movs	r0, #0
 800b6ca:	f000 ffe9 	bl	800c6a0 <__kernel_sinf>
 800b6ce:	e004      	b.n	800b6da <sinf+0x26>
 800b6d0:	f1b3 4fff 	cmp.w	r3, #2139095040	; 0x7f800000
 800b6d4:	db04      	blt.n	800b6e0 <sinf+0x2c>
 800b6d6:	ee30 0a40 	vsub.f32	s0, s0, s0
 800b6da:	b003      	add	sp, #12
 800b6dc:	f85d fb04 	ldr.w	pc, [sp], #4
 800b6e0:	4668      	mov	r0, sp
 800b6e2:	f000 fbb3 	bl	800be4c <__ieee754_rem_pio2f>
 800b6e6:	f000 0003 	and.w	r0, r0, #3
 800b6ea:	2801      	cmp	r0, #1
 800b6ec:	d008      	beq.n	800b700 <sinf+0x4c>
 800b6ee:	2802      	cmp	r0, #2
 800b6f0:	d00d      	beq.n	800b70e <sinf+0x5a>
 800b6f2:	b9b0      	cbnz	r0, 800b722 <sinf+0x6e>
 800b6f4:	eddd 0a01 	vldr	s1, [sp, #4]
 800b6f8:	ed9d 0a00 	vldr	s0, [sp]
 800b6fc:	2001      	movs	r0, #1
 800b6fe:	e7e4      	b.n	800b6ca <sinf+0x16>
 800b700:	eddd 0a01 	vldr	s1, [sp, #4]
 800b704:	ed9d 0a00 	vldr	s0, [sp]
 800b708:	f000 fce0 	bl	800c0cc <__kernel_cosf>
 800b70c:	e7e5      	b.n	800b6da <sinf+0x26>
 800b70e:	eddd 0a01 	vldr	s1, [sp, #4]
 800b712:	ed9d 0a00 	vldr	s0, [sp]
 800b716:	2001      	movs	r0, #1
 800b718:	f000 ffc2 	bl	800c6a0 <__kernel_sinf>
 800b71c:	eeb1 0a40 	vneg.f32	s0, s0
 800b720:	e7db      	b.n	800b6da <sinf+0x26>
 800b722:	eddd 0a01 	vldr	s1, [sp, #4]
 800b726:	ed9d 0a00 	vldr	s0, [sp]
 800b72a:	f000 fccf 	bl	800c0cc <__kernel_cosf>
 800b72e:	e7f5      	b.n	800b71c <sinf+0x68>
 800b730:	3f490fd8 	.word	0x3f490fd8
 800b734:	00000000 	.word	0x00000000

0800b738 <acosf>:
 800b738:	b508      	push	{r3, lr}
 800b73a:	ed2d 8b02 	vpush	{d8}
 800b73e:	eeb0 8a40 	vmov.f32	s16, s0
 800b742:	f000 f8c5 	bl	800b8d0 <__ieee754_acosf>
 800b746:	4b13      	ldr	r3, [pc, #76]	; (800b794 <acosf+0x5c>)
 800b748:	f993 3000 	ldrsb.w	r3, [r3]
 800b74c:	3301      	adds	r3, #1
 800b74e:	eef0 8a40 	vmov.f32	s17, s0
 800b752:	d01a      	beq.n	800b78a <acosf+0x52>
 800b754:	eeb4 8a48 	vcmp.f32	s16, s16
 800b758:	eef1 fa10 	vmrs	APSR_nzcv, fpscr
 800b75c:	d615      	bvs.n	800b78a <acosf+0x52>
 800b75e:	eeb0 0a48 	vmov.f32	s0, s16
 800b762:	f000 ffe5 	bl	800c730 <fabsf>
 800b766:	eef7 7a00 	vmov.f32	s15, #112	; 0x3f800000  1.0
 800b76a:	eeb4 0ae7 	vcmpe.f32	s0, s15
 800b76e:	eef1 fa10 	vmrs	APSR_nzcv, fpscr
 800b772:	dd0a      	ble.n	800b78a <acosf+0x52>
 800b774:	f7fd f98c 	bl	8008a90 <__errno>
 800b778:	ecbd 8b02 	vpop	{d8}
 800b77c:	2321      	movs	r3, #33	; 0x21
 800b77e:	6003      	str	r3, [r0, #0]
 800b780:	e8bd 4008 	ldmia.w	sp!, {r3, lr}
 800b784:	4804      	ldr	r0, [pc, #16]	; (800b798 <acosf+0x60>)
 800b786:	f000 bfe7 	b.w	800c758 <nanf>
 800b78a:	eeb0 0a68 	vmov.f32	s0, s17
 800b78e:	ecbd 8b02 	vpop	{d8}
 800b792:	bd08      	pop	{r3, pc}
 800b794:	20000318 	.word	0x20000318
 800b798:	08045150 	.word	0x08045150

0800b79c <expf>:
 800b79c:	b508      	push	{r3, lr}
 800b79e:	ed2d 8b02 	vpush	{d8}
 800b7a2:	eef0 8a40 	vmov.f32	s17, s0
 800b7a6:	f000 f98d 	bl	800bac4 <__ieee754_expf>
 800b7aa:	4b16      	ldr	r3, [pc, #88]	; (800b804 <expf+0x68>)
 800b7ac:	f993 3000 	ldrsb.w	r3, [r3]
 800b7b0:	3301      	adds	r3, #1
 800b7b2:	eeb0 8a40 	vmov.f32	s16, s0
 800b7b6:	d011      	beq.n	800b7dc <expf+0x40>
 800b7b8:	eeb0 0a68 	vmov.f32	s0, s17
 800b7bc:	f000 ffbf 	bl	800c73e <finitef>
 800b7c0:	b160      	cbz	r0, 800b7dc <expf+0x40>
 800b7c2:	eddf 7a11 	vldr	s15, [pc, #68]	; 800b808 <expf+0x6c>
 800b7c6:	eef4 8ae7 	vcmpe.f32	s17, s15
 800b7ca:	eef1 fa10 	vmrs	APSR_nzcv, fpscr
 800b7ce:	dd0a      	ble.n	800b7e6 <expf+0x4a>
 800b7d0:	f7fd f95e 	bl	8008a90 <__errno>
 800b7d4:	ed9f 8a0d 	vldr	s16, [pc, #52]	; 800b80c <expf+0x70>
 800b7d8:	2322      	movs	r3, #34	; 0x22
 800b7da:	6003      	str	r3, [r0, #0]
 800b7dc:	eeb0 0a48 	vmov.f32	s0, s16
 800b7e0:	ecbd 8b02 	vpop	{d8}
 800b7e4:	bd08      	pop	{r3, pc}
 800b7e6:	eddf 7a0a 	vldr	s15, [pc, #40]	; 800b810 <expf+0x74>
 800b7ea:	eef4 8ae7 	vcmpe.f32	s17, s15
 800b7ee:	eef1 fa10 	vmrs	APSR_nzcv, fpscr
 800b7f2:	d5f3      	bpl.n	800b7dc <expf+0x40>
 800b7f4:	f7fd f94c 	bl	8008a90 <__errno>
 800b7f8:	2322      	movs	r3, #34	; 0x22
 800b7fa:	ed9f 8a06 	vldr	s16, [pc, #24]	; 800b814 <expf+0x78>
 800b7fe:	6003      	str	r3, [r0, #0]
 800b800:	e7ec      	b.n	800b7dc <expf+0x40>
 800b802:	bf00      	nop
 800b804:	20000318 	.word	0x20000318
 800b808:	42b17180 	.word	0x42b17180
 800b80c:	7f800000 	.word	0x7f800000
 800b810:	c2cff1b5 	.word	0xc2cff1b5
 800b814:	00000000 	.word	0x00000000

0800b818 <logf>:
 800b818:	b508      	push	{r3, lr}
 800b81a:	ed2d 8b02 	vpush	{d8}
 800b81e:	eeb0 8a40 	vmov.f32	s16, s0
 800b822:	f000 fa23 	bl	800bc6c <__ieee754_logf>
 800b826:	4b14      	ldr	r3, [pc, #80]	; (800b878 <logf+0x60>)
 800b828:	f993 3000 	ldrsb.w	r3, [r3]
 800b82c:	3301      	adds	r3, #1
 800b82e:	d014      	beq.n	800b85a <logf+0x42>
 800b830:	eeb4 8a48 	vcmp.f32	s16, s16
 800b834:	eef1 fa10 	vmrs	APSR_nzcv, fpscr
 800b838:	d60f      	bvs.n	800b85a <logf+0x42>
 800b83a:	eeb5 8ac0 	vcmpe.f32	s16, #0.0
 800b83e:	eef1 fa10 	vmrs	APSR_nzcv, fpscr
 800b842:	dc0a      	bgt.n	800b85a <logf+0x42>
 800b844:	eeb5 8a40 	vcmp.f32	s16, #0.0
 800b848:	eef1 fa10 	vmrs	APSR_nzcv, fpscr
 800b84c:	d108      	bne.n	800b860 <logf+0x48>
 800b84e:	f7fd f91f 	bl	8008a90 <__errno>
 800b852:	2322      	movs	r3, #34	; 0x22
 800b854:	ed9f 0a09 	vldr	s0, [pc, #36]	; 800b87c <logf+0x64>
 800b858:	6003      	str	r3, [r0, #0]
 800b85a:	ecbd 8b02 	vpop	{d8}
 800b85e:	bd08      	pop	{r3, pc}
 800b860:	f7fd f916 	bl	8008a90 <__errno>
 800b864:	ecbd 8b02 	vpop	{d8}
 800b868:	2321      	movs	r3, #33	; 0x21
 800b86a:	6003      	str	r3, [r0, #0]
 800b86c:	e8bd 4008 	ldmia.w	sp!, {r3, lr}
 800b870:	4803      	ldr	r0, [pc, #12]	; (800b880 <logf+0x68>)
 800b872:	f000 bf71 	b.w	800c758 <nanf>
 800b876:	bf00      	nop
 800b878:	20000318 	.word	0x20000318
 800b87c:	ff800000 	.word	0xff800000
 800b880:	08045150 	.word	0x08045150

0800b884 <sqrtf>:
 800b884:	b508      	push	{r3, lr}
 800b886:	ed2d 8b02 	vpush	{d8}
 800b88a:	eeb0 8a40 	vmov.f32	s16, s0
 800b88e:	f000 fc19 	bl	800c0c4 <__ieee754_sqrtf>
 800b892:	4b0d      	ldr	r3, [pc, #52]	; (800b8c8 <sqrtf+0x44>)
 800b894:	f993 3000 	ldrsb.w	r3, [r3]
 800b898:	3301      	adds	r3, #1
 800b89a:	d011      	beq.n	800b8c0 <sqrtf+0x3c>
 800b89c:	eeb4 8a48 	vcmp.f32	s16, s16
 800b8a0:	eef1 fa10 	vmrs	APSR_nzcv, fpscr
 800b8a4:	d60c      	bvs.n	800b8c0 <sqrtf+0x3c>
 800b8a6:	eddf 8a09 	vldr	s17, [pc, #36]	; 800b8cc <sqrtf+0x48>
 800b8aa:	eeb4 8ae8 	vcmpe.f32	s16, s17
 800b8ae:	eef1 fa10 	vmrs	APSR_nzcv, fpscr
 800b8b2:	d505      	bpl.n	800b8c0 <sqrtf+0x3c>
 800b8b4:	f7fd f8ec 	bl	8008a90 <__errno>
 800b8b8:	ee88 0aa8 	vdiv.f32	s0, s17, s17
 800b8bc:	2321      	movs	r3, #33	; 0x21
 800b8be:	6003      	str	r3, [r0, #0]
 800b8c0:	ecbd 8b02 	vpop	{d8}
 800b8c4:	bd08      	pop	{r3, pc}
 800b8c6:	bf00      	nop
 800b8c8:	20000318 	.word	0x20000318
 800b8cc:	00000000 	.word	0x00000000

0800b8d0 <__ieee754_acosf>:
 800b8d0:	b508      	push	{r3, lr}
 800b8d2:	ee10 3a10 	vmov	r3, s0
 800b8d6:	f023 4200 	bic.w	r2, r3, #2147483648	; 0x80000000
 800b8da:	f1b2 5f7e 	cmp.w	r2, #1065353216	; 0x3f800000
 800b8de:	ed2d 8b0c 	vpush	{d8-d13}
 800b8e2:	d10a      	bne.n	800b8fa <__ieee754_acosf+0x2a>
 800b8e4:	ed9f 0a66 	vldr	s0, [pc, #408]	; 800ba80 <__ieee754_acosf+0x1b0>
 800b8e8:	ed9f 8a66 	vldr	s16, [pc, #408]	; 800ba84 <__ieee754_acosf+0x1b4>
 800b8ec:	2b00      	cmp	r3, #0
 800b8ee:	bfd8      	it	le
 800b8f0:	eeb0 0a48 	vmovle.f32	s0, s16
 800b8f4:	ecbd 8b0c 	vpop	{d8-d13}
 800b8f8:	bd08      	pop	{r3, pc}
 800b8fa:	dd04      	ble.n	800b906 <__ieee754_acosf+0x36>
 800b8fc:	ee30 8a40 	vsub.f32	s16, s0, s0
 800b900:	ee88 0a08 	vdiv.f32	s0, s16, s16
 800b904:	e7f6      	b.n	800b8f4 <__ieee754_acosf+0x24>
 800b906:	f1b2 5f7c 	cmp.w	r2, #1056964608	; 0x3f000000
 800b90a:	da3e      	bge.n	800b98a <__ieee754_acosf+0xba>
 800b90c:	f1b2 5f0c 	cmp.w	r2, #587202560	; 0x23000000
 800b910:	f340 80b3 	ble.w	800ba7a <__ieee754_acosf+0x1aa>
 800b914:	ee60 7a00 	vmul.f32	s15, s0, s0
 800b918:	eddf 6a5b 	vldr	s13, [pc, #364]	; 800ba88 <__ieee754_acosf+0x1b8>
 800b91c:	ed9f 7a5b 	vldr	s14, [pc, #364]	; 800ba8c <__ieee754_acosf+0x1bc>
 800b920:	ed9f 6a5b 	vldr	s12, [pc, #364]	; 800ba90 <__ieee754_acosf+0x1c0>
 800b924:	ed9f 8a5b 	vldr	s16, [pc, #364]	; 800ba94 <__ieee754_acosf+0x1c4>
 800b928:	eea7 7aa6 	vfma.f32	s14, s15, s13
 800b92c:	eddf 6a5a 	vldr	s13, [pc, #360]	; 800ba98 <__ieee754_acosf+0x1c8>
 800b930:	eee7 6a27 	vfma.f32	s13, s14, s15
 800b934:	ed9f 7a59 	vldr	s14, [pc, #356]	; 800ba9c <__ieee754_acosf+0x1cc>
 800b938:	eea6 7aa7 	vfma.f32	s14, s13, s15
 800b93c:	eddf 6a58 	vldr	s13, [pc, #352]	; 800baa0 <__ieee754_acosf+0x1d0>
 800b940:	eee7 6a27 	vfma.f32	s13, s14, s15
 800b944:	ed9f 7a57 	vldr	s14, [pc, #348]	; 800baa4 <__ieee754_acosf+0x1d4>
 800b948:	eea6 7aa7 	vfma.f32	s14, s13, s15
 800b94c:	eddf 6a56 	vldr	s13, [pc, #344]	; 800baa8 <__ieee754_acosf+0x1d8>
 800b950:	eea7 6aa6 	vfma.f32	s12, s15, s13
 800b954:	eddf 6a55 	vldr	s13, [pc, #340]	; 800baac <__ieee754_acosf+0x1dc>
 800b958:	eee6 6a27 	vfma.f32	s13, s12, s15
 800b95c:	ed9f 6a54 	vldr	s12, [pc, #336]	; 800bab0 <__ieee754_acosf+0x1e0>
 800b960:	eea6 6aa7 	vfma.f32	s12, s13, s15
 800b964:	eef7 6a00 	vmov.f32	s13, #112	; 0x3f800000  1.0
 800b968:	eee6 6a27 	vfma.f32	s13, s12, s15
 800b96c:	ee27 7a27 	vmul.f32	s14, s14, s15
 800b970:	eef0 7a66 	vmov.f32	s15, s13
 800b974:	eec7 6a27 	vdiv.f32	s13, s14, s15
 800b978:	eddf 7a4e 	vldr	s15, [pc, #312]	; 800bab4 <__ieee754_acosf+0x1e4>
 800b97c:	eea0 8a66 	vfms.f32	s16, s0, s13
 800b980:	ee30 0a48 	vsub.f32	s0, s0, s16
 800b984:	ee37 0ac0 	vsub.f32	s0, s15, s0
 800b988:	e7b4      	b.n	800b8f4 <__ieee754_acosf+0x24>
 800b98a:	2b00      	cmp	r3, #0
 800b98c:	eddf da3e 	vldr	s27, [pc, #248]	; 800ba88 <__ieee754_acosf+0x1b8>
 800b990:	eddf ca3e 	vldr	s25, [pc, #248]	; 800ba8c <__ieee754_acosf+0x1bc>
 800b994:	ed9f ca40 	vldr	s24, [pc, #256]	; 800ba98 <__ieee754_acosf+0x1c8>
 800b998:	eddf ba40 	vldr	s23, [pc, #256]	; 800ba9c <__ieee754_acosf+0x1cc>
 800b99c:	ed9f ba40 	vldr	s22, [pc, #256]	; 800baa0 <__ieee754_acosf+0x1d0>
 800b9a0:	eddf 8a40 	vldr	s17, [pc, #256]	; 800baa4 <__ieee754_acosf+0x1d4>
 800b9a4:	ed9f da40 	vldr	s26, [pc, #256]	; 800baa8 <__ieee754_acosf+0x1d8>
 800b9a8:	eddf aa39 	vldr	s21, [pc, #228]	; 800ba90 <__ieee754_acosf+0x1c0>
 800b9ac:	ed9f aa3f 	vldr	s20, [pc, #252]	; 800baac <__ieee754_acosf+0x1dc>
 800b9b0:	eddf 9a3f 	vldr	s19, [pc, #252]	; 800bab0 <__ieee754_acosf+0x1e0>
 800b9b4:	eeb7 9a00 	vmov.f32	s18, #112	; 0x3f800000  1.0
 800b9b8:	eef6 7a00 	vmov.f32	s15, #96	; 0x3f000000  0.5
 800b9bc:	da28      	bge.n	800ba10 <__ieee754_acosf+0x140>
 800b9be:	ee30 0a09 	vadd.f32	s0, s0, s18
 800b9c2:	ee20 0a27 	vmul.f32	s0, s0, s15
 800b9c6:	eee0 ca2d 	vfma.f32	s25, s0, s27
 800b9ca:	eee0 aa0d 	vfma.f32	s21, s0, s26
 800b9ce:	eeac ca80 	vfma.f32	s24, s25, s0
 800b9d2:	eeaa aa80 	vfma.f32	s20, s21, s0
 800b9d6:	eeec ba00 	vfma.f32	s23, s24, s0
 800b9da:	eeea 9a00 	vfma.f32	s19, s20, s0
 800b9de:	eeab ba80 	vfma.f32	s22, s23, s0
 800b9e2:	eea9 9a80 	vfma.f32	s18, s19, s0
 800b9e6:	eeeb 8a00 	vfma.f32	s17, s22, s0
 800b9ea:	ee68 8a80 	vmul.f32	s17, s17, s0
 800b9ee:	f000 fb69 	bl	800c0c4 <__ieee754_sqrtf>
 800b9f2:	ee88 7a89 	vdiv.f32	s14, s17, s18
 800b9f6:	eddf 7a30 	vldr	s15, [pc, #192]	; 800bab8 <__ieee754_acosf+0x1e8>
 800b9fa:	eee0 7a07 	vfma.f32	s15, s0, s14
 800b9fe:	eeb0 7a00 	vmov.f32	s14, #0	; 0x40000000  2.0
 800ba02:	ee77 7a80 	vadd.f32	s15, s15, s0
 800ba06:	ed9f 0a2d 	vldr	s0, [pc, #180]	; 800babc <__ieee754_acosf+0x1ec>
 800ba0a:	eea7 0ac7 	vfms.f32	s0, s15, s14
 800ba0e:	e771      	b.n	800b8f4 <__ieee754_acosf+0x24>
 800ba10:	ee39 8a40 	vsub.f32	s16, s18, s0
 800ba14:	ee28 8a27 	vmul.f32	s16, s16, s15
 800ba18:	eeb0 0a48 	vmov.f32	s0, s16
 800ba1c:	f000 fb52 	bl	800c0c4 <__ieee754_sqrtf>
 800ba20:	eee8 ca2d 	vfma.f32	s25, s16, s27
 800ba24:	eee8 aa0d 	vfma.f32	s21, s16, s26
 800ba28:	eeac ca88 	vfma.f32	s24, s25, s16
 800ba2c:	eeaa aa88 	vfma.f32	s20, s21, s16
 800ba30:	eeec ba08 	vfma.f32	s23, s24, s16
 800ba34:	ee10 3a10 	vmov	r3, s0
 800ba38:	eeab ba88 	vfma.f32	s22, s23, s16
 800ba3c:	f423 637f 	bic.w	r3, r3, #4080	; 0xff0
 800ba40:	f023 030f 	bic.w	r3, r3, #15
 800ba44:	eeea 9a08 	vfma.f32	s19, s20, s16
 800ba48:	ee07 3a90 	vmov	s15, r3
 800ba4c:	eeeb 8a08 	vfma.f32	s17, s22, s16
 800ba50:	eeb0 6a48 	vmov.f32	s12, s16
 800ba54:	eea7 6ae7 	vfms.f32	s12, s15, s15
 800ba58:	eea9 9a88 	vfma.f32	s18, s19, s16
 800ba5c:	ee70 6a27 	vadd.f32	s13, s0, s15
 800ba60:	ee68 8a88 	vmul.f32	s17, s17, s16
 800ba64:	ee86 7a26 	vdiv.f32	s14, s12, s13
 800ba68:	eec8 6a89 	vdiv.f32	s13, s17, s18
 800ba6c:	eea0 7a26 	vfma.f32	s14, s0, s13
 800ba70:	ee37 0a87 	vadd.f32	s0, s15, s14
 800ba74:	ee30 0a00 	vadd.f32	s0, s0, s0
 800ba78:	e73c      	b.n	800b8f4 <__ieee754_acosf+0x24>
 800ba7a:	ed9f 0a11 	vldr	s0, [pc, #68]	; 800bac0 <__ieee754_acosf+0x1f0>
 800ba7e:	e739      	b.n	800b8f4 <__ieee754_acosf+0x24>
 800ba80:	00000000 	.word	0x00000000
 800ba84:	40490fdb 	.word	0x40490fdb
 800ba88:	3811ef08 	.word	0x3811ef08
 800ba8c:	3a4f7f04 	.word	0x3a4f7f04
 800ba90:	bf303361 	.word	0xbf303361
 800ba94:	33a22168 	.word	0x33a22168
 800ba98:	bd241146 	.word	0xbd241146
 800ba9c:	3e4e0aa8 	.word	0x3e4e0aa8
 800baa0:	bea6b090 	.word	0xbea6b090
 800baa4:	3e2aaaab 	.word	0x3e2aaaab
 800baa8:	3d9dc62e 	.word	0x3d9dc62e
 800baac:	4001572d 	.word	0x4001572d
 800bab0:	c019d139 	.word	0xc019d139
 800bab4:	3fc90fda 	.word	0x3fc90fda
 800bab8:	b3a22168 	.word	0xb3a22168
 800babc:	40490fda 	.word	0x40490fda
 800bac0:	3fc90fdb 	.word	0x3fc90fdb

0800bac4 <__ieee754_expf>:
 800bac4:	ee10 2a10 	vmov	r2, s0
 800bac8:	f022 4100 	bic.w	r1, r2, #2147483648	; 0x80000000
 800bacc:	f1b1 4fff 	cmp.w	r1, #2139095040	; 0x7f800000
 800bad0:	d902      	bls.n	800bad8 <__ieee754_expf+0x14>
 800bad2:	ee30 0a00 	vadd.f32	s0, s0, s0
 800bad6:	4770      	bx	lr
 800bad8:	ea4f 73d2 	mov.w	r3, r2, lsr #31
 800badc:	d106      	bne.n	800baec <__ieee754_expf+0x28>
 800bade:	eddf 7a51 	vldr	s15, [pc, #324]	; 800bc24 <__ieee754_expf+0x160>
 800bae2:	2b00      	cmp	r3, #0
 800bae4:	bf18      	it	ne
 800bae6:	eeb0 0a67 	vmovne.f32	s0, s15
 800baea:	4770      	bx	lr
 800baec:	484e      	ldr	r0, [pc, #312]	; (800bc28 <__ieee754_expf+0x164>)
 800baee:	4282      	cmp	r2, r0
 800baf0:	dd04      	ble.n	800bafc <__ieee754_expf+0x38>
 800baf2:	ed9f 0a4e 	vldr	s0, [pc, #312]	; 800bc2c <__ieee754_expf+0x168>
 800baf6:	ee20 0a00 	vmul.f32	s0, s0, s0
 800bafa:	4770      	bx	lr
 800bafc:	2a00      	cmp	r2, #0
 800bafe:	da03      	bge.n	800bb08 <__ieee754_expf+0x44>
 800bb00:	4a4b      	ldr	r2, [pc, #300]	; (800bc30 <__ieee754_expf+0x16c>)
 800bb02:	4291      	cmp	r1, r2
 800bb04:	f200 808a 	bhi.w	800bc1c <__ieee754_expf+0x158>
 800bb08:	4a4a      	ldr	r2, [pc, #296]	; (800bc34 <__ieee754_expf+0x170>)
 800bb0a:	4291      	cmp	r1, r2
 800bb0c:	eeb7 6a00 	vmov.f32	s12, #112	; 0x3f800000  1.0
 800bb10:	d954      	bls.n	800bbbc <__ieee754_expf+0xf8>
 800bb12:	4a49      	ldr	r2, [pc, #292]	; (800bc38 <__ieee754_expf+0x174>)
 800bb14:	4291      	cmp	r1, r2
 800bb16:	ea4f 0283 	mov.w	r2, r3, lsl #2
 800bb1a:	d836      	bhi.n	800bb8a <__ieee754_expf+0xc6>
 800bb1c:	4947      	ldr	r1, [pc, #284]	; (800bc3c <__ieee754_expf+0x178>)
 800bb1e:	4411      	add	r1, r2
 800bb20:	ed91 7a00 	vldr	s14, [r1]
 800bb24:	4946      	ldr	r1, [pc, #280]	; (800bc40 <__ieee754_expf+0x17c>)
 800bb26:	440a      	add	r2, r1
 800bb28:	edd2 7a00 	vldr	s15, [r2]
 800bb2c:	ee30 7a47 	vsub.f32	s14, s0, s14
 800bb30:	f1c3 0201 	rsb	r2, r3, #1
 800bb34:	1ad2      	subs	r2, r2, r3
 800bb36:	ee37 0a67 	vsub.f32	s0, s14, s15
 800bb3a:	ee60 6a00 	vmul.f32	s13, s0, s0
 800bb3e:	eddf 5a41 	vldr	s11, [pc, #260]	; 800bc44 <__ieee754_expf+0x180>
 800bb42:	ed9f 5a41 	vldr	s10, [pc, #260]	; 800bc48 <__ieee754_expf+0x184>
 800bb46:	eea6 5aa5 	vfma.f32	s10, s13, s11
 800bb4a:	eddf 5a40 	vldr	s11, [pc, #256]	; 800bc4c <__ieee754_expf+0x188>
 800bb4e:	eee5 5a26 	vfma.f32	s11, s10, s13
 800bb52:	ed9f 5a3f 	vldr	s10, [pc, #252]	; 800bc50 <__ieee754_expf+0x18c>
 800bb56:	eea5 5aa6 	vfma.f32	s10, s11, s13
 800bb5a:	eddf 5a3e 	vldr	s11, [pc, #248]	; 800bc54 <__ieee754_expf+0x190>
 800bb5e:	eee5 5a26 	vfma.f32	s11, s10, s13
 800bb62:	eeb0 5a40 	vmov.f32	s10, s0
 800bb66:	eea5 5ae6 	vfms.f32	s10, s11, s13
 800bb6a:	eef0 5a00 	vmov.f32	s11, #0	; 0x40000000  2.0
 800bb6e:	eef0 6a45 	vmov.f32	s13, s10
 800bb72:	ee20 5a05 	vmul.f32	s10, s0, s10
 800bb76:	bb92      	cbnz	r2, 800bbde <__ieee754_expf+0x11a>
 800bb78:	ee76 6ae5 	vsub.f32	s13, s13, s11
 800bb7c:	eec5 7a26 	vdiv.f32	s15, s10, s13
 800bb80:	ee37 0ac0 	vsub.f32	s0, s15, s0
 800bb84:	ee36 0a40 	vsub.f32	s0, s12, s0
 800bb88:	4770      	bx	lr
 800bb8a:	4b33      	ldr	r3, [pc, #204]	; (800bc58 <__ieee754_expf+0x194>)
 800bb8c:	ed9f 7a33 	vldr	s14, [pc, #204]	; 800bc5c <__ieee754_expf+0x198>
 800bb90:	4413      	add	r3, r2
 800bb92:	edd3 7a00 	vldr	s15, [r3]
 800bb96:	eee0 7a07 	vfma.f32	s15, s0, s14
 800bb9a:	ed9f 7a31 	vldr	s14, [pc, #196]	; 800bc60 <__ieee754_expf+0x19c>
 800bb9e:	eefd 7ae7 	vcvt.s32.f32	s15, s15
 800bba2:	ee17 2a90 	vmov	r2, s15
 800bba6:	eef8 7ae7 	vcvt.f32.s32	s15, s15
 800bbaa:	eea7 0ac7 	vfms.f32	s0, s15, s14
 800bbae:	eeb0 7a40 	vmov.f32	s14, s0
 800bbb2:	ed9f 0a2c 	vldr	s0, [pc, #176]	; 800bc64 <__ieee754_expf+0x1a0>
 800bbb6:	ee67 7a80 	vmul.f32	s15, s15, s0
 800bbba:	e7bc      	b.n	800bb36 <__ieee754_expf+0x72>
 800bbbc:	f1b1 5f46 	cmp.w	r1, #830472192	; 0x31800000
 800bbc0:	d20b      	bcs.n	800bbda <__ieee754_expf+0x116>
 800bbc2:	eddf 6a1a 	vldr	s13, [pc, #104]	; 800bc2c <__ieee754_expf+0x168>
 800bbc6:	ee70 6a26 	vadd.f32	s13, s0, s13
 800bbca:	eef4 6ac6 	vcmpe.f32	s13, s12
 800bbce:	eef1 fa10 	vmrs	APSR_nzcv, fpscr
 800bbd2:	dd02      	ble.n	800bbda <__ieee754_expf+0x116>
 800bbd4:	ee30 0a06 	vadd.f32	s0, s0, s12
 800bbd8:	4770      	bx	lr
 800bbda:	2200      	movs	r2, #0
 800bbdc:	e7ad      	b.n	800bb3a <__ieee754_expf+0x76>
 800bbde:	ee75 6ae6 	vsub.f32	s13, s11, s13
 800bbe2:	f112 0f7d 	cmn.w	r2, #125	; 0x7d
 800bbe6:	ee85 0a26 	vdiv.f32	s0, s10, s13
 800bbea:	bfb8      	it	lt
 800bbec:	3264      	addlt	r2, #100	; 0x64
 800bbee:	ee77 7ac0 	vsub.f32	s15, s15, s0
 800bbf2:	ee37 0ac7 	vsub.f32	s0, s15, s14
 800bbf6:	ee76 7a40 	vsub.f32	s15, s12, s0
 800bbfa:	ee17 3a90 	vmov	r3, s15
 800bbfe:	bfab      	itete	ge
 800bc00:	eb03 53c2 	addge.w	r3, r3, r2, lsl #23
 800bc04:	eb03 53c2 	addlt.w	r3, r3, r2, lsl #23
 800bc08:	ee00 3a10 	vmovge	s0, r3
 800bc0c:	eddf 7a16 	vldrlt	s15, [pc, #88]	; 800bc68 <__ieee754_expf+0x1a4>
 800bc10:	bfbc      	itt	lt
 800bc12:	ee00 3a10 	vmovlt	s0, r3
 800bc16:	ee20 0a27 	vmullt.f32	s0, s0, s15
 800bc1a:	4770      	bx	lr
 800bc1c:	ed9f 0a01 	vldr	s0, [pc, #4]	; 800bc24 <__ieee754_expf+0x160>
 800bc20:	4770      	bx	lr
 800bc22:	bf00      	nop
 800bc24:	00000000 	.word	0x00000000
 800bc28:	42b17217 	.word	0x42b17217
 800bc2c:	7149f2ca 	.word	0x7149f2ca
 800bc30:	42cff1b5 	.word	0x42cff1b5
 800bc34:	3eb17218 	.word	0x3eb17218
 800bc38:	3f851591 	.word	0x3f851591
 800bc3c:	08045264 	.word	0x08045264
 800bc40:	0804526c 	.word	0x0804526c
 800bc44:	3331bb4c 	.word	0x3331bb4c
 800bc48:	b5ddea0e 	.word	0xb5ddea0e
 800bc4c:	388ab355 	.word	0x388ab355
 800bc50:	bb360b61 	.word	0xbb360b61
 800bc54:	3e2aaaab 	.word	0x3e2aaaab
 800bc58:	0804525c 	.word	0x0804525c
 800bc5c:	3fb8aa3b 	.word	0x3fb8aa3b
 800bc60:	3f317180 	.word	0x3f317180
 800bc64:	3717f7d1 	.word	0x3717f7d1
 800bc68:	0d800000 	.word	0x0d800000

0800bc6c <__ieee754_logf>:
 800bc6c:	ee10 3a10 	vmov	r3, s0
 800bc70:	f033 4200 	bics.w	r2, r3, #2147483648	; 0x80000000
 800bc74:	d106      	bne.n	800bc84 <__ieee754_logf+0x18>
 800bc76:	ed9f 7a65 	vldr	s14, [pc, #404]	; 800be0c <__ieee754_logf+0x1a0>
 800bc7a:	eddf 7a65 	vldr	s15, [pc, #404]	; 800be10 <__ieee754_logf+0x1a4>
 800bc7e:	ee87 0a27 	vdiv.f32	s0, s14, s15
 800bc82:	4770      	bx	lr
 800bc84:	2b00      	cmp	r3, #0
 800bc86:	da02      	bge.n	800bc8e <__ieee754_logf+0x22>
 800bc88:	ee30 7a40 	vsub.f32	s14, s0, s0
 800bc8c:	e7f5      	b.n	800bc7a <__ieee754_logf+0xe>
 800bc8e:	f1b3 4fff 	cmp.w	r3, #2139095040	; 0x7f800000
 800bc92:	db02      	blt.n	800bc9a <__ieee754_logf+0x2e>
 800bc94:	ee30 0a00 	vadd.f32	s0, s0, s0
 800bc98:	4770      	bx	lr
 800bc9a:	f5b3 0f00 	cmp.w	r3, #8388608	; 0x800000
 800bc9e:	bfb8      	it	lt
 800bca0:	eddf 7a5c 	vldrlt	s15, [pc, #368]	; 800be14 <__ieee754_logf+0x1a8>
 800bca4:	485c      	ldr	r0, [pc, #368]	; (800be18 <__ieee754_logf+0x1ac>)
 800bca6:	bfbe      	ittt	lt
 800bca8:	ee60 7a27 	vmullt.f32	s15, s0, s15
 800bcac:	f06f 0118 	mvnlt.w	r1, #24
 800bcb0:	ee17 3a90 	vmovlt	r3, s15
 800bcb4:	ea4f 52e3 	mov.w	r2, r3, asr #23
 800bcb8:	f3c3 0316 	ubfx	r3, r3, #0, #23
 800bcbc:	4418      	add	r0, r3
 800bcbe:	bfa8      	it	ge
 800bcc0:	2100      	movge	r1, #0
 800bcc2:	3a7f      	subs	r2, #127	; 0x7f
 800bcc4:	440a      	add	r2, r1
 800bcc6:	f400 0100 	and.w	r1, r0, #8388608	; 0x800000
 800bcca:	f081 517e 	eor.w	r1, r1, #1065353216	; 0x3f800000
 800bcce:	4319      	orrs	r1, r3
 800bcd0:	ee00 1a10 	vmov	s0, r1
 800bcd4:	4951      	ldr	r1, [pc, #324]	; (800be1c <__ieee754_logf+0x1b0>)
 800bcd6:	eb02 52d0 	add.w	r2, r2, r0, lsr #23
 800bcda:	f103 000f 	add.w	r0, r3, #15
 800bcde:	eef7 7a00 	vmov.f32	s15, #112	; 0x3f800000  1.0
 800bce2:	4001      	ands	r1, r0
 800bce4:	ee30 0a67 	vsub.f32	s0, s0, s15
 800bce8:	bb89      	cbnz	r1, 800bd4e <__ieee754_logf+0xe2>
 800bcea:	eeb5 0a40 	vcmp.f32	s0, #0.0
 800bcee:	eef1 fa10 	vmrs	APSR_nzcv, fpscr
 800bcf2:	d10f      	bne.n	800bd14 <__ieee754_logf+0xa8>
 800bcf4:	2a00      	cmp	r2, #0
 800bcf6:	f000 8085 	beq.w	800be04 <__ieee754_logf+0x198>
 800bcfa:	ee07 2a90 	vmov	s15, r2
 800bcfe:	ed9f 0a48 	vldr	s0, [pc, #288]	; 800be20 <__ieee754_logf+0x1b4>
 800bd02:	ed9f 7a48 	vldr	s14, [pc, #288]	; 800be24 <__ieee754_logf+0x1b8>
 800bd06:	eef8 7ae7 	vcvt.f32.s32	s15, s15
 800bd0a:	ee27 0a80 	vmul.f32	s0, s15, s0
 800bd0e:	eea7 0a87 	vfma.f32	s0, s15, s14
 800bd12:	4770      	bx	lr
 800bd14:	eddf 6a44 	vldr	s13, [pc, #272]	; 800be28 <__ieee754_logf+0x1bc>
 800bd18:	eef6 7a00 	vmov.f32	s15, #96	; 0x3f000000  0.5
 800bd1c:	eee0 7a66 	vfms.f32	s15, s0, s13
 800bd20:	ee20 7a00 	vmul.f32	s14, s0, s0
 800bd24:	ee27 7a27 	vmul.f32	s14, s14, s15
 800bd28:	b912      	cbnz	r2, 800bd30 <__ieee754_logf+0xc4>
 800bd2a:	ee30 0a47 	vsub.f32	s0, s0, s14
 800bd2e:	4770      	bx	lr
 800bd30:	ee07 2a90 	vmov	s15, r2
 800bd34:	eddf 6a3a 	vldr	s13, [pc, #232]	; 800be20 <__ieee754_logf+0x1b4>
 800bd38:	eef8 7ae7 	vcvt.f32.s32	s15, s15
 800bd3c:	eea7 7ae6 	vfms.f32	s14, s15, s13
 800bd40:	ee37 0a40 	vsub.f32	s0, s14, s0
 800bd44:	ed9f 7a37 	vldr	s14, [pc, #220]	; 800be24 <__ieee754_logf+0x1b8>
 800bd48:	ee97 0a87 	vfnms.f32	s0, s15, s14
 800bd4c:	4770      	bx	lr
 800bd4e:	eef0 7a00 	vmov.f32	s15, #0	; 0x40000000  2.0
 800bd52:	ee70 7a27 	vadd.f32	s15, s0, s15
 800bd56:	eddf 5a35 	vldr	s11, [pc, #212]	; 800be2c <__ieee754_logf+0x1c0>
 800bd5a:	eddf 4a35 	vldr	s9, [pc, #212]	; 800be30 <__ieee754_logf+0x1c4>
 800bd5e:	4935      	ldr	r1, [pc, #212]	; (800be34 <__ieee754_logf+0x1c8>)
 800bd60:	ee80 6a27 	vdiv.f32	s12, s0, s15
 800bd64:	4419      	add	r1, r3
 800bd66:	f5c3 1357 	rsb	r3, r3, #3522560	; 0x35c000
 800bd6a:	f503 7322 	add.w	r3, r3, #648	; 0x288
 800bd6e:	430b      	orrs	r3, r1
 800bd70:	2b00      	cmp	r3, #0
 800bd72:	ee07 2a90 	vmov	s15, r2
 800bd76:	ee26 5a06 	vmul.f32	s10, s12, s12
 800bd7a:	eef8 6ae7 	vcvt.f32.s32	s13, s15
 800bd7e:	ee25 7a05 	vmul.f32	s14, s10, s10
 800bd82:	eddf 7a2d 	vldr	s15, [pc, #180]	; 800be38 <__ieee754_logf+0x1cc>
 800bd86:	eee7 7a25 	vfma.f32	s15, s14, s11
 800bd8a:	eddf 5a2c 	vldr	s11, [pc, #176]	; 800be3c <__ieee754_logf+0x1d0>
 800bd8e:	eee7 5a87 	vfma.f32	s11, s15, s14
 800bd92:	eddf 7a2b 	vldr	s15, [pc, #172]	; 800be40 <__ieee754_logf+0x1d4>
 800bd96:	eee7 7a24 	vfma.f32	s15, s14, s9
 800bd9a:	eddf 4a2a 	vldr	s9, [pc, #168]	; 800be44 <__ieee754_logf+0x1d8>
 800bd9e:	eee7 4a87 	vfma.f32	s9, s15, s14
 800bda2:	eddf 7a29 	vldr	s15, [pc, #164]	; 800be48 <__ieee754_logf+0x1dc>
 800bda6:	eee4 7a87 	vfma.f32	s15, s9, s14
 800bdaa:	ee67 7a85 	vmul.f32	s15, s15, s10
 800bdae:	eee5 7a87 	vfma.f32	s15, s11, s14
 800bdb2:	dd1c      	ble.n	800bdee <__ieee754_logf+0x182>
 800bdb4:	eeb6 7a00 	vmov.f32	s14, #96	; 0x3f000000  0.5
 800bdb8:	ee20 7a07 	vmul.f32	s14, s0, s14
 800bdbc:	ee27 7a00 	vmul.f32	s14, s14, s0
 800bdc0:	ee77 7a87 	vadd.f32	s15, s15, s14
 800bdc4:	ee67 7a86 	vmul.f32	s15, s15, s12
 800bdc8:	b922      	cbnz	r2, 800bdd4 <__ieee754_logf+0x168>
 800bdca:	ee77 7a67 	vsub.f32	s15, s14, s15
 800bdce:	ee30 0a67 	vsub.f32	s0, s0, s15
 800bdd2:	4770      	bx	lr
 800bdd4:	ed9f 6a12 	vldr	s12, [pc, #72]	; 800be20 <__ieee754_logf+0x1b4>
 800bdd8:	eee6 7a86 	vfma.f32	s15, s13, s12
 800bddc:	ee77 7a67 	vsub.f32	s15, s14, s15
 800bde0:	ee37 0ac0 	vsub.f32	s0, s15, s0
 800bde4:	eddf 7a0f 	vldr	s15, [pc, #60]	; 800be24 <__ieee754_logf+0x1b8>
 800bde8:	ee96 0aa7 	vfnms.f32	s0, s13, s15
 800bdec:	4770      	bx	lr
 800bdee:	ee70 7a67 	vsub.f32	s15, s0, s15
 800bdf2:	ee67 7a86 	vmul.f32	s15, s15, s12
 800bdf6:	2a00      	cmp	r2, #0
 800bdf8:	d0e9      	beq.n	800bdce <__ieee754_logf+0x162>
 800bdfa:	ed9f 7a09 	vldr	s14, [pc, #36]	; 800be20 <__ieee754_logf+0x1b4>
 800bdfe:	eee6 7ac7 	vfms.f32	s15, s13, s14
 800be02:	e7ed      	b.n	800bde0 <__ieee754_logf+0x174>
 800be04:	ed9f 0a02 	vldr	s0, [pc, #8]	; 800be10 <__ieee754_logf+0x1a4>
 800be08:	4770      	bx	lr
 800be0a:	bf00      	nop
 800be0c:	cc000000 	.word	0xcc000000
 800be10:	00000000 	.word	0x00000000
 800be14:	4c000000 	.word	0x4c000000
 800be18:	004afb20 	.word	0x004afb20
 800be1c:	007ffff0 	.word	0x007ffff0
 800be20:	3717f7d1 	.word	0x3717f7d1
 800be24:	3f317180 	.word	0x3f317180
 800be28:	3eaaaaab 	.word	0x3eaaaaab
 800be2c:	3e1cd04f 	.word	0x3e1cd04f
 800be30:	3e178897 	.word	0x3e178897
 800be34:	ffcf5c30 	.word	0xffcf5c30
 800be38:	3e638e29 	.word	0x3e638e29
 800be3c:	3ecccccd 	.word	0x3ecccccd
 800be40:	3e3a3325 	.word	0x3e3a3325
 800be44:	3e924925 	.word	0x3e924925
 800be48:	3f2aaaab 	.word	0x3f2aaaab

0800be4c <__ieee754_rem_pio2f>:
 800be4c:	b5f0      	push	{r4, r5, r6, r7, lr}
 800be4e:	ee10 6a10 	vmov	r6, s0
 800be52:	4b8e      	ldr	r3, [pc, #568]	; (800c08c <__ieee754_rem_pio2f+0x240>)
 800be54:	f026 4500 	bic.w	r5, r6, #2147483648	; 0x80000000
 800be58:	429d      	cmp	r5, r3
 800be5a:	b087      	sub	sp, #28
 800be5c:	eef0 7a40 	vmov.f32	s15, s0
 800be60:	4604      	mov	r4, r0
 800be62:	dc05      	bgt.n	800be70 <__ieee754_rem_pio2f+0x24>
 800be64:	2300      	movs	r3, #0
 800be66:	ed80 0a00 	vstr	s0, [r0]
 800be6a:	6043      	str	r3, [r0, #4]
 800be6c:	2000      	movs	r0, #0
 800be6e:	e01a      	b.n	800bea6 <__ieee754_rem_pio2f+0x5a>
 800be70:	4b87      	ldr	r3, [pc, #540]	; (800c090 <__ieee754_rem_pio2f+0x244>)
 800be72:	429d      	cmp	r5, r3
 800be74:	dc46      	bgt.n	800bf04 <__ieee754_rem_pio2f+0xb8>
 800be76:	2e00      	cmp	r6, #0
 800be78:	ed9f 0a86 	vldr	s0, [pc, #536]	; 800c094 <__ieee754_rem_pio2f+0x248>
 800be7c:	4b86      	ldr	r3, [pc, #536]	; (800c098 <__ieee754_rem_pio2f+0x24c>)
 800be7e:	f025 050f 	bic.w	r5, r5, #15
 800be82:	dd1f      	ble.n	800bec4 <__ieee754_rem_pio2f+0x78>
 800be84:	429d      	cmp	r5, r3
 800be86:	ee77 7ac0 	vsub.f32	s15, s15, s0
 800be8a:	d00e      	beq.n	800beaa <__ieee754_rem_pio2f+0x5e>
 800be8c:	ed9f 7a83 	vldr	s14, [pc, #524]	; 800c09c <__ieee754_rem_pio2f+0x250>
 800be90:	ee37 0ac7 	vsub.f32	s0, s15, s14
 800be94:	ee77 7ac0 	vsub.f32	s15, s15, s0
 800be98:	ed80 0a00 	vstr	s0, [r0]
 800be9c:	ee77 7ac7 	vsub.f32	s15, s15, s14
 800bea0:	2001      	movs	r0, #1
 800bea2:	edc4 7a01 	vstr	s15, [r4, #4]
 800bea6:	b007      	add	sp, #28
 800bea8:	bdf0      	pop	{r4, r5, r6, r7, pc}
 800beaa:	ed9f 0a7d 	vldr	s0, [pc, #500]	; 800c0a0 <__ieee754_rem_pio2f+0x254>
 800beae:	ed9f 7a7d 	vldr	s14, [pc, #500]	; 800c0a4 <__ieee754_rem_pio2f+0x258>
 800beb2:	ee77 7ac0 	vsub.f32	s15, s15, s0
 800beb6:	ee77 6ac7 	vsub.f32	s13, s15, s14
 800beba:	ee77 7ae6 	vsub.f32	s15, s15, s13
 800bebe:	edc0 6a00 	vstr	s13, [r0]
 800bec2:	e7eb      	b.n	800be9c <__ieee754_rem_pio2f+0x50>
 800bec4:	429d      	cmp	r5, r3
 800bec6:	ee77 7a80 	vadd.f32	s15, s15, s0
 800beca:	d00e      	beq.n	800beea <__ieee754_rem_pio2f+0x9e>
 800becc:	ed9f 7a73 	vldr	s14, [pc, #460]	; 800c09c <__ieee754_rem_pio2f+0x250>
 800bed0:	ee37 0a87 	vadd.f32	s0, s15, s14
 800bed4:	ee77 7ac0 	vsub.f32	s15, s15, s0
 800bed8:	ed80 0a00 	vstr	s0, [r0]
 800bedc:	ee77 7a87 	vadd.f32	s15, s15, s14
 800bee0:	f04f 30ff 	mov.w	r0, #4294967295	; 0xffffffff
 800bee4:	edc4 7a01 	vstr	s15, [r4, #4]
 800bee8:	e7dd      	b.n	800bea6 <__ieee754_rem_pio2f+0x5a>
 800beea:	ed9f 0a6d 	vldr	s0, [pc, #436]	; 800c0a0 <__ieee754_rem_pio2f+0x254>
 800beee:	ed9f 7a6d 	vldr	s14, [pc, #436]	; 800c0a4 <__ieee754_rem_pio2f+0x258>
 800bef2:	ee77 7a80 	vadd.f32	s15, s15, s0
 800bef6:	ee77 6a87 	vadd.f32	s13, s15, s14
 800befa:	ee77 7ae6 	vsub.f32	s15, s15, s13
 800befe:	edc0 6a00 	vstr	s13, [r0]
 800bf02:	e7eb      	b.n	800bedc <__ieee754_rem_pio2f+0x90>
 800bf04:	4b68      	ldr	r3, [pc, #416]	; (800c0a8 <__ieee754_rem_pio2f+0x25c>)
 800bf06:	429d      	cmp	r5, r3
 800bf08:	dc72      	bgt.n	800bff0 <__ieee754_rem_pio2f+0x1a4>
 800bf0a:	f000 fc11 	bl	800c730 <fabsf>
 800bf0e:	ed9f 7a67 	vldr	s14, [pc, #412]	; 800c0ac <__ieee754_rem_pio2f+0x260>
 800bf12:	eef6 7a00 	vmov.f32	s15, #96	; 0x3f000000  0.5
 800bf16:	eee0 7a07 	vfma.f32	s15, s0, s14
 800bf1a:	eefd 7ae7 	vcvt.s32.f32	s15, s15
 800bf1e:	eeb8 7ae7 	vcvt.f32.s32	s14, s15
 800bf22:	ee17 0a90 	vmov	r0, s15
 800bf26:	eddf 7a5b 	vldr	s15, [pc, #364]	; 800c094 <__ieee754_rem_pio2f+0x248>
 800bf2a:	eea7 0a67 	vfms.f32	s0, s14, s15
 800bf2e:	281f      	cmp	r0, #31
 800bf30:	eddf 7a5a 	vldr	s15, [pc, #360]	; 800c09c <__ieee754_rem_pio2f+0x250>
 800bf34:	ee67 7a27 	vmul.f32	s15, s14, s15
 800bf38:	eeb1 6a47 	vneg.f32	s12, s14
 800bf3c:	ee70 6a67 	vsub.f32	s13, s0, s15
 800bf40:	ee16 2a90 	vmov	r2, s13
 800bf44:	dc1c      	bgt.n	800bf80 <__ieee754_rem_pio2f+0x134>
 800bf46:	495a      	ldr	r1, [pc, #360]	; (800c0b0 <__ieee754_rem_pio2f+0x264>)
 800bf48:	1e47      	subs	r7, r0, #1
 800bf4a:	f025 03ff 	bic.w	r3, r5, #255	; 0xff
 800bf4e:	f851 1027 	ldr.w	r1, [r1, r7, lsl #2]
 800bf52:	428b      	cmp	r3, r1
 800bf54:	d014      	beq.n	800bf80 <__ieee754_rem_pio2f+0x134>
 800bf56:	6022      	str	r2, [r4, #0]
 800bf58:	ed94 7a00 	vldr	s14, [r4]
 800bf5c:	ee30 0a47 	vsub.f32	s0, s0, s14
 800bf60:	2e00      	cmp	r6, #0
 800bf62:	ee30 0a67 	vsub.f32	s0, s0, s15
 800bf66:	ed84 0a01 	vstr	s0, [r4, #4]
 800bf6a:	da9c      	bge.n	800bea6 <__ieee754_rem_pio2f+0x5a>
 800bf6c:	eeb1 7a47 	vneg.f32	s14, s14
 800bf70:	eeb1 0a40 	vneg.f32	s0, s0
 800bf74:	ed84 7a00 	vstr	s14, [r4]
 800bf78:	ed84 0a01 	vstr	s0, [r4, #4]
 800bf7c:	4240      	negs	r0, r0
 800bf7e:	e792      	b.n	800bea6 <__ieee754_rem_pio2f+0x5a>
 800bf80:	f3c2 51c7 	ubfx	r1, r2, #23, #8
 800bf84:	15eb      	asrs	r3, r5, #23
 800bf86:	ebc1 55d5 	rsb	r5, r1, r5, lsr #23
 800bf8a:	2d08      	cmp	r5, #8
 800bf8c:	dde3      	ble.n	800bf56 <__ieee754_rem_pio2f+0x10a>
 800bf8e:	eddf 7a44 	vldr	s15, [pc, #272]	; 800c0a0 <__ieee754_rem_pio2f+0x254>
 800bf92:	eef0 6a40 	vmov.f32	s13, s0
 800bf96:	eee6 6a27 	vfma.f32	s13, s12, s15
 800bf9a:	ee30 0a66 	vsub.f32	s0, s0, s13
 800bf9e:	eea6 0a27 	vfma.f32	s0, s12, s15
 800bfa2:	eddf 7a40 	vldr	s15, [pc, #256]	; 800c0a4 <__ieee754_rem_pio2f+0x258>
 800bfa6:	ee97 0a27 	vfnms.f32	s0, s14, s15
 800bfaa:	ee76 5ac0 	vsub.f32	s11, s13, s0
 800bfae:	eef0 7a40 	vmov.f32	s15, s0
 800bfb2:	ee15 2a90 	vmov	r2, s11
 800bfb6:	f3c2 51c7 	ubfx	r1, r2, #23, #8
 800bfba:	1a5b      	subs	r3, r3, r1
 800bfbc:	2b19      	cmp	r3, #25
 800bfbe:	dc04      	bgt.n	800bfca <__ieee754_rem_pio2f+0x17e>
 800bfc0:	edc4 5a00 	vstr	s11, [r4]
 800bfc4:	eeb0 0a66 	vmov.f32	s0, s13
 800bfc8:	e7c6      	b.n	800bf58 <__ieee754_rem_pio2f+0x10c>
 800bfca:	eddf 5a3a 	vldr	s11, [pc, #232]	; 800c0b4 <__ieee754_rem_pio2f+0x268>
 800bfce:	eeb0 0a66 	vmov.f32	s0, s13
 800bfd2:	eea6 0a25 	vfma.f32	s0, s12, s11
 800bfd6:	ee76 7ac0 	vsub.f32	s15, s13, s0
 800bfda:	eddf 6a37 	vldr	s13, [pc, #220]	; 800c0b8 <__ieee754_rem_pio2f+0x26c>
 800bfde:	eee6 7a25 	vfma.f32	s15, s12, s11
 800bfe2:	eed7 7a26 	vfnms.f32	s15, s14, s13
 800bfe6:	ee30 7a67 	vsub.f32	s14, s0, s15
 800bfea:	ed84 7a00 	vstr	s14, [r4]
 800bfee:	e7b3      	b.n	800bf58 <__ieee754_rem_pio2f+0x10c>
 800bff0:	f1b5 4fff 	cmp.w	r5, #2139095040	; 0x7f800000
 800bff4:	db06      	blt.n	800c004 <__ieee754_rem_pio2f+0x1b8>
 800bff6:	ee70 7a40 	vsub.f32	s15, s0, s0
 800bffa:	edc0 7a01 	vstr	s15, [r0, #4]
 800bffe:	edc0 7a00 	vstr	s15, [r0]
 800c002:	e733      	b.n	800be6c <__ieee754_rem_pio2f+0x20>
 800c004:	15ea      	asrs	r2, r5, #23
 800c006:	3a86      	subs	r2, #134	; 0x86
 800c008:	eba5 53c2 	sub.w	r3, r5, r2, lsl #23
 800c00c:	ee07 3a90 	vmov	s15, r3
 800c010:	eebd 7ae7 	vcvt.s32.f32	s14, s15
 800c014:	eddf 6a29 	vldr	s13, [pc, #164]	; 800c0bc <__ieee754_rem_pio2f+0x270>
 800c018:	eeb8 7ac7 	vcvt.f32.s32	s14, s14
 800c01c:	ee77 7ac7 	vsub.f32	s15, s15, s14
 800c020:	ed8d 7a03 	vstr	s14, [sp, #12]
 800c024:	ee67 7aa6 	vmul.f32	s15, s15, s13
 800c028:	eebd 7ae7 	vcvt.s32.f32	s14, s15
 800c02c:	eeb8 7ac7 	vcvt.f32.s32	s14, s14
 800c030:	ee77 7ac7 	vsub.f32	s15, s15, s14
 800c034:	ed8d 7a04 	vstr	s14, [sp, #16]
 800c038:	ee67 7aa6 	vmul.f32	s15, s15, s13
 800c03c:	eef5 7a40 	vcmp.f32	s15, #0.0
 800c040:	eef1 fa10 	vmrs	APSR_nzcv, fpscr
 800c044:	edcd 7a05 	vstr	s15, [sp, #20]
 800c048:	d11e      	bne.n	800c088 <__ieee754_rem_pio2f+0x23c>
 800c04a:	eeb5 7a40 	vcmp.f32	s14, #0.0
 800c04e:	eef1 fa10 	vmrs	APSR_nzcv, fpscr
 800c052:	bf14      	ite	ne
 800c054:	2302      	movne	r3, #2
 800c056:	2301      	moveq	r3, #1
 800c058:	4919      	ldr	r1, [pc, #100]	; (800c0c0 <__ieee754_rem_pio2f+0x274>)
 800c05a:	9101      	str	r1, [sp, #4]
 800c05c:	2102      	movs	r1, #2
 800c05e:	9100      	str	r1, [sp, #0]
 800c060:	a803      	add	r0, sp, #12
 800c062:	4621      	mov	r1, r4
 800c064:	f000 f892 	bl	800c18c <__kernel_rem_pio2f>
 800c068:	2e00      	cmp	r6, #0
 800c06a:	f6bf af1c 	bge.w	800bea6 <__ieee754_rem_pio2f+0x5a>
 800c06e:	edd4 7a00 	vldr	s15, [r4]
 800c072:	eef1 7a67 	vneg.f32	s15, s15
 800c076:	edc4 7a00 	vstr	s15, [r4]
 800c07a:	edd4 7a01 	vldr	s15, [r4, #4]
 800c07e:	eef1 7a67 	vneg.f32	s15, s15
 800c082:	edc4 7a01 	vstr	s15, [r4, #4]
 800c086:	e779      	b.n	800bf7c <__ieee754_rem_pio2f+0x130>
 800c088:	2303      	movs	r3, #3
 800c08a:	e7e5      	b.n	800c058 <__ieee754_rem_pio2f+0x20c>
 800c08c:	3f490fd8 	.word	0x3f490fd8
 800c090:	4016cbe3 	.word	0x4016cbe3
 800c094:	3fc90f80 	.word	0x3fc90f80
 800c098:	3fc90fd0 	.word	0x3fc90fd0
 800c09c:	37354443 	.word	0x37354443
 800c0a0:	37354400 	.word	0x37354400
 800c0a4:	2e85a308 	.word	0x2e85a308
 800c0a8:	43490f80 	.word	0x43490f80
 800c0ac:	3f22f984 	.word	0x3f22f984
 800c0b0:	08045274 	.word	0x08045274
 800c0b4:	2e85a300 	.word	0x2e85a300
 800c0b8:	248d3132 	.word	0x248d3132
 800c0bc:	43800000 	.word	0x43800000
 800c0c0:	080452f4 	.word	0x080452f4

0800c0c4 <__ieee754_sqrtf>:
 800c0c4:	eeb1 0ac0 	vsqrt.f32	s0, s0
 800c0c8:	4770      	bx	lr
	...

0800c0cc <__kernel_cosf>:
 800c0cc:	ee10 3a10 	vmov	r3, s0
 800c0d0:	f023 4300 	bic.w	r3, r3, #2147483648	; 0x80000000
 800c0d4:	f1b3 5f48 	cmp.w	r3, #838860800	; 0x32000000
 800c0d8:	eeb7 6a00 	vmov.f32	s12, #112	; 0x3f800000  1.0
 800c0dc:	da05      	bge.n	800c0ea <__kernel_cosf+0x1e>
 800c0de:	eefd 7ac0 	vcvt.s32.f32	s15, s0
 800c0e2:	ee17 2a90 	vmov	r2, s15
 800c0e6:	2a00      	cmp	r2, #0
 800c0e8:	d03d      	beq.n	800c166 <__kernel_cosf+0x9a>
 800c0ea:	ee60 5a00 	vmul.f32	s11, s0, s0
 800c0ee:	eddf 7a1f 	vldr	s15, [pc, #124]	; 800c16c <__kernel_cosf+0xa0>
 800c0f2:	ed9f 7a1f 	vldr	s14, [pc, #124]	; 800c170 <__kernel_cosf+0xa4>
 800c0f6:	eddf 6a1f 	vldr	s13, [pc, #124]	; 800c174 <__kernel_cosf+0xa8>
 800c0fa:	4a1f      	ldr	r2, [pc, #124]	; (800c178 <__kernel_cosf+0xac>)
 800c0fc:	eea5 7aa7 	vfma.f32	s14, s11, s15
 800c100:	4293      	cmp	r3, r2
 800c102:	eddf 7a1e 	vldr	s15, [pc, #120]	; 800c17c <__kernel_cosf+0xb0>
 800c106:	eee7 7a25 	vfma.f32	s15, s14, s11
 800c10a:	ed9f 7a1d 	vldr	s14, [pc, #116]	; 800c180 <__kernel_cosf+0xb4>
 800c10e:	eea7 7aa5 	vfma.f32	s14, s15, s11
 800c112:	eddf 7a1c 	vldr	s15, [pc, #112]	; 800c184 <__kernel_cosf+0xb8>
 800c116:	eee7 7a25 	vfma.f32	s15, s14, s11
 800c11a:	eeb0 7a66 	vmov.f32	s14, s13
 800c11e:	eea7 7aa5 	vfma.f32	s14, s15, s11
 800c122:	eef6 6a00 	vmov.f32	s13, #96	; 0x3f000000  0.5
 800c126:	ee65 7aa6 	vmul.f32	s15, s11, s13
 800c12a:	ee67 6a25 	vmul.f32	s13, s14, s11
 800c12e:	ee20 7ac0 	vnmul.f32	s14, s1, s0
 800c132:	eea5 7aa6 	vfma.f32	s14, s11, s13
 800c136:	dc04      	bgt.n	800c142 <__kernel_cosf+0x76>
 800c138:	ee37 7ac7 	vsub.f32	s14, s15, s14
 800c13c:	ee36 0a47 	vsub.f32	s0, s12, s14
 800c140:	4770      	bx	lr
 800c142:	4a11      	ldr	r2, [pc, #68]	; (800c188 <__kernel_cosf+0xbc>)
 800c144:	4293      	cmp	r3, r2
 800c146:	bfda      	itte	le
 800c148:	f103 437f 	addle.w	r3, r3, #4278190080	; 0xff000000
 800c14c:	ee06 3a90 	vmovle	s13, r3
 800c150:	eef5 6a02 	vmovgt.f32	s13, #82	; 0x3e900000  0.2812500
 800c154:	ee77 7ae6 	vsub.f32	s15, s15, s13
 800c158:	ee36 0a66 	vsub.f32	s0, s12, s13
 800c15c:	ee77 7ac7 	vsub.f32	s15, s15, s14
 800c160:	ee30 0a67 	vsub.f32	s0, s0, s15
 800c164:	4770      	bx	lr
 800c166:	eeb0 0a46 	vmov.f32	s0, s12
 800c16a:	4770      	bx	lr
 800c16c:	ad47d74e 	.word	0xad47d74e
 800c170:	310f74f6 	.word	0x310f74f6
 800c174:	3d2aaaab 	.word	0x3d2aaaab
 800c178:	3e999999 	.word	0x3e999999
 800c17c:	b493f27c 	.word	0xb493f27c
 800c180:	37d00d01 	.word	0x37d00d01
 800c184:	bab60b61 	.word	0xbab60b61
 800c188:	3f480000 	.word	0x3f480000

0800c18c <__kernel_rem_pio2f>:
 800c18c:	e92d 4ff0 	stmdb	sp!, {r4, r5, r6, r7, r8, r9, sl, fp, lr}
 800c190:	ed2d 8b04 	vpush	{d8-d9}
 800c194:	b0d7      	sub	sp, #348	; 0x15c
 800c196:	4616      	mov	r6, r2
 800c198:	4698      	mov	r8, r3
 800c19a:	9a64      	ldr	r2, [sp, #400]	; 0x190
 800c19c:	4bbb      	ldr	r3, [pc, #748]	; (800c48c <__kernel_rem_pio2f+0x300>)
 800c19e:	9001      	str	r0, [sp, #4]
 800c1a0:	f853 7022 	ldr.w	r7, [r3, r2, lsl #2]
 800c1a4:	1d33      	adds	r3, r6, #4
 800c1a6:	460d      	mov	r5, r1
 800c1a8:	f108 39ff 	add.w	r9, r8, #4294967295	; 0xffffffff
 800c1ac:	db29      	blt.n	800c202 <__kernel_rem_pio2f+0x76>
 800c1ae:	1ef1      	subs	r1, r6, #3
 800c1b0:	bf48      	it	mi
 800c1b2:	1d31      	addmi	r1, r6, #4
 800c1b4:	10c9      	asrs	r1, r1, #3
 800c1b6:	1c4c      	adds	r4, r1, #1
 800c1b8:	00e3      	lsls	r3, r4, #3
 800c1ba:	9302      	str	r3, [sp, #8]
 800c1bc:	9b65      	ldr	r3, [sp, #404]	; 0x194
 800c1be:	ed9f 7ab7 	vldr	s14, [pc, #732]	; 800c49c <__kernel_rem_pio2f+0x310>
 800c1c2:	eba1 0009 	sub.w	r0, r1, r9
 800c1c6:	eb03 0e80 	add.w	lr, r3, r0, lsl #2
 800c1ca:	eba6 04c4 	sub.w	r4, r6, r4, lsl #3
 800c1ce:	eb07 0c09 	add.w	ip, r7, r9
 800c1d2:	f10d 0a68 	add.w	sl, sp, #104	; 0x68
 800c1d6:	2300      	movs	r3, #0
 800c1d8:	4563      	cmp	r3, ip
 800c1da:	dd14      	ble.n	800c206 <__kernel_rem_pio2f+0x7a>
 800c1dc:	ab1a      	add	r3, sp, #104	; 0x68
 800c1de:	eb03 0388 	add.w	r3, r3, r8, lsl #2
 800c1e2:	46cc      	mov	ip, r9
 800c1e4:	f50d 7a84 	add.w	sl, sp, #264	; 0x108
 800c1e8:	f1c8 0b01 	rsb	fp, r8, #1
 800c1ec:	eb0b 020c 	add.w	r2, fp, ip
 800c1f0:	4297      	cmp	r7, r2
 800c1f2:	db27      	blt.n	800c244 <__kernel_rem_pio2f+0xb8>
 800c1f4:	f8dd e004 	ldr.w	lr, [sp, #4]
 800c1f8:	eddf 7aa8 	vldr	s15, [pc, #672]	; 800c49c <__kernel_rem_pio2f+0x310>
 800c1fc:	4618      	mov	r0, r3
 800c1fe:	2200      	movs	r2, #0
 800c200:	e016      	b.n	800c230 <__kernel_rem_pio2f+0xa4>
 800c202:	2100      	movs	r1, #0
 800c204:	e7d7      	b.n	800c1b6 <__kernel_rem_pio2f+0x2a>
 800c206:	42d8      	cmn	r0, r3
 800c208:	bf5d      	ittte	pl
 800c20a:	f85e 2023 	ldrpl.w	r2, [lr, r3, lsl #2]
 800c20e:	ee07 2a90 	vmovpl	s15, r2
 800c212:	eef8 7ae7 	vcvtpl.f32.s32	s15, s15
 800c216:	eef0 7a47 	vmovmi.f32	s15, s14
 800c21a:	ecea 7a01 	vstmia	sl!, {s15}
 800c21e:	3301      	adds	r3, #1
 800c220:	e7da      	b.n	800c1d8 <__kernel_rem_pio2f+0x4c>
 800c222:	ecfe 6a01 	vldmia	lr!, {s13}
 800c226:	ed90 7a00 	vldr	s14, [r0]
 800c22a:	eee6 7a87 	vfma.f32	s15, s13, s14
 800c22e:	3201      	adds	r2, #1
 800c230:	454a      	cmp	r2, r9
 800c232:	f1a0 0004 	sub.w	r0, r0, #4
 800c236:	ddf4      	ble.n	800c222 <__kernel_rem_pio2f+0x96>
 800c238:	ecea 7a01 	vstmia	sl!, {s15}
 800c23c:	3304      	adds	r3, #4
 800c23e:	f10c 0c01 	add.w	ip, ip, #1
 800c242:	e7d3      	b.n	800c1ec <__kernel_rem_pio2f+0x60>
 800c244:	ab06      	add	r3, sp, #24
 800c246:	eb03 0387 	add.w	r3, r3, r7, lsl #2
 800c24a:	9304      	str	r3, [sp, #16]
 800c24c:	9b65      	ldr	r3, [sp, #404]	; 0x194
 800c24e:	eddf 8a92 	vldr	s17, [pc, #584]	; 800c498 <__kernel_rem_pio2f+0x30c>
 800c252:	ed9f 9a90 	vldr	s18, [pc, #576]	; 800c494 <__kernel_rem_pio2f+0x308>
 800c256:	eb03 0381 	add.w	r3, r3, r1, lsl #2
 800c25a:	9303      	str	r3, [sp, #12]
 800c25c:	46ba      	mov	sl, r7
 800c25e:	ab56      	add	r3, sp, #344	; 0x158
 800c260:	eb03 038a 	add.w	r3, r3, sl, lsl #2
 800c264:	ed13 0a14 	vldr	s0, [r3, #-80]	; 0xffffffb0
 800c268:	ab06      	add	r3, sp, #24
 800c26a:	4618      	mov	r0, r3
 800c26c:	4652      	mov	r2, sl
 800c26e:	2a00      	cmp	r2, #0
 800c270:	dc51      	bgt.n	800c316 <__kernel_rem_pio2f+0x18a>
 800c272:	4620      	mov	r0, r4
 800c274:	9305      	str	r3, [sp, #20]
 800c276:	f000 fa75 	bl	800c764 <scalbnf>
 800c27a:	eeb0 8a40 	vmov.f32	s16, s0
 800c27e:	eeb4 0a00 	vmov.f32	s0, #64	; 0x3e000000  0.125
 800c282:	ee28 0a00 	vmul.f32	s0, s16, s0
 800c286:	f7ff f9d3 	bl	800b630 <floorf>
 800c28a:	eef2 7a00 	vmov.f32	s15, #32	; 0x41000000  8.0
 800c28e:	eea0 8a67 	vfms.f32	s16, s0, s15
 800c292:	2c00      	cmp	r4, #0
 800c294:	9b05      	ldr	r3, [sp, #20]
 800c296:	eefd 7ac8 	vcvt.s32.f32	s15, s16
 800c29a:	eeb8 0ae7 	vcvt.f32.s32	s0, s15
 800c29e:	edcd 7a00 	vstr	s15, [sp]
 800c2a2:	ee38 8a40 	vsub.f32	s16, s16, s0
 800c2a6:	dd4b      	ble.n	800c340 <__kernel_rem_pio2f+0x1b4>
 800c2a8:	f10a 3cff 	add.w	ip, sl, #4294967295	; 0xffffffff
 800c2ac:	aa06      	add	r2, sp, #24
 800c2ae:	f1c4 0e08 	rsb	lr, r4, #8
 800c2b2:	f852 202c 	ldr.w	r2, [r2, ip, lsl #2]
 800c2b6:	ee17 1a90 	vmov	r1, s15
 800c2ba:	fa42 f00e 	asr.w	r0, r2, lr
 800c2be:	4401      	add	r1, r0
 800c2c0:	9100      	str	r1, [sp, #0]
 800c2c2:	fa00 f00e 	lsl.w	r0, r0, lr
 800c2c6:	a906      	add	r1, sp, #24
 800c2c8:	1a12      	subs	r2, r2, r0
 800c2ca:	f841 202c 	str.w	r2, [r1, ip, lsl #2]
 800c2ce:	f1c4 0007 	rsb	r0, r4, #7
 800c2d2:	fa42 fb00 	asr.w	fp, r2, r0
 800c2d6:	f1bb 0f00 	cmp.w	fp, #0
 800c2da:	dd43      	ble.n	800c364 <__kernel_rem_pio2f+0x1d8>
 800c2dc:	9a00      	ldr	r2, [sp, #0]
 800c2de:	f04f 0e00 	mov.w	lr, #0
 800c2e2:	3201      	adds	r2, #1
 800c2e4:	9200      	str	r2, [sp, #0]
 800c2e6:	4670      	mov	r0, lr
 800c2e8:	45f2      	cmp	sl, lr
 800c2ea:	dc6c      	bgt.n	800c3c6 <__kernel_rem_pio2f+0x23a>
 800c2ec:	2c00      	cmp	r4, #0
 800c2ee:	dd04      	ble.n	800c2fa <__kernel_rem_pio2f+0x16e>
 800c2f0:	2c01      	cmp	r4, #1
 800c2f2:	d079      	beq.n	800c3e8 <__kernel_rem_pio2f+0x25c>
 800c2f4:	2c02      	cmp	r4, #2
 800c2f6:	f000 8082 	beq.w	800c3fe <__kernel_rem_pio2f+0x272>
 800c2fa:	f1bb 0f02 	cmp.w	fp, #2
 800c2fe:	d131      	bne.n	800c364 <__kernel_rem_pio2f+0x1d8>
 800c300:	eeb7 0a00 	vmov.f32	s0, #112	; 0x3f800000  1.0
 800c304:	ee30 8a48 	vsub.f32	s16, s0, s16
 800c308:	b360      	cbz	r0, 800c364 <__kernel_rem_pio2f+0x1d8>
 800c30a:	4620      	mov	r0, r4
 800c30c:	f000 fa2a 	bl	800c764 <scalbnf>
 800c310:	ee38 8a40 	vsub.f32	s16, s16, s0
 800c314:	e026      	b.n	800c364 <__kernel_rem_pio2f+0x1d8>
 800c316:	ee60 7a28 	vmul.f32	s15, s0, s17
 800c31a:	3a01      	subs	r2, #1
 800c31c:	eefd 7ae7 	vcvt.s32.f32	s15, s15
 800c320:	a942      	add	r1, sp, #264	; 0x108
 800c322:	eef8 7ae7 	vcvt.f32.s32	s15, s15
 800c326:	eb01 0c82 	add.w	ip, r1, r2, lsl #2
 800c32a:	eea7 0ac9 	vfms.f32	s0, s15, s18
 800c32e:	eebd 0ac0 	vcvt.s32.f32	s0, s0
 800c332:	eca0 0a01 	vstmia	r0!, {s0}
 800c336:	ed9c 0a00 	vldr	s0, [ip]
 800c33a:	ee37 0a80 	vadd.f32	s0, s15, s0
 800c33e:	e796      	b.n	800c26e <__kernel_rem_pio2f+0xe2>
 800c340:	d107      	bne.n	800c352 <__kernel_rem_pio2f+0x1c6>
 800c342:	f10a 32ff 	add.w	r2, sl, #4294967295	; 0xffffffff
 800c346:	a906      	add	r1, sp, #24
 800c348:	f851 2022 	ldr.w	r2, [r1, r2, lsl #2]
 800c34c:	ea4f 2b22 	mov.w	fp, r2, asr #8
 800c350:	e7c1      	b.n	800c2d6 <__kernel_rem_pio2f+0x14a>
 800c352:	eef6 7a00 	vmov.f32	s15, #96	; 0x3f000000  0.5
 800c356:	eeb4 8ae7 	vcmpe.f32	s16, s15
 800c35a:	eef1 fa10 	vmrs	APSR_nzcv, fpscr
 800c35e:	da2f      	bge.n	800c3c0 <__kernel_rem_pio2f+0x234>
 800c360:	f04f 0b00 	mov.w	fp, #0
 800c364:	eeb5 8a40 	vcmp.f32	s16, #0.0
 800c368:	eef1 fa10 	vmrs	APSR_nzcv, fpscr
 800c36c:	f040 8098 	bne.w	800c4a0 <__kernel_rem_pio2f+0x314>
 800c370:	f10a 33ff 	add.w	r3, sl, #4294967295	; 0xffffffff
 800c374:	469c      	mov	ip, r3
 800c376:	2200      	movs	r2, #0
 800c378:	45bc      	cmp	ip, r7
 800c37a:	da48      	bge.n	800c40e <__kernel_rem_pio2f+0x282>
 800c37c:	2a00      	cmp	r2, #0
 800c37e:	d05f      	beq.n	800c440 <__kernel_rem_pio2f+0x2b4>
 800c380:	aa06      	add	r2, sp, #24
 800c382:	3c08      	subs	r4, #8
 800c384:	f852 1023 	ldr.w	r1, [r2, r3, lsl #2]
 800c388:	2900      	cmp	r1, #0
 800c38a:	d07d      	beq.n	800c488 <__kernel_rem_pio2f+0x2fc>
 800c38c:	4620      	mov	r0, r4
 800c38e:	eeb7 0a00 	vmov.f32	s0, #112	; 0x3f800000  1.0
 800c392:	9301      	str	r3, [sp, #4]
 800c394:	f000 f9e6 	bl	800c764 <scalbnf>
 800c398:	9b01      	ldr	r3, [sp, #4]
 800c39a:	ed9f 7a3f 	vldr	s14, [pc, #252]	; 800c498 <__kernel_rem_pio2f+0x30c>
 800c39e:	4619      	mov	r1, r3
 800c3a0:	2900      	cmp	r1, #0
 800c3a2:	f280 80af 	bge.w	800c504 <__kernel_rem_pio2f+0x378>
 800c3a6:	4618      	mov	r0, r3
 800c3a8:	2400      	movs	r4, #0
 800c3aa:	2800      	cmp	r0, #0
 800c3ac:	f2c0 80d0 	blt.w	800c550 <__kernel_rem_pio2f+0x3c4>
 800c3b0:	a942      	add	r1, sp, #264	; 0x108
 800c3b2:	eb01 0680 	add.w	r6, r1, r0, lsl #2
 800c3b6:	4a36      	ldr	r2, [pc, #216]	; (800c490 <__kernel_rem_pio2f+0x304>)
 800c3b8:	eddf 7a38 	vldr	s15, [pc, #224]	; 800c49c <__kernel_rem_pio2f+0x310>
 800c3bc:	2100      	movs	r1, #0
 800c3be:	e0bb      	b.n	800c538 <__kernel_rem_pio2f+0x3ac>
 800c3c0:	f04f 0b02 	mov.w	fp, #2
 800c3c4:	e78a      	b.n	800c2dc <__kernel_rem_pio2f+0x150>
 800c3c6:	681a      	ldr	r2, [r3, #0]
 800c3c8:	b948      	cbnz	r0, 800c3de <__kernel_rem_pio2f+0x252>
 800c3ca:	b11a      	cbz	r2, 800c3d4 <__kernel_rem_pio2f+0x248>
 800c3cc:	f5c2 7280 	rsb	r2, r2, #256	; 0x100
 800c3d0:	601a      	str	r2, [r3, #0]
 800c3d2:	2201      	movs	r2, #1
 800c3d4:	f10e 0e01 	add.w	lr, lr, #1
 800c3d8:	3304      	adds	r3, #4
 800c3da:	4610      	mov	r0, r2
 800c3dc:	e784      	b.n	800c2e8 <__kernel_rem_pio2f+0x15c>
 800c3de:	f1c2 02ff 	rsb	r2, r2, #255	; 0xff
 800c3e2:	601a      	str	r2, [r3, #0]
 800c3e4:	4602      	mov	r2, r0
 800c3e6:	e7f5      	b.n	800c3d4 <__kernel_rem_pio2f+0x248>
 800c3e8:	f10a 3cff 	add.w	ip, sl, #4294967295	; 0xffffffff
 800c3ec:	ab06      	add	r3, sp, #24
 800c3ee:	f853 302c 	ldr.w	r3, [r3, ip, lsl #2]
 800c3f2:	f003 037f 	and.w	r3, r3, #127	; 0x7f
 800c3f6:	aa06      	add	r2, sp, #24
 800c3f8:	f842 302c 	str.w	r3, [r2, ip, lsl #2]
 800c3fc:	e77d      	b.n	800c2fa <__kernel_rem_pio2f+0x16e>
 800c3fe:	f10a 3cff 	add.w	ip, sl, #4294967295	; 0xffffffff
 800c402:	ab06      	add	r3, sp, #24
 800c404:	f853 302c 	ldr.w	r3, [r3, ip, lsl #2]
 800c408:	f003 033f 	and.w	r3, r3, #63	; 0x3f
 800c40c:	e7f3      	b.n	800c3f6 <__kernel_rem_pio2f+0x26a>
 800c40e:	a906      	add	r1, sp, #24
 800c410:	f851 002c 	ldr.w	r0, [r1, ip, lsl #2]
 800c414:	f10c 3cff 	add.w	ip, ip, #4294967295	; 0xffffffff
 800c418:	4302      	orrs	r2, r0
 800c41a:	e7ad      	b.n	800c378 <__kernel_rem_pio2f+0x1ec>
 800c41c:	3001      	adds	r0, #1
 800c41e:	f853 2d04 	ldr.w	r2, [r3, #-4]!
 800c422:	2a00      	cmp	r2, #0
 800c424:	d0fa      	beq.n	800c41c <__kernel_rem_pio2f+0x290>
 800c426:	a91a      	add	r1, sp, #104	; 0x68
 800c428:	eb0a 0208 	add.w	r2, sl, r8
 800c42c:	eb01 0282 	add.w	r2, r1, r2, lsl #2
 800c430:	f10a 0301 	add.w	r3, sl, #1
 800c434:	eb0a 0100 	add.w	r1, sl, r0
 800c438:	4299      	cmp	r1, r3
 800c43a:	da04      	bge.n	800c446 <__kernel_rem_pio2f+0x2ba>
 800c43c:	468a      	mov	sl, r1
 800c43e:	e70e      	b.n	800c25e <__kernel_rem_pio2f+0xd2>
 800c440:	9b04      	ldr	r3, [sp, #16]
 800c442:	2001      	movs	r0, #1
 800c444:	e7eb      	b.n	800c41e <__kernel_rem_pio2f+0x292>
 800c446:	9803      	ldr	r0, [sp, #12]
 800c448:	f8dd c004 	ldr.w	ip, [sp, #4]
 800c44c:	f850 0023 	ldr.w	r0, [r0, r3, lsl #2]
 800c450:	9000      	str	r0, [sp, #0]
 800c452:	ee07 0a90 	vmov	s15, r0
 800c456:	eef8 7ae7 	vcvt.f32.s32	s15, s15
 800c45a:	2000      	movs	r0, #0
 800c45c:	ece2 7a01 	vstmia	r2!, {s15}
 800c460:	eddf 7a0e 	vldr	s15, [pc, #56]	; 800c49c <__kernel_rem_pio2f+0x310>
 800c464:	4696      	mov	lr, r2
 800c466:	4548      	cmp	r0, r9
 800c468:	dd06      	ble.n	800c478 <__kernel_rem_pio2f+0x2ec>
 800c46a:	a842      	add	r0, sp, #264	; 0x108
 800c46c:	eb00 0083 	add.w	r0, r0, r3, lsl #2
 800c470:	edc0 7a00 	vstr	s15, [r0]
 800c474:	3301      	adds	r3, #1
 800c476:	e7df      	b.n	800c438 <__kernel_rem_pio2f+0x2ac>
 800c478:	ecfc 6a01 	vldmia	ip!, {s13}
 800c47c:	ed3e 7a01 	vldmdb	lr!, {s14}
 800c480:	3001      	adds	r0, #1
 800c482:	eee6 7a87 	vfma.f32	s15, s13, s14
 800c486:	e7ee      	b.n	800c466 <__kernel_rem_pio2f+0x2da>
 800c488:	3b01      	subs	r3, #1
 800c48a:	e779      	b.n	800c380 <__kernel_rem_pio2f+0x1f4>
 800c48c:	08045638 	.word	0x08045638
 800c490:	0804560c 	.word	0x0804560c
 800c494:	43800000 	.word	0x43800000
 800c498:	3b800000 	.word	0x3b800000
 800c49c:	00000000 	.word	0x00000000
 800c4a0:	9b02      	ldr	r3, [sp, #8]
 800c4a2:	eeb0 0a48 	vmov.f32	s0, s16
 800c4a6:	1b98      	subs	r0, r3, r6
 800c4a8:	f000 f95c 	bl	800c764 <scalbnf>
 800c4ac:	ed1f 7a07 	vldr	s14, [pc, #-28]	; 800c494 <__kernel_rem_pio2f+0x308>
 800c4b0:	eeb4 0ac7 	vcmpe.f32	s0, s14
 800c4b4:	eef1 fa10 	vmrs	APSR_nzcv, fpscr
 800c4b8:	db1b      	blt.n	800c4f2 <__kernel_rem_pio2f+0x366>
 800c4ba:	ed5f 7a09 	vldr	s15, [pc, #-36]	; 800c498 <__kernel_rem_pio2f+0x30c>
 800c4be:	ee60 7a27 	vmul.f32	s15, s0, s15
 800c4c2:	aa06      	add	r2, sp, #24
 800c4c4:	eefd 7ae7 	vcvt.s32.f32	s15, s15
 800c4c8:	a906      	add	r1, sp, #24
 800c4ca:	eef8 7ae7 	vcvt.f32.s32	s15, s15
 800c4ce:	3408      	adds	r4, #8
 800c4d0:	eea7 0ac7 	vfms.f32	s0, s15, s14
 800c4d4:	eefd 7ae7 	vcvt.s32.f32	s15, s15
 800c4d8:	eebd 0ac0 	vcvt.s32.f32	s0, s0
 800c4dc:	ee10 3a10 	vmov	r3, s0
 800c4e0:	f842 302a 	str.w	r3, [r2, sl, lsl #2]
 800c4e4:	ee17 2a90 	vmov	r2, s15
 800c4e8:	f10a 0301 	add.w	r3, sl, #1
 800c4ec:	f841 2023 	str.w	r2, [r1, r3, lsl #2]
 800c4f0:	e74c      	b.n	800c38c <__kernel_rem_pio2f+0x200>
 800c4f2:	eebd 0ac0 	vcvt.s32.f32	s0, s0
 800c4f6:	aa06      	add	r2, sp, #24
 800c4f8:	ee10 3a10 	vmov	r3, s0
 800c4fc:	f842 302a 	str.w	r3, [r2, sl, lsl #2]
 800c500:	4653      	mov	r3, sl
 800c502:	e743      	b.n	800c38c <__kernel_rem_pio2f+0x200>
 800c504:	aa42      	add	r2, sp, #264	; 0x108
 800c506:	eb02 0081 	add.w	r0, r2, r1, lsl #2
 800c50a:	aa06      	add	r2, sp, #24
 800c50c:	f852 2021 	ldr.w	r2, [r2, r1, lsl #2]
 800c510:	9201      	str	r2, [sp, #4]
 800c512:	ee07 2a90 	vmov	s15, r2
 800c516:	eef8 7ae7 	vcvt.f32.s32	s15, s15
 800c51a:	3901      	subs	r1, #1
 800c51c:	ee67 7a80 	vmul.f32	s15, s15, s0
 800c520:	ee20 0a07 	vmul.f32	s0, s0, s14
 800c524:	edc0 7a00 	vstr	s15, [r0]
 800c528:	e73a      	b.n	800c3a0 <__kernel_rem_pio2f+0x214>
 800c52a:	ecf2 6a01 	vldmia	r2!, {s13}
 800c52e:	ecb6 7a01 	vldmia	r6!, {s14}
 800c532:	eee6 7a87 	vfma.f32	s15, s13, s14
 800c536:	3101      	adds	r1, #1
 800c538:	42b9      	cmp	r1, r7
 800c53a:	dc01      	bgt.n	800c540 <__kernel_rem_pio2f+0x3b4>
 800c53c:	428c      	cmp	r4, r1
 800c53e:	daf4      	bge.n	800c52a <__kernel_rem_pio2f+0x39e>
 800c540:	aa56      	add	r2, sp, #344	; 0x158
 800c542:	eb02 0184 	add.w	r1, r2, r4, lsl #2
 800c546:	ed41 7a28 	vstr	s15, [r1, #-160]	; 0xffffff60
 800c54a:	3801      	subs	r0, #1
 800c54c:	3401      	adds	r4, #1
 800c54e:	e72c      	b.n	800c3aa <__kernel_rem_pio2f+0x21e>
 800c550:	9a64      	ldr	r2, [sp, #400]	; 0x190
 800c552:	2a02      	cmp	r2, #2
 800c554:	dc0a      	bgt.n	800c56c <__kernel_rem_pio2f+0x3e0>
 800c556:	2a00      	cmp	r2, #0
 800c558:	dc61      	bgt.n	800c61e <__kernel_rem_pio2f+0x492>
 800c55a:	d03c      	beq.n	800c5d6 <__kernel_rem_pio2f+0x44a>
 800c55c:	9b00      	ldr	r3, [sp, #0]
 800c55e:	f003 0007 	and.w	r0, r3, #7
 800c562:	b057      	add	sp, #348	; 0x15c
 800c564:	ecbd 8b04 	vpop	{d8-d9}
 800c568:	e8bd 8ff0 	ldmia.w	sp!, {r4, r5, r6, r7, r8, r9, sl, fp, pc}
 800c56c:	9a64      	ldr	r2, [sp, #400]	; 0x190
 800c56e:	2a03      	cmp	r2, #3
 800c570:	d1f4      	bne.n	800c55c <__kernel_rem_pio2f+0x3d0>
 800c572:	aa2e      	add	r2, sp, #184	; 0xb8
 800c574:	eb02 0183 	add.w	r1, r2, r3, lsl #2
 800c578:	4608      	mov	r0, r1
 800c57a:	461c      	mov	r4, r3
 800c57c:	2c00      	cmp	r4, #0
 800c57e:	f1a0 0004 	sub.w	r0, r0, #4
 800c582:	dc59      	bgt.n	800c638 <__kernel_rem_pio2f+0x4ac>
 800c584:	4618      	mov	r0, r3
 800c586:	2801      	cmp	r0, #1
 800c588:	f1a1 0104 	sub.w	r1, r1, #4
 800c58c:	dc64      	bgt.n	800c658 <__kernel_rem_pio2f+0x4cc>
 800c58e:	ed5f 7a3d 	vldr	s15, [pc, #-244]	; 800c49c <__kernel_rem_pio2f+0x310>
 800c592:	2b01      	cmp	r3, #1
 800c594:	dc70      	bgt.n	800c678 <__kernel_rem_pio2f+0x4ec>
 800c596:	eddd 6a2e 	vldr	s13, [sp, #184]	; 0xb8
 800c59a:	ed9d 7a2f 	vldr	s14, [sp, #188]	; 0xbc
 800c59e:	f1bb 0f00 	cmp.w	fp, #0
 800c5a2:	d172      	bne.n	800c68a <__kernel_rem_pio2f+0x4fe>
 800c5a4:	edc5 6a00 	vstr	s13, [r5]
 800c5a8:	ed85 7a01 	vstr	s14, [r5, #4]
 800c5ac:	edc5 7a02 	vstr	s15, [r5, #8]
 800c5b0:	e7d4      	b.n	800c55c <__kernel_rem_pio2f+0x3d0>
 800c5b2:	aa2e      	add	r2, sp, #184	; 0xb8
 800c5b4:	eb02 0183 	add.w	r1, r2, r3, lsl #2
 800c5b8:	ed91 7a00 	vldr	s14, [r1]
 800c5bc:	ee77 7a87 	vadd.f32	s15, s15, s14
 800c5c0:	3b01      	subs	r3, #1
 800c5c2:	2b00      	cmp	r3, #0
 800c5c4:	daf5      	bge.n	800c5b2 <__kernel_rem_pio2f+0x426>
 800c5c6:	f1bb 0f00 	cmp.w	fp, #0
 800c5ca:	d001      	beq.n	800c5d0 <__kernel_rem_pio2f+0x444>
 800c5cc:	eef1 7a67 	vneg.f32	s15, s15
 800c5d0:	edc5 7a00 	vstr	s15, [r5]
 800c5d4:	e7c2      	b.n	800c55c <__kernel_rem_pio2f+0x3d0>
 800c5d6:	ed5f 7a4f 	vldr	s15, [pc, #-316]	; 800c49c <__kernel_rem_pio2f+0x310>
 800c5da:	e7f2      	b.n	800c5c2 <__kernel_rem_pio2f+0x436>
 800c5dc:	aa2e      	add	r2, sp, #184	; 0xb8
 800c5de:	eb02 0081 	add.w	r0, r2, r1, lsl #2
 800c5e2:	edd0 7a00 	vldr	s15, [r0]
 800c5e6:	ee37 7a27 	vadd.f32	s14, s14, s15
 800c5ea:	3901      	subs	r1, #1
 800c5ec:	2900      	cmp	r1, #0
 800c5ee:	daf5      	bge.n	800c5dc <__kernel_rem_pio2f+0x450>
 800c5f0:	f1bb 0f00 	cmp.w	fp, #0
 800c5f4:	d017      	beq.n	800c626 <__kernel_rem_pio2f+0x49a>
 800c5f6:	eef1 7a47 	vneg.f32	s15, s14
 800c5fa:	edc5 7a00 	vstr	s15, [r5]
 800c5fe:	eddd 7a2e 	vldr	s15, [sp, #184]	; 0xb8
 800c602:	ee77 7ac7 	vsub.f32	s15, s15, s14
 800c606:	a82f      	add	r0, sp, #188	; 0xbc
 800c608:	2101      	movs	r1, #1
 800c60a:	428b      	cmp	r3, r1
 800c60c:	da0e      	bge.n	800c62c <__kernel_rem_pio2f+0x4a0>
 800c60e:	f1bb 0f00 	cmp.w	fp, #0
 800c612:	d001      	beq.n	800c618 <__kernel_rem_pio2f+0x48c>
 800c614:	eef1 7a67 	vneg.f32	s15, s15
 800c618:	edc5 7a01 	vstr	s15, [r5, #4]
 800c61c:	e79e      	b.n	800c55c <__kernel_rem_pio2f+0x3d0>
 800c61e:	ed1f 7a61 	vldr	s14, [pc, #-388]	; 800c49c <__kernel_rem_pio2f+0x310>
 800c622:	4619      	mov	r1, r3
 800c624:	e7e2      	b.n	800c5ec <__kernel_rem_pio2f+0x460>
 800c626:	eef0 7a47 	vmov.f32	s15, s14
 800c62a:	e7e6      	b.n	800c5fa <__kernel_rem_pio2f+0x46e>
 800c62c:	ecb0 7a01 	vldmia	r0!, {s14}
 800c630:	3101      	adds	r1, #1
 800c632:	ee77 7a87 	vadd.f32	s15, s15, s14
 800c636:	e7e8      	b.n	800c60a <__kernel_rem_pio2f+0x47e>
 800c638:	edd0 7a00 	vldr	s15, [r0]
 800c63c:	edd0 6a01 	vldr	s13, [r0, #4]
 800c640:	ee37 7aa6 	vadd.f32	s14, s15, s13
 800c644:	3c01      	subs	r4, #1
 800c646:	ee77 7ac7 	vsub.f32	s15, s15, s14
 800c64a:	ed80 7a00 	vstr	s14, [r0]
 800c64e:	ee77 7aa6 	vadd.f32	s15, s15, s13
 800c652:	edc0 7a01 	vstr	s15, [r0, #4]
 800c656:	e791      	b.n	800c57c <__kernel_rem_pio2f+0x3f0>
 800c658:	edd1 7a00 	vldr	s15, [r1]
 800c65c:	edd1 6a01 	vldr	s13, [r1, #4]
 800c660:	ee37 7aa6 	vadd.f32	s14, s15, s13
 800c664:	3801      	subs	r0, #1
 800c666:	ee77 7ac7 	vsub.f32	s15, s15, s14
 800c66a:	ed81 7a00 	vstr	s14, [r1]
 800c66e:	ee77 7aa6 	vadd.f32	s15, s15, s13
 800c672:	edc1 7a01 	vstr	s15, [r1, #4]
 800c676:	e786      	b.n	800c586 <__kernel_rem_pio2f+0x3fa>
 800c678:	aa2e      	add	r2, sp, #184	; 0xb8
 800c67a:	eb02 0183 	add.w	r1, r2, r3, lsl #2
 800c67e:	ed91 7a00 	vldr	s14, [r1]
 800c682:	3b01      	subs	r3, #1
 800c684:	ee77 7a87 	vadd.f32	s15, s15, s14
 800c688:	e783      	b.n	800c592 <__kernel_rem_pio2f+0x406>
 800c68a:	eef1 6a66 	vneg.f32	s13, s13
 800c68e:	eeb1 7a47 	vneg.f32	s14, s14
 800c692:	edc5 6a00 	vstr	s13, [r5]
 800c696:	ed85 7a01 	vstr	s14, [r5, #4]
 800c69a:	eef1 7a67 	vneg.f32	s15, s15
 800c69e:	e785      	b.n	800c5ac <__kernel_rem_pio2f+0x420>

0800c6a0 <__kernel_sinf>:
 800c6a0:	ee10 3a10 	vmov	r3, s0
 800c6a4:	f023 4300 	bic.w	r3, r3, #2147483648	; 0x80000000
 800c6a8:	f1b3 5f48 	cmp.w	r3, #838860800	; 0x32000000
 800c6ac:	da04      	bge.n	800c6b8 <__kernel_sinf+0x18>
 800c6ae:	eefd 7ac0 	vcvt.s32.f32	s15, s0
 800c6b2:	ee17 3a90 	vmov	r3, s15
 800c6b6:	b35b      	cbz	r3, 800c710 <__kernel_sinf+0x70>
 800c6b8:	ee20 7a00 	vmul.f32	s14, s0, s0
 800c6bc:	eddf 7a15 	vldr	s15, [pc, #84]	; 800c714 <__kernel_sinf+0x74>
 800c6c0:	ed9f 6a15 	vldr	s12, [pc, #84]	; 800c718 <__kernel_sinf+0x78>
 800c6c4:	eea7 6a27 	vfma.f32	s12, s14, s15
 800c6c8:	eddf 7a14 	vldr	s15, [pc, #80]	; 800c71c <__kernel_sinf+0x7c>
 800c6cc:	eee6 7a07 	vfma.f32	s15, s12, s14
 800c6d0:	ed9f 6a13 	vldr	s12, [pc, #76]	; 800c720 <__kernel_sinf+0x80>
 800c6d4:	eea7 6a87 	vfma.f32	s12, s15, s14
 800c6d8:	eddf 7a12 	vldr	s15, [pc, #72]	; 800c724 <__kernel_sinf+0x84>
 800c6dc:	ee60 6a07 	vmul.f32	s13, s0, s14
 800c6e0:	eee6 7a07 	vfma.f32	s15, s12, s14
 800c6e4:	b930      	cbnz	r0, 800c6f4 <__kernel_sinf+0x54>
 800c6e6:	ed9f 6a10 	vldr	s12, [pc, #64]	; 800c728 <__kernel_sinf+0x88>
 800c6ea:	eea7 6a27 	vfma.f32	s12, s14, s15
 800c6ee:	eea6 0a26 	vfma.f32	s0, s12, s13
 800c6f2:	4770      	bx	lr
 800c6f4:	ee67 7ae6 	vnmul.f32	s15, s15, s13
 800c6f8:	eeb6 6a00 	vmov.f32	s12, #96	; 0x3f000000  0.5
 800c6fc:	eee0 7a86 	vfma.f32	s15, s1, s12
 800c700:	eed7 0a87 	vfnms.f32	s1, s15, s14
 800c704:	eddf 7a09 	vldr	s15, [pc, #36]	; 800c72c <__kernel_sinf+0x8c>
 800c708:	eee6 0aa7 	vfma.f32	s1, s13, s15
 800c70c:	ee30 0a60 	vsub.f32	s0, s0, s1
 800c710:	4770      	bx	lr
 800c712:	bf00      	nop
 800c714:	2f2ec9d3 	.word	0x2f2ec9d3
 800c718:	b2d72f34 	.word	0xb2d72f34
 800c71c:	3638ef1b 	.word	0x3638ef1b
 800c720:	b9500d01 	.word	0xb9500d01
 800c724:	3c088889 	.word	0x3c088889
 800c728:	be2aaaab 	.word	0xbe2aaaab
 800c72c:	3e2aaaab 	.word	0x3e2aaaab

0800c730 <fabsf>:
 800c730:	ee10 3a10 	vmov	r3, s0
 800c734:	f023 4300 	bic.w	r3, r3, #2147483648	; 0x80000000
 800c738:	ee00 3a10 	vmov	s0, r3
 800c73c:	4770      	bx	lr

0800c73e <finitef>:
 800c73e:	b082      	sub	sp, #8
 800c740:	ed8d 0a01 	vstr	s0, [sp, #4]
 800c744:	9801      	ldr	r0, [sp, #4]
 800c746:	f020 4000 	bic.w	r0, r0, #2147483648	; 0x80000000
 800c74a:	f1b0 4fff 	cmp.w	r0, #2139095040	; 0x7f800000
 800c74e:	bfac      	ite	ge
 800c750:	2000      	movge	r0, #0
 800c752:	2001      	movlt	r0, #1
 800c754:	b002      	add	sp, #8
 800c756:	4770      	bx	lr

0800c758 <nanf>:
 800c758:	ed9f 0a01 	vldr	s0, [pc, #4]	; 800c760 <nanf+0x8>
 800c75c:	4770      	bx	lr
 800c75e:	bf00      	nop
 800c760:	7fc00000 	.word	0x7fc00000

0800c764 <scalbnf>:
 800c764:	ee10 3a10 	vmov	r3, s0
 800c768:	f033 4200 	bics.w	r2, r3, #2147483648	; 0x80000000
 800c76c:	d025      	beq.n	800c7ba <scalbnf+0x56>
 800c76e:	f1b2 4fff 	cmp.w	r2, #2139095040	; 0x7f800000
 800c772:	d302      	bcc.n	800c77a <scalbnf+0x16>
 800c774:	ee30 0a00 	vadd.f32	s0, s0, s0
 800c778:	4770      	bx	lr
 800c77a:	f013 4fff 	tst.w	r3, #2139095040	; 0x7f800000
 800c77e:	d122      	bne.n	800c7c6 <scalbnf+0x62>
 800c780:	4b2a      	ldr	r3, [pc, #168]	; (800c82c <scalbnf+0xc8>)
 800c782:	eddf 7a2b 	vldr	s15, [pc, #172]	; 800c830 <scalbnf+0xcc>
 800c786:	4298      	cmp	r0, r3
 800c788:	ee20 0a27 	vmul.f32	s0, s0, s15
 800c78c:	db16      	blt.n	800c7bc <scalbnf+0x58>
 800c78e:	ee10 3a10 	vmov	r3, s0
 800c792:	f3c3 52c7 	ubfx	r2, r3, #23, #8
 800c796:	3a19      	subs	r2, #25
 800c798:	4402      	add	r2, r0
 800c79a:	2afe      	cmp	r2, #254	; 0xfe
 800c79c:	dd15      	ble.n	800c7ca <scalbnf+0x66>
 800c79e:	ee10 3a10 	vmov	r3, s0
 800c7a2:	eddf 7a24 	vldr	s15, [pc, #144]	; 800c834 <scalbnf+0xd0>
 800c7a6:	eddf 6a24 	vldr	s13, [pc, #144]	; 800c838 <scalbnf+0xd4>
 800c7aa:	2b00      	cmp	r3, #0
 800c7ac:	eeb0 7a67 	vmov.f32	s14, s15
 800c7b0:	bfb8      	it	lt
 800c7b2:	eef0 7a66 	vmovlt.f32	s15, s13
 800c7b6:	ee27 0a27 	vmul.f32	s0, s14, s15
 800c7ba:	4770      	bx	lr
 800c7bc:	eddf 7a1f 	vldr	s15, [pc, #124]	; 800c83c <scalbnf+0xd8>
 800c7c0:	ee20 0a27 	vmul.f32	s0, s0, s15
 800c7c4:	4770      	bx	lr
 800c7c6:	0dd2      	lsrs	r2, r2, #23
 800c7c8:	e7e6      	b.n	800c798 <scalbnf+0x34>
 800c7ca:	2a00      	cmp	r2, #0
 800c7cc:	dd06      	ble.n	800c7dc <scalbnf+0x78>
 800c7ce:	f023 43ff 	bic.w	r3, r3, #2139095040	; 0x7f800000
 800c7d2:	ea43 53c2 	orr.w	r3, r3, r2, lsl #23
 800c7d6:	ee00 3a10 	vmov	s0, r3
 800c7da:	4770      	bx	lr
 800c7dc:	f112 0f16 	cmn.w	r2, #22
 800c7e0:	da1a      	bge.n	800c818 <scalbnf+0xb4>
 800c7e2:	f24c 3350 	movw	r3, #50000	; 0xc350
 800c7e6:	4298      	cmp	r0, r3
 800c7e8:	ee10 3a10 	vmov	r3, s0
 800c7ec:	f003 4300 	and.w	r3, r3, #2147483648	; 0x80000000
 800c7f0:	dd0a      	ble.n	800c808 <scalbnf+0xa4>
 800c7f2:	ed9f 0a10 	vldr	s0, [pc, #64]	; 800c834 <scalbnf+0xd0>
 800c7f6:	ed9f 7a10 	vldr	s14, [pc, #64]	; 800c838 <scalbnf+0xd4>
 800c7fa:	eef0 7a40 	vmov.f32	s15, s0
 800c7fe:	2b00      	cmp	r3, #0
 800c800:	bf18      	it	ne
 800c802:	eeb0 0a47 	vmovne.f32	s0, s14
 800c806:	e7db      	b.n	800c7c0 <scalbnf+0x5c>
 800c808:	ed9f 0a0c 	vldr	s0, [pc, #48]	; 800c83c <scalbnf+0xd8>
 800c80c:	ed9f 7a0c 	vldr	s14, [pc, #48]	; 800c840 <scalbnf+0xdc>
 800c810:	eef0 7a40 	vmov.f32	s15, s0
 800c814:	2b00      	cmp	r3, #0
 800c816:	e7f3      	b.n	800c800 <scalbnf+0x9c>
 800c818:	3219      	adds	r2, #25
 800c81a:	f023 43ff 	bic.w	r3, r3, #2139095040	; 0x7f800000
 800c81e:	ea43 53c2 	orr.w	r3, r3, r2, lsl #23
 800c822:	eddf 7a08 	vldr	s15, [pc, #32]	; 800c844 <scalbnf+0xe0>
 800c826:	ee07 3a10 	vmov	s14, r3
 800c82a:	e7c4      	b.n	800c7b6 <scalbnf+0x52>
 800c82c:	ffff3cb0 	.word	0xffff3cb0
 800c830:	4c000000 	.word	0x4c000000
 800c834:	7149f2ca 	.word	0x7149f2ca
 800c838:	f149f2ca 	.word	0xf149f2ca
 800c83c:	0da24260 	.word	0x0da24260
 800c840:	8da24260 	.word	0x8da24260
 800c844:	33000000 	.word	0x33000000

0800c848 <_init>:
 800c848:	b5f8      	push	{r3, r4, r5, r6, r7, lr}
 800c84a:	bf00      	nop
 800c84c:	bcf8      	pop	{r3, r4, r5, r6, r7}
 800c84e:	bc08      	pop	{r3}
 800c850:	469e      	mov	lr, r3
 800c852:	4770      	bx	lr

0800c854 <_fini>:
 800c854:	b5f8      	push	{r3, r4, r5, r6, r7, lr}
 800c856:	bf00      	nop
 800c858:	bcf8      	pop	{r3, r4, r5, r6, r7}
 800c85a:	bc08      	pop	{r3}
 800c85c:	469e      	mov	lr, r3
 800c85e:	4770      	bx	lr
